Archive member included because of file (symbol)

c:/altera/12.0/nios2eds/bin/gnu/h-i686-mingw32/bin/../lib/gcc/nios2-elf/4.1.2\libgcc.a(lib2-divmod.o)
                              obj/led.o (__udivsi3)
c:/altera/12.0/nios2eds/bin/gnu/h-i686-mingw32/bin/../lib/gcc/nios2-elf/4.1.2/../../../../nios2-elf/lib\libc.a(lib_a-ctype_.o)
                              obj/niosII_simple_socket_server.o (__ctype_ptr)
c:/altera/12.0/nios2eds/bin/gnu/h-i686-mingw32/bin/../lib/gcc/nios2-elf/4.1.2/../../../../nios2-elf/lib\libc.a(lib_a-fprintf.o)
                              obj/alt_eeprom/alt_eeprom.o (fprintf)
c:/altera/12.0/nios2eds/bin/gnu/h-i686-mingw32/bin/../lib/gcc/nios2-elf/4.1.2/../../../../nios2-elf/lib\libc.a(lib_a-fwrite.o)
                              obj/alt_error_handler.o (fwrite)
c:/altera/12.0/nios2eds/bin/gnu/h-i686-mingw32/bin/../lib/gcc/nios2-elf/4.1.2/../../../../nios2-elf/lib\libc.a(lib_a-impure.o)
                              obj/alt_eeprom/alt_eeprom.o (_impure_ptr)
c:/altera/12.0/nios2eds/bin/gnu/h-i686-mingw32/bin/../lib/gcc/nios2-elf/4.1.2/../../../../nios2-elf/lib\libc.a(lib_a-malloc.o)
                              obj/alt_eeprom/alt_eeprom.o (free)
c:/altera/12.0/nios2eds/bin/gnu/h-i686-mingw32/bin/../lib/gcc/nios2-elf/4.1.2/../../../../nios2-elf/lib\libc.a(lib_a-mallocr.o)
                              c:/altera/12.0/nios2eds/bin/gnu/h-i686-mingw32/bin/../lib/gcc/nios2-elf/4.1.2/../../../../nios2-elf/lib\libc.a(lib_a-malloc.o) (_malloc_r)
c:/altera/12.0/nios2eds/bin/gnu/h-i686-mingw32/bin/../lib/gcc/nios2-elf/4.1.2/../../../../nios2-elf/lib\libc.a(lib_a-memcpy.o)
                              obj/niosII_simple_socket_server.o (memcpy)
c:/altera/12.0/nios2eds/bin/gnu/h-i686-mingw32/bin/../lib/gcc/nios2-elf/4.1.2/../../../../nios2-elf/lib\libc.a(lib_a-memmove.o)
                              obj/niosII_simple_socket_server.o (memmove)
c:/altera/12.0/nios2eds/bin/gnu/h-i686-mingw32/bin/../lib/gcc/nios2-elf/4.1.2/../../../../nios2-elf/lib\libc.a(lib_a-memset.o)
                              obj/niosII_simple_socket_server.o (memset)
c:/altera/12.0/nios2eds/bin/gnu/h-i686-mingw32/bin/../lib/gcc/nios2-elf/4.1.2/../../../../nios2-elf/lib\libc.a(lib_a-perror.o)
                              obj/alt_error_handler.o (perror)
c:/altera/12.0/nios2eds/bin/gnu/h-i686-mingw32/bin/../lib/gcc/nios2-elf/4.1.2/../../../../nios2-elf/lib\libc.a(lib_a-printf.o)
                              obj/SSS_DE2_115.o (printf)
c:/altera/12.0/nios2eds/bin/gnu/h-i686-mingw32/bin/../lib/gcc/nios2-elf/4.1.2/../../../../nios2-elf/lib\libc.a(lib_a-putchar.o)
                              obj/alt_eeprom/alt_eeprom.o (putchar)
c:/altera/12.0/nios2eds/bin/gnu/h-i686-mingw32/bin/../lib/gcc/nios2-elf/4.1.2/../../../../nios2-elf/lib\libc.a(lib_a-puts.o)
                              obj/SSS_DE2_115.o (puts)
c:/altera/12.0/nios2eds/bin/gnu/h-i686-mingw32/bin/../lib/gcc/nios2-elf/4.1.2/../../../../nios2-elf/lib\libc.a(lib_a-sbrkr.o)
                              c:/altera/12.0/nios2eds/bin/gnu/h-i686-mingw32/bin/../lib/gcc/nios2-elf/4.1.2/../../../../nios2-elf/lib\libc.a(lib_a-mallocr.o) (_sbrk_r)
c:/altera/12.0/nios2eds/bin/gnu/h-i686-mingw32/bin/../lib/gcc/nios2-elf/4.1.2/../../../../nios2-elf/lib\libc.a(lib_a-sprintf.o)
                              obj/niosII_simple_socket_server.o (sprintf)
c:/altera/12.0/nios2eds/bin/gnu/h-i686-mingw32/bin/../lib/gcc/nios2-elf/4.1.2/../../../../nios2-elf/lib\libc.a(lib_a-strchr.o)
                              obj/niosII_simple_socket_server.o (strchr)
c:/altera/12.0/nios2eds/bin/gnu/h-i686-mingw32/bin/../lib/gcc/nios2-elf/4.1.2/../../../../nios2-elf/lib\libc.a(lib_a-strerror.o)
                              c:/altera/12.0/nios2eds/bin/gnu/h-i686-mingw32/bin/../lib/gcc/nios2-elf/4.1.2/../../../../nios2-elf/lib\libc.a(lib_a-perror.o) (strerror)
c:/altera/12.0/nios2eds/bin/gnu/h-i686-mingw32/bin/../lib/gcc/nios2-elf/4.1.2/../../../../nios2-elf/lib\libc.a(lib_a-strlen.o)
                              obj/niosII_simple_socket_server.o (strlen)
c:/altera/12.0/nios2eds/bin/gnu/h-i686-mingw32/bin/../lib/gcc/nios2-elf/4.1.2/../../../../nios2-elf/lib\libc.a(lib_a-u_strerr.o)
                              c:/altera/12.0/nios2eds/bin/gnu/h-i686-mingw32/bin/../lib/gcc/nios2-elf/4.1.2/../../../../nios2-elf/lib\libc.a(lib_a-strerror.o) (_user_strerror)
c:/altera/12.0/nios2eds/bin/gnu/h-i686-mingw32/bin/../lib/gcc/nios2-elf/4.1.2/../../../../nios2-elf/lib\libc.a(lib_a-vfprintf.o)
                              c:/altera/12.0/nios2eds/bin/gnu/h-i686-mingw32/bin/../lib/gcc/nios2-elf/4.1.2/../../../../nios2-elf/lib\libc.a(lib_a-printf.o) (___vfprintf_internal_r)
c:/altera/12.0/nios2eds/bin/gnu/h-i686-mingw32/bin/../lib/gcc/nios2-elf/4.1.2/../../../../nios2-elf/lib\libc.a(lib_a-wsetup.o)
                              c:/altera/12.0/nios2eds/bin/gnu/h-i686-mingw32/bin/../lib/gcc/nios2-elf/4.1.2/../../../../nios2-elf/lib\libc.a(lib_a-vfprintf.o) (__swsetup_r)
c:/altera/12.0/nios2eds/bin/gnu/h-i686-mingw32/bin/../lib/gcc/nios2-elf/4.1.2/../../../../nios2-elf/lib\libc.a(lib_a-dtoa.o)
                              c:/altera/12.0/nios2eds/bin/gnu/h-i686-mingw32/bin/../lib/gcc/nios2-elf/4.1.2/../../../../nios2-elf/lib\libc.a(lib_a-vfprintf.o) (_dtoa_r)
c:/altera/12.0/nios2eds/bin/gnu/h-i686-mingw32/bin/../lib/gcc/nios2-elf/4.1.2/../../../../nios2-elf/lib\libc.a(lib_a-fflush.o)
                              c:/altera/12.0/nios2eds/bin/gnu/h-i686-mingw32/bin/../lib/gcc/nios2-elf/4.1.2/../../../../nios2-elf/lib\libc.a(lib_a-vfprintf.o) (_fflush_r)
c:/altera/12.0/nios2eds/bin/gnu/h-i686-mingw32/bin/../lib/gcc/nios2-elf/4.1.2/../../../../nios2-elf/lib\libc.a(lib_a-findfp.o)
                              c:/altera/12.0/nios2eds/bin/gnu/h-i686-mingw32/bin/../lib/gcc/nios2-elf/4.1.2/../../../../nios2-elf/lib\libc.a(lib_a-fwrite.o) (__sinit)
c:/altera/12.0/nios2eds/bin/gnu/h-i686-mingw32/bin/../lib/gcc/nios2-elf/4.1.2/../../../../nios2-elf/lib\libc.a(lib_a-fputc.o)
                              c:/altera/12.0/nios2eds/bin/gnu/h-i686-mingw32/bin/../lib/gcc/nios2-elf/4.1.2/../../../../nios2-elf/lib\libc.a(lib_a-perror.o) (fputc)
c:/altera/12.0/nios2eds/bin/gnu/h-i686-mingw32/bin/../lib/gcc/nios2-elf/4.1.2/../../../../nios2-elf/lib\libc.a(lib_a-fputs.o)
                              c:/altera/12.0/nios2eds/bin/gnu/h-i686-mingw32/bin/../lib/gcc/nios2-elf/4.1.2/../../../../nios2-elf/lib\libc.a(lib_a-perror.o) (fputs)
c:/altera/12.0/nios2eds/bin/gnu/h-i686-mingw32/bin/../lib/gcc/nios2-elf/4.1.2/../../../../nios2-elf/lib\libc.a(lib_a-freer.o)
                              c:/altera/12.0/nios2eds/bin/gnu/h-i686-mingw32/bin/../lib/gcc/nios2-elf/4.1.2/../../../../nios2-elf/lib\libc.a(lib_a-malloc.o) (_free_r)
c:/altera/12.0/nios2eds/bin/gnu/h-i686-mingw32/bin/../lib/gcc/nios2-elf/4.1.2/../../../../nios2-elf/lib\libc.a(lib_a-fvwrite.o)
                              c:/altera/12.0/nios2eds/bin/gnu/h-i686-mingw32/bin/../lib/gcc/nios2-elf/4.1.2/../../../../nios2-elf/lib\libc.a(lib_a-fwrite.o) (__sfvwrite_r)
c:/altera/12.0/nios2eds/bin/gnu/h-i686-mingw32/bin/../lib/gcc/nios2-elf/4.1.2/../../../../nios2-elf/lib\libc.a(lib_a-fwalk.o)
                              c:/altera/12.0/nios2eds/bin/gnu/h-i686-mingw32/bin/../lib/gcc/nios2-elf/4.1.2/../../../../nios2-elf/lib\libc.a(lib_a-fflush.o) (_fwalk_reent)
c:/altera/12.0/nios2eds/bin/gnu/h-i686-mingw32/bin/../lib/gcc/nios2-elf/4.1.2/../../../../nios2-elf/lib\libc.a(lib_a-int_errno.o)
                              c:/altera/12.0/nios2eds/bin/gnu/h-i686-mingw32/bin/../lib/gcc/nios2-elf/4.1.2/../../../../nios2-elf/lib\libc.a(lib_a-sbrkr.o) (errno)
c:/altera/12.0/nios2eds/bin/gnu/h-i686-mingw32/bin/../lib/gcc/nios2-elf/4.1.2/../../../../nios2-elf/lib\libc.a(lib_a-locale.o)
                              c:/altera/12.0/nios2eds/bin/gnu/h-i686-mingw32/bin/../lib/gcc/nios2-elf/4.1.2/../../../../nios2-elf/lib\libc.a(lib_a-vfprintf.o) (_localeconv_r)
c:/altera/12.0/nios2eds/bin/gnu/h-i686-mingw32/bin/../lib/gcc/nios2-elf/4.1.2/../../../../nios2-elf/lib\libc.a(lib_a-makebuf.o)
                              c:/altera/12.0/nios2eds/bin/gnu/h-i686-mingw32/bin/../lib/gcc/nios2-elf/4.1.2/../../../../nios2-elf/lib\libc.a(lib_a-wsetup.o) (__smakebuf_r)
c:/altera/12.0/nios2eds/bin/gnu/h-i686-mingw32/bin/../lib/gcc/nios2-elf/4.1.2/../../../../nios2-elf/lib\libc.a(lib_a-memchr.o)
                              c:/altera/12.0/nios2eds/bin/gnu/h-i686-mingw32/bin/../lib/gcc/nios2-elf/4.1.2/../../../../nios2-elf/lib\libc.a(lib_a-vfprintf.o) (memchr)
c:/altera/12.0/nios2eds/bin/gnu/h-i686-mingw32/bin/../lib/gcc/nios2-elf/4.1.2/../../../../nios2-elf/lib\libc.a(lib_a-mprec.o)
                              c:/altera/12.0/nios2eds/bin/gnu/h-i686-mingw32/bin/../lib/gcc/nios2-elf/4.1.2/../../../../nios2-elf/lib\libc.a(lib_a-dtoa.o) (_Bfree)
c:/altera/12.0/nios2eds/bin/gnu/h-i686-mingw32/bin/../lib/gcc/nios2-elf/4.1.2/../../../../nios2-elf/lib\libc.a(lib_a-putc.o)
                              c:/altera/12.0/nios2eds/bin/gnu/h-i686-mingw32/bin/../lib/gcc/nios2-elf/4.1.2/../../../../nios2-elf/lib\libc.a(lib_a-putchar.o) (_putc_r)
c:/altera/12.0/nios2eds/bin/gnu/h-i686-mingw32/bin/../lib/gcc/nios2-elf/4.1.2/../../../../nios2-elf/lib\libc.a(lib_a-reallocr.o)
                              c:/altera/12.0/nios2eds/bin/gnu/h-i686-mingw32/bin/../lib/gcc/nios2-elf/4.1.2/../../../../nios2-elf/lib\libc.a(lib_a-fvwrite.o) (_realloc_r)
c:/altera/12.0/nios2eds/bin/gnu/h-i686-mingw32/bin/../lib/gcc/nios2-elf/4.1.2/../../../../nios2-elf/lib\libc.a(lib_a-s_isinfd.o)
                              c:/altera/12.0/nios2eds/bin/gnu/h-i686-mingw32/bin/../lib/gcc/nios2-elf/4.1.2/../../../../nios2-elf/lib\libc.a(lib_a-vfprintf.o) (__isinfd)
c:/altera/12.0/nios2eds/bin/gnu/h-i686-mingw32/bin/../lib/gcc/nios2-elf/4.1.2/../../../../nios2-elf/lib\libc.a(lib_a-s_isnand.o)
                              c:/altera/12.0/nios2eds/bin/gnu/h-i686-mingw32/bin/../lib/gcc/nios2-elf/4.1.2/../../../../nios2-elf/lib\libc.a(lib_a-vfprintf.o) (__isnand)
c:/altera/12.0/nios2eds/bin/gnu/h-i686-mingw32/bin/../lib/gcc/nios2-elf/4.1.2/../../../../nios2-elf/lib\libc.a(lib_a-stdio.o)
                              c:/altera/12.0/nios2eds/bin/gnu/h-i686-mingw32/bin/../lib/gcc/nios2-elf/4.1.2/../../../../nios2-elf/lib\libc.a(lib_a-findfp.o) (__sclose)
c:/altera/12.0/nios2eds/bin/gnu/h-i686-mingw32/bin/../lib/gcc/nios2-elf/4.1.2/../../../../nios2-elf/lib\libc.a(lib_a-strcmp.o)
                              c:/altera/12.0/nios2eds/bin/gnu/h-i686-mingw32/bin/../lib/gcc/nios2-elf/4.1.2/../../../../nios2-elf/lib\libc.a(lib_a-locale.o) (strcmp)
c:/altera/12.0/nios2eds/bin/gnu/h-i686-mingw32/bin/../lib/gcc/nios2-elf/4.1.2/../../../../nios2-elf/lib\libc.a(lib_a-wbuf.o)
                              c:/altera/12.0/nios2eds/bin/gnu/h-i686-mingw32/bin/../lib/gcc/nios2-elf/4.1.2/../../../../nios2-elf/lib\libc.a(lib_a-putc.o) (__swbuf_r)
c:/altera/12.0/nios2eds/bin/gnu/h-i686-mingw32/bin/../lib/gcc/nios2-elf/4.1.2/../../../../nios2-elf/lib\libc.a(lib_a-writer.o)
                              c:/altera/12.0/nios2eds/bin/gnu/h-i686-mingw32/bin/../lib/gcc/nios2-elf/4.1.2/../../../../nios2-elf/lib\libc.a(lib_a-stdio.o) (_write_r)
c:/altera/12.0/nios2eds/bin/gnu/h-i686-mingw32/bin/../lib/gcc/nios2-elf/4.1.2/../../../../nios2-elf/lib\libc.a(lib_a-callocr.o)
                              c:/altera/12.0/nios2eds/bin/gnu/h-i686-mingw32/bin/../lib/gcc/nios2-elf/4.1.2/../../../../nios2-elf/lib\libc.a(lib_a-mprec.o) (_calloc_r)
c:/altera/12.0/nios2eds/bin/gnu/h-i686-mingw32/bin/../lib/gcc/nios2-elf/4.1.2/../../../../nios2-elf/lib\libc.a(lib_a-closer.o)
                              c:/altera/12.0/nios2eds/bin/gnu/h-i686-mingw32/bin/../lib/gcc/nios2-elf/4.1.2/../../../../nios2-elf/lib\libc.a(lib_a-stdio.o) (_close_r)
c:/altera/12.0/nios2eds/bin/gnu/h-i686-mingw32/bin/../lib/gcc/nios2-elf/4.1.2/../../../../nios2-elf/lib\libc.a(lib_a-fclose.o)
                              c:/altera/12.0/nios2eds/bin/gnu/h-i686-mingw32/bin/../lib/gcc/nios2-elf/4.1.2/../../../../nios2-elf/lib\libc.a(lib_a-findfp.o) (fclose)
c:/altera/12.0/nios2eds/bin/gnu/h-i686-mingw32/bin/../lib/gcc/nios2-elf/4.1.2/../../../../nios2-elf/lib\libc.a(lib_a-fstatr.o)
                              c:/altera/12.0/nios2eds/bin/gnu/h-i686-mingw32/bin/../lib/gcc/nios2-elf/4.1.2/../../../../nios2-elf/lib\libc.a(lib_a-makebuf.o) (_fstat_r)
c:/altera/12.0/nios2eds/bin/gnu/h-i686-mingw32/bin/../lib/gcc/nios2-elf/4.1.2/../../../../nios2-elf/lib\libc.a(lib_a-isattyr.o)
                              c:/altera/12.0/nios2eds/bin/gnu/h-i686-mingw32/bin/../lib/gcc/nios2-elf/4.1.2/../../../../nios2-elf/lib\libc.a(lib_a-makebuf.o) (_isatty_r)
c:/altera/12.0/nios2eds/bin/gnu/h-i686-mingw32/bin/../lib/gcc/nios2-elf/4.1.2/../../../../nios2-elf/lib\libc.a(lib_a-lseekr.o)
                              c:/altera/12.0/nios2eds/bin/gnu/h-i686-mingw32/bin/../lib/gcc/nios2-elf/4.1.2/../../../../nios2-elf/lib\libc.a(lib_a-stdio.o) (_lseek_r)
c:/altera/12.0/nios2eds/bin/gnu/h-i686-mingw32/bin/../lib/gcc/nios2-elf/4.1.2/../../../../nios2-elf/lib\libc.a(lib_a-readr.o)
                              c:/altera/12.0/nios2eds/bin/gnu/h-i686-mingw32/bin/../lib/gcc/nios2-elf/4.1.2/../../../../nios2-elf/lib\libc.a(lib_a-stdio.o) (_read_r)
c:/altera/12.0/nios2eds/bin/gnu/h-i686-mingw32/bin/../lib/gcc/nios2-elf/4.1.2\libgcc.a(_udivdi3.o)
                              c:/altera/12.0/nios2eds/bin/gnu/h-i686-mingw32/bin/../lib/gcc/nios2-elf/4.1.2/../../../../nios2-elf/lib\libc.a(lib_a-vfprintf.o) (__udivdi3)
c:/altera/12.0/nios2eds/bin/gnu/h-i686-mingw32/bin/../lib/gcc/nios2-elf/4.1.2\libgcc.a(_umoddi3.o)
                              c:/altera/12.0/nios2eds/bin/gnu/h-i686-mingw32/bin/../lib/gcc/nios2-elf/4.1.2/../../../../nios2-elf/lib\libc.a(lib_a-vfprintf.o) (__umoddi3)
c:/altera/12.0/nios2eds/bin/gnu/h-i686-mingw32/bin/../lib/gcc/nios2-elf/4.1.2\libgcc.a(_addsub_df.o)
                              c:/altera/12.0/nios2eds/bin/gnu/h-i686-mingw32/bin/../lib/gcc/nios2-elf/4.1.2/../../../../nios2-elf/lib\libc.a(lib_a-dtoa.o) (__subdf3)
c:/altera/12.0/nios2eds/bin/gnu/h-i686-mingw32/bin/../lib/gcc/nios2-elf/4.1.2\libgcc.a(_mul_df.o)
                              c:/altera/12.0/nios2eds/bin/gnu/h-i686-mingw32/bin/../lib/gcc/nios2-elf/4.1.2/../../../../nios2-elf/lib\libc.a(lib_a-dtoa.o) (__muldf3)
c:/altera/12.0/nios2eds/bin/gnu/h-i686-mingw32/bin/../lib/gcc/nios2-elf/4.1.2\libgcc.a(_div_df.o)
                              c:/altera/12.0/nios2eds/bin/gnu/h-i686-mingw32/bin/../lib/gcc/nios2-elf/4.1.2/../../../../nios2-elf/lib\libc.a(lib_a-dtoa.o) (__divdf3)
c:/altera/12.0/nios2eds/bin/gnu/h-i686-mingw32/bin/../lib/gcc/nios2-elf/4.1.2\libgcc.a(_eq_df.o)
                              c:/altera/12.0/nios2eds/bin/gnu/h-i686-mingw32/bin/../lib/gcc/nios2-elf/4.1.2/../../../../nios2-elf/lib\libc.a(lib_a-vfprintf.o) (__eqdf2)
c:/altera/12.0/nios2eds/bin/gnu/h-i686-mingw32/bin/../lib/gcc/nios2-elf/4.1.2\libgcc.a(_ne_df.o)
                              c:/altera/12.0/nios2eds/bin/gnu/h-i686-mingw32/bin/../lib/gcc/nios2-elf/4.1.2/../../../../nios2-elf/lib\libc.a(lib_a-vfprintf.o) (__nedf2)
c:/altera/12.0/nios2eds/bin/gnu/h-i686-mingw32/bin/../lib/gcc/nios2-elf/4.1.2\libgcc.a(_gt_df.o)
                              c:/altera/12.0/nios2eds/bin/gnu/h-i686-mingw32/bin/../lib/gcc/nios2-elf/4.1.2/../../../../nios2-elf/lib\libc.a(lib_a-dtoa.o) (__gtdf2)
c:/altera/12.0/nios2eds/bin/gnu/h-i686-mingw32/bin/../lib/gcc/nios2-elf/4.1.2\libgcc.a(_ge_df.o)
                              c:/altera/12.0/nios2eds/bin/gnu/h-i686-mingw32/bin/../lib/gcc/nios2-elf/4.1.2/../../../../nios2-elf/lib\libc.a(lib_a-dtoa.o) (__gedf2)
c:/altera/12.0/nios2eds/bin/gnu/h-i686-mingw32/bin/../lib/gcc/nios2-elf/4.1.2\libgcc.a(_lt_df.o)
                              c:/altera/12.0/nios2eds/bin/gnu/h-i686-mingw32/bin/../lib/gcc/nios2-elf/4.1.2/../../../../nios2-elf/lib\libc.a(lib_a-vfprintf.o) (__ltdf2)
c:/altera/12.0/nios2eds/bin/gnu/h-i686-mingw32/bin/../lib/gcc/nios2-elf/4.1.2\libgcc.a(_si_to_df.o)
                              c:/altera/12.0/nios2eds/bin/gnu/h-i686-mingw32/bin/../lib/gcc/nios2-elf/4.1.2/../../../../nios2-elf/lib\libc.a(lib_a-dtoa.o) (__floatsidf)
c:/altera/12.0/nios2eds/bin/gnu/h-i686-mingw32/bin/../lib/gcc/nios2-elf/4.1.2\libgcc.a(_df_to_si.o)
                              c:/altera/12.0/nios2eds/bin/gnu/h-i686-mingw32/bin/../lib/gcc/nios2-elf/4.1.2/../../../../nios2-elf/lib\libc.a(lib_a-dtoa.o) (__fixdfsi)
c:/altera/12.0/nios2eds/bin/gnu/h-i686-mingw32/bin/../lib/gcc/nios2-elf/4.1.2\libgcc.a(_thenan_df.o)
                              c:/altera/12.0/nios2eds/bin/gnu/h-i686-mingw32/bin/../lib/gcc/nios2-elf/4.1.2\libgcc.a(_addsub_df.o) (__thenan_df)
c:/altera/12.0/nios2eds/bin/gnu/h-i686-mingw32/bin/../lib/gcc/nios2-elf/4.1.2\libgcc.a(_usi_to_df.o)
                              c:/altera/12.0/nios2eds/bin/gnu/h-i686-mingw32/bin/../lib/gcc/nios2-elf/4.1.2/../../../../nios2-elf/lib\libc.a(lib_a-dtoa.o) (__floatunsidf)
c:/altera/12.0/nios2eds/bin/gnu/h-i686-mingw32/bin/../lib/gcc/nios2-elf/4.1.2\libgcc.a(_muldi3.o)
                              c:/altera/12.0/nios2eds/bin/gnu/h-i686-mingw32/bin/../lib/gcc/nios2-elf/4.1.2\libgcc.a(_mul_df.o) (__muldi3)
c:/altera/12.0/nios2eds/bin/gnu/h-i686-mingw32/bin/../lib/gcc/nios2-elf/4.1.2\libgcc.a(_clz.o)
                              c:/altera/12.0/nios2eds/bin/gnu/h-i686-mingw32/bin/../lib/gcc/nios2-elf/4.1.2\libgcc.a(_udivdi3.o) (__clz_tab)
c:/altera/12.0/nios2eds/bin/gnu/h-i686-mingw32/bin/../lib/gcc/nios2-elf/4.1.2\libgcc.a(_clzsi2.o)
                              c:/altera/12.0/nios2eds/bin/gnu/h-i686-mingw32/bin/../lib/gcc/nios2-elf/4.1.2\libgcc.a(_si_to_df.o) (__clzsi2)
c:/altera/12.0/nios2eds/bin/gnu/h-i686-mingw32/bin/../lib/gcc/nios2-elf/4.1.2\libgcc.a(_pack_df.o)
                              c:/altera/12.0/nios2eds/bin/gnu/h-i686-mingw32/bin/../lib/gcc/nios2-elf/4.1.2\libgcc.a(_addsub_df.o) (__pack_d)
c:/altera/12.0/nios2eds/bin/gnu/h-i686-mingw32/bin/../lib/gcc/nios2-elf/4.1.2\libgcc.a(_unpack_df.o)
                              c:/altera/12.0/nios2eds/bin/gnu/h-i686-mingw32/bin/../lib/gcc/nios2-elf/4.1.2\libgcc.a(_addsub_df.o) (__unpack_d)
c:/altera/12.0/nios2eds/bin/gnu/h-i686-mingw32/bin/../lib/gcc/nios2-elf/4.1.2\libgcc.a(_fpcmp_parts_df.o)
                              c:/altera/12.0/nios2eds/bin/gnu/h-i686-mingw32/bin/../lib/gcc/nios2-elf/4.1.2\libgcc.a(_eq_df.o) (__fpcmp_parts_d)
../niosII_simple_socket_server_1_bsp/\libucosii_bsp.a(alt_flash_dev.o)
                              obj/SSS_DE2_115.o (alt_flash_open_dev)
../niosII_simple_socket_server_1_bsp/\libucosii_bsp.a(alt_fstat.o)
                              c:/altera/12.0/nios2eds/bin/gnu/h-i686-mingw32/bin/../lib/gcc/nios2-elf/4.1.2/../../../../nios2-elf/lib\libc.a(lib_a-fstatr.o) (fstat)
../niosII_simple_socket_server_1_bsp/\libucosii_bsp.a(alt_isatty.o)
                              c:/altera/12.0/nios2eds/bin/gnu/h-i686-mingw32/bin/../lib/gcc/nios2-elf/4.1.2/../../../../nios2-elf/lib\libc.a(lib_a-isattyr.o) (isatty)
../niosII_simple_socket_server_1_bsp/\libucosii_bsp.a(alt_load.o)
                              ../niosII_simple_socket_server_1_bsp//obj/HAL/src/crt0.o (alt_load)
../niosII_simple_socket_server_1_bsp/\libucosii_bsp.a(alt_lseek.o)
                              c:/altera/12.0/nios2eds/bin/gnu/h-i686-mingw32/bin/../lib/gcc/nios2-elf/4.1.2/../../../../nios2-elf/lib\libc.a(lib_a-lseekr.o) (lseek)
../niosII_simple_socket_server_1_bsp/\libucosii_bsp.a(alt_main.o)
                              ../niosII_simple_socket_server_1_bsp//obj/HAL/src/crt0.o (alt_main)
../niosII_simple_socket_server_1_bsp/\libucosii_bsp.a(alt_sbrk.o)
                              c:/altera/12.0/nios2eds/bin/gnu/h-i686-mingw32/bin/../lib/gcc/nios2-elf/4.1.2/../../../../nios2-elf/lib\libc.a(lib_a-sbrkr.o) (sbrk)
../niosII_simple_socket_server_1_bsp/\libucosii_bsp.a(alt_usleep.o)
                              obj/alt_eeprom/alt_2_wire.o (usleep)
../niosII_simple_socket_server_1_bsp/\libucosii_bsp.a(alt_env_lock.o)
                              ../niosII_simple_socket_server_1_bsp/\libucosii_bsp.a(alt_main.o) (alt_envsem)
../niosII_simple_socket_server_1_bsp/\libucosii_bsp.a(alt_malloc_lock.o)
                              c:/altera/12.0/nios2eds/bin/gnu/h-i686-mingw32/bin/../lib/gcc/nios2-elf/4.1.2/../../../../nios2-elf/lib\libc.a(lib_a-mallocr.o) (__malloc_lock)
../niosII_simple_socket_server_1_bsp/\libucosii_bsp.a(os_core.o)
                              ../niosII_simple_socket_server_1_bsp/\libucosii_bsp.a(alt_main.o) (OSInit)
../niosII_simple_socket_server_1_bsp/\libucosii_bsp.a(os_dbg.o)
                              ../niosII_simple_socket_server_1_bsp/\libucosii_bsp.a(os_core.o) (OSDebugInit)
../niosII_simple_socket_server_1_bsp/\libucosii_bsp.a(os_flag.o)
                              ../niosII_simple_socket_server_1_bsp/\libucosii_bsp.a(os_core.o) (OS_FlagInit)
../niosII_simple_socket_server_1_bsp/\libucosii_bsp.a(os_mbox.o)
                              obj/led.o (OSMboxAccept)
../niosII_simple_socket_server_1_bsp/\libucosii_bsp.a(os_mem.o)
                              ../niosII_simple_socket_server_1_bsp/\libucosii_bsp.a(os_core.o) (OS_MemInit)
../niosII_simple_socket_server_1_bsp/\libucosii_bsp.a(os_q.o)
                              obj/niosII_simple_socket_server.o (OSQCreate)
../niosII_simple_socket_server_1_bsp/\libucosii_bsp.a(os_sem.o)
                              ../niosII_simple_socket_server_1_bsp/\libucosii_bsp.a(alt_main.o) (OSSemCreate)
../niosII_simple_socket_server_1_bsp/\libucosii_bsp.a(os_task.o)
                              obj/iniche_init.o (OSTaskCreateExt)
../niosII_simple_socket_server_1_bsp/\libucosii_bsp.a(os_time.o)
                              obj/iniche_init.o (OSTimeDly)
../niosII_simple_socket_server_1_bsp/\libucosii_bsp.a(alt_sys_init.o)
                              ../niosII_simple_socket_server_1_bsp/\libucosii_bsp.a(alt_main.o) (alt_irq_init)
../niosII_simple_socket_server_1_bsp/\libucosii_bsp.a(altera_avalon_cfi_flash.o)
                              ../niosII_simple_socket_server_1_bsp/\libucosii_bsp.a(alt_sys_init.o) (alt_flash_cfi_init)
../niosII_simple_socket_server_1_bsp/\libucosii_bsp.a(altera_avalon_cfi_flash_table.o)
                              ../niosII_simple_socket_server_1_bsp/\libucosii_bsp.a(altera_avalon_cfi_flash.o) (alt_set_flash_width_func)
../niosII_simple_socket_server_1_bsp/\libucosii_bsp.a(altera_avalon_jtag_uart_fd.o)
                              ../niosII_simple_socket_server_1_bsp/\libucosii_bsp.a(alt_sys_init.o) (altera_avalon_jtag_uart_read_fd)
../niosII_simple_socket_server_1_bsp/\libucosii_bsp.a(altera_avalon_jtag_uart_init.o)
                              ../niosII_simple_socket_server_1_bsp/\libucosii_bsp.a(alt_sys_init.o) (altera_avalon_jtag_uart_init)
../niosII_simple_socket_server_1_bsp/\libucosii_bsp.a(altera_avalon_jtag_uart_ioctl.o)
                              ../niosII_simple_socket_server_1_bsp/\libucosii_bsp.a(altera_avalon_jtag_uart_fd.o) (altera_avalon_jtag_uart_ioctl)
../niosII_simple_socket_server_1_bsp/\libucosii_bsp.a(altera_avalon_jtag_uart_read.o)
                              ../niosII_simple_socket_server_1_bsp/\libucosii_bsp.a(altera_avalon_jtag_uart_fd.o) (altera_avalon_jtag_uart_read)
../niosII_simple_socket_server_1_bsp/\libucosii_bsp.a(altera_avalon_jtag_uart_write.o)
                              ../niosII_simple_socket_server_1_bsp/\libucosii_bsp.a(altera_avalon_jtag_uart_fd.o) (altera_avalon_jtag_uart_write)
../niosII_simple_socket_server_1_bsp/\libucosii_bsp.a(altera_avalon_lcd_16207.o)
                              ../niosII_simple_socket_server_1_bsp/\libucosii_bsp.a(alt_sys_init.o) (altera_avalon_lcd_16207_init)
../niosII_simple_socket_server_1_bsp/\libucosii_bsp.a(altera_avalon_lcd_16207_fd.o)
                              ../niosII_simple_socket_server_1_bsp/\libucosii_bsp.a(alt_sys_init.o) (altera_avalon_lcd_16207_write_fd)
../niosII_simple_socket_server_1_bsp/\libucosii_bsp.a(altera_avalon_sgdma.o)
                              ../niosII_simple_socket_server_1_bsp/\libucosii_bsp.a(alt_sys_init.o) (alt_avalon_sgdma_init)
../niosII_simple_socket_server_1_bsp/\libucosii_bsp.a(altera_avalon_timer_sc.o)
                              ../niosII_simple_socket_server_1_bsp/\libucosii_bsp.a(alt_sys_init.o) (alt_avalon_timer_sc_init)
../niosII_simple_socket_server_1_bsp/\libucosii_bsp.a(altera_avalon_tse.o)
                              obj/niosII_simple_socket_server.o (marvell_cfg_rgmii)
../niosII_simple_socket_server_1_bsp/\libucosii_bsp.a(altera_avalon_uart_fd.o)
                              ../niosII_simple_socket_server_1_bsp/\libucosii_bsp.a(alt_sys_init.o) (altera_avalon_uart_read_fd)
../niosII_simple_socket_server_1_bsp/\libucosii_bsp.a(altera_avalon_uart_init.o)
                              ../niosII_simple_socket_server_1_bsp/\libucosii_bsp.a(alt_sys_init.o) (altera_avalon_uart_init)
../niosII_simple_socket_server_1_bsp/\libucosii_bsp.a(altera_avalon_uart_read.o)
                              ../niosII_simple_socket_server_1_bsp/\libucosii_bsp.a(altera_avalon_uart_fd.o) (altera_avalon_uart_read)
../niosII_simple_socket_server_1_bsp/\libucosii_bsp.a(altera_avalon_uart_write.o)
                              ../niosII_simple_socket_server_1_bsp/\libucosii_bsp.a(altera_avalon_uart_fd.o) (altera_avalon_uart_write)
../niosII_simple_socket_server_1_bsp/\libucosii_bsp.a(ins_tse_mac.o)
                              ../niosII_simple_socket_server_1_bsp/\libucosii_bsp.a(alt_sys_init.o) (number_of_tse_mac)
../niosII_simple_socket_server_1_bsp/\libucosii_bsp.a(alt_iniche_close.o)
                              obj/niosII_simple_socket_server.o (close)
../niosII_simple_socket_server_1_bsp/\libucosii_bsp.a(alt_iniche_dev.o)
                              ../niosII_simple_socket_server_1_bsp/\libucosii_bsp.a(alt_sys_init.o) (alt_iniche_dev_list)
../niosII_simple_socket_server_1_bsp/\libucosii_bsp.a(alt_iniche_read.o)
                              c:/altera/12.0/nios2eds/bin/gnu/h-i686-mingw32/bin/../lib/gcc/nios2-elf/4.1.2/../../../../nios2-elf/lib\libc.a(lib_a-readr.o) (read)
../niosII_simple_socket_server_1_bsp/\libucosii_bsp.a(alt_iniche_write.o)
                              c:/altera/12.0/nios2eds/bin/gnu/h-i686-mingw32/bin/../lib/gcc/nios2-elf/4.1.2/../../../../nios2-elf/lib\libc.a(lib_a-writer.o) (write)
../niosII_simple_socket_server_1_bsp/\libucosii_bsp.a(ipnet.o)
                              ../niosII_simple_socket_server_1_bsp/\libucosii_bsp.a(ins_tse_mac.o) (rcvdq)
../niosII_simple_socket_server_1_bsp/\libucosii_bsp.a(ipstart.o)
                              ../niosII_simple_socket_server_1_bsp/\libucosii_bsp.a(ipnet.o) (ifNumber)
../niosII_simple_socket_server_1_bsp/\libucosii_bsp.a(igmp_cmn.o)
                              ../niosII_simple_socket_server_1_bsp/\libucosii_bsp.a(ipstart.o) (igmp_init)
../niosII_simple_socket_server_1_bsp/\libucosii_bsp.a(bsdsock.o)
                              obj/niosII_simple_socket_server.o (bsd_accept)
../niosII_simple_socket_server_1_bsp/\libucosii_bsp.a(cksum.o)
                              ../niosII_simple_socket_server_1_bsp/\libucosii_bsp.a(igmp_cmn.o) (cksum)
../niosII_simple_socket_server_1_bsp/\libucosii_bsp.a(in_utils.o)
                              ../niosII_simple_socket_server_1_bsp/\libucosii_bsp.a(ins_tse_mac.o) (ns_printf)
../niosII_simple_socket_server_1_bsp/\libucosii_bsp.a(netmain.o)
                              obj/iniche_init.o (iniche_net_ready)
../niosII_simple_socket_server_1_bsp/\libucosii_bsp.a(tk_crnos.o)
                              ../niosII_simple_socket_server_1_bsp/\libucosii_bsp.a(ipnet.o) (tk_yield)
../niosII_simple_socket_server_1_bsp/\libucosii_bsp.a(pktalloc.o)
                              ../niosII_simple_socket_server_1_bsp/\libucosii_bsp.a(ipnet.o) (pk_init)
../niosII_simple_socket_server_1_bsp/\libucosii_bsp.a(q.o)
                              ../niosII_simple_socket_server_1_bsp/\libucosii_bsp.a(ipnet.o) (getq)
../niosII_simple_socket_server_1_bsp/\libucosii_bsp.a(asm_cksum.o)
                              ../niosII_simple_socket_server_1_bsp/\libucosii_bsp.a(cksum.o) (asm_cksum)
../niosII_simple_socket_server_1_bsp/\libucosii_bsp.a(brdutils.o)
                              ../niosII_simple_socket_server_1_bsp/\libucosii_bsp.a(ipnet.o) (dtrap)
../niosII_simple_socket_server_1_bsp/\libucosii_bsp.a(osportco.o)
                              ../niosII_simple_socket_server_1_bsp/\libucosii_bsp.a(tk_crnos.o) (tcp_sleep_count)
../niosII_simple_socket_server_1_bsp/\libucosii_bsp.a(targnios.o)
                              obj/iniche_init.o (alt_iniche_init)
../niosII_simple_socket_server_1_bsp/\libucosii_bsp.a(nptcp.o)
                              ../niosII_simple_socket_server_1_bsp/\libucosii_bsp.a(bsdsock.o) (soq)
../niosII_simple_socket_server_1_bsp/\libucosii_bsp.a(rawsock.o)
                              ../niosII_simple_socket_server_1_bsp/\libucosii_bsp.a(nptcp.o) (rawip_usrreq)
../niosII_simple_socket_server_1_bsp/\libucosii_bsp.a(sockcall.o)
                              obj/niosII_simple_socket_server.o (t_socket)
../niosII_simple_socket_server_1_bsp/\libucosii_bsp.a(socket.o)
                              ../niosII_simple_socket_server_1_bsp/\libucosii_bsp.a(sockcall.o) (socreate)
../niosII_simple_socket_server_1_bsp/\libucosii_bsp.a(socket2.o)
                              ../niosII_simple_socket_server_1_bsp/\libucosii_bsp.a(sockcall.o) (soqremque)
../niosII_simple_socket_server_1_bsp/\libucosii_bsp.a(soselect.o)
                              ../niosII_simple_socket_server_1_bsp/\libucosii_bsp.a(bsdsock.o) (t_select)
../niosII_simple_socket_server_1_bsp/\libucosii_bsp.a(tcp_in.o)
                              ../niosII_simple_socket_server_1_bsp/\libucosii_bsp.a(nptcp.o) (tcp_input)
../niosII_simple_socket_server_1_bsp/\libucosii_bsp.a(tcp_out.o)
                              ../niosII_simple_socket_server_1_bsp/\libucosii_bsp.a(tcp_in.o) (tcp_output)
../niosII_simple_socket_server_1_bsp/\libucosii_bsp.a(tcp_subr.o)
                              ../niosII_simple_socket_server_1_bsp/\libucosii_bsp.a(nptcp.o) (tcp_init)
../niosII_simple_socket_server_1_bsp/\libucosii_bsp.a(tcp_timr.o)
                              ../niosII_simple_socket_server_1_bsp/\libucosii_bsp.a(tcp_in.o) (tcp_keepidle)
../niosII_simple_socket_server_1_bsp/\libucosii_bsp.a(tcp_usr.o)
                              ../niosII_simple_socket_server_1_bsp/\libucosii_bsp.a(nptcp.o) (tcp_usrreq)
../niosII_simple_socket_server_1_bsp/\libucosii_bsp.a(tcp_zio.o)
                              ../niosII_simple_socket_server_1_bsp/\libucosii_bsp.a(tcp_in.o) (tcp_data_upcall)
../niosII_simple_socket_server_1_bsp/\libucosii_bsp.a(tcpport.o)
                              ../niosII_simple_socket_server_1_bsp/\libucosii_bsp.a(ipstart.o) (tcpinit)
../niosII_simple_socket_server_1_bsp/\libucosii_bsp.a(udpsock.o)
                              ../niosII_simple_socket_server_1_bsp/\libucosii_bsp.a(nptcp.o) (udp_usrreq)
../niosII_simple_socket_server_1_bsp/\libucosii_bsp.a(alt_alarm_start.o)
                              ../niosII_simple_socket_server_1_bsp/\libucosii_bsp.a(altera_avalon_jtag_uart_init.o) (alt_alarm_start)
../niosII_simple_socket_server_1_bsp/\libucosii_bsp.a(alt_busy_sleep.o)
                              ../niosII_simple_socket_server_1_bsp/\libucosii_bsp.a(alt_usleep.o) (alt_busy_sleep)
../niosII_simple_socket_server_1_bsp/\libucosii_bsp.a(alt_close.o)
                              ../niosII_simple_socket_server_1_bsp/\libucosii_bsp.a(alt_iniche_close.o) (alt_close)
../niosII_simple_socket_server_1_bsp/\libucosii_bsp.a(alt_dcache_flush.o)
                              ../niosII_simple_socket_server_1_bsp/\libucosii_bsp.a(altera_avalon_cfi_flash.o) (alt_dcache_flush)
../niosII_simple_socket_server_1_bsp/\libucosii_bsp.a(alt_dcache_flush_all.o)
                              ../niosII_simple_socket_server_1_bsp/\libucosii_bsp.a(alt_load.o) (alt_dcache_flush_all)
../niosII_simple_socket_server_1_bsp/\libucosii_bsp.a(alt_dev.o)
                              ../niosII_simple_socket_server_1_bsp/\libucosii_bsp.a(alt_sys_init.o) (alt_dev_list)
../niosII_simple_socket_server_1_bsp/\libucosii_bsp.a(alt_dev_llist_insert.o)
                              ../niosII_simple_socket_server_1_bsp/\libucosii_bsp.a(alt_sys_init.o) (alt_dev_llist_insert)
../niosII_simple_socket_server_1_bsp/\libucosii_bsp.a(alt_do_ctors.o)
                              ../niosII_simple_socket_server_1_bsp/\libucosii_bsp.a(alt_main.o) (_do_ctors)
../niosII_simple_socket_server_1_bsp/\libucosii_bsp.a(alt_do_dtors.o)
                              ../niosII_simple_socket_server_1_bsp/\libucosii_bsp.a(alt_main.o) (_do_dtors)
../niosII_simple_socket_server_1_bsp/\libucosii_bsp.a(alt_errno.o)
                              ../niosII_simple_socket_server_1_bsp/\libucosii_bsp.a(alt_fstat.o) (alt_errno)
../niosII_simple_socket_server_1_bsp/\libucosii_bsp.a(alt_find_dev.o)
                              ../niosII_simple_socket_server_1_bsp/\libucosii_bsp.a(alt_flash_dev.o) (alt_find_dev)
../niosII_simple_socket_server_1_bsp/\libucosii_bsp.a(alt_icache_flush_all.o)
                              ../niosII_simple_socket_server_1_bsp/\libucosii_bsp.a(alt_load.o) (alt_icache_flush_all)
../niosII_simple_socket_server_1_bsp/\libucosii_bsp.a(alt_iic.o)
                              ../niosII_simple_socket_server_1_bsp/\libucosii_bsp.a(altera_avalon_jtag_uart_init.o) (alt_ic_isr_register)
../niosII_simple_socket_server_1_bsp/\libucosii_bsp.a(alt_iic_isr_register.o)
                              ../niosII_simple_socket_server_1_bsp/\libucosii_bsp.a(alt_iic.o) (alt_iic_isr_register)
../niosII_simple_socket_server_1_bsp/\libucosii_bsp.a(alt_io_redirect.o)
                              ../niosII_simple_socket_server_1_bsp/\libucosii_bsp.a(alt_main.o) (alt_io_redirect)
../niosII_simple_socket_server_1_bsp/\libucosii_bsp.a(alt_irq_entry.o)
                              ../niosII_simple_socket_server_1_bsp/\libucosii_bsp.a(alt_iic_isr_register.o) (alt_irq_entry)
../niosII_simple_socket_server_1_bsp/\libucosii_bsp.a(alt_irq_handler.o)
                              ../niosII_simple_socket_server_1_bsp/\libucosii_bsp.a(alt_iic_isr_register.o) (alt_irq_handler)
../niosII_simple_socket_server_1_bsp/\libucosii_bsp.a(alt_irq_vars.o)
                              ../niosII_simple_socket_server_1_bsp/\libucosii_bsp.a(alt_iic.o) (alt_irq_active)
../niosII_simple_socket_server_1_bsp/\libucosii_bsp.a(alt_open.o)
                              ../niosII_simple_socket_server_1_bsp/\libucosii_bsp.a(alt_io_redirect.o) (open)
../niosII_simple_socket_server_1_bsp/\libucosii_bsp.a(alt_read.o)
                              ../niosII_simple_socket_server_1_bsp/\libucosii_bsp.a(alt_iniche_read.o) (alt_read)
../niosII_simple_socket_server_1_bsp/\libucosii_bsp.a(alt_release_fd.o)
                              ../niosII_simple_socket_server_1_bsp/\libucosii_bsp.a(alt_close.o) (alt_release_fd)
../niosII_simple_socket_server_1_bsp/\libucosii_bsp.a(alt_remap_cached.o)
                              ../niosII_simple_socket_server_1_bsp/\libucosii_bsp.a(ins_tse_mac.o) (alt_remap_cached)
../niosII_simple_socket_server_1_bsp/\libucosii_bsp.a(alt_remap_uncached.o)
                              ../niosII_simple_socket_server_1_bsp/\libucosii_bsp.a(altera_avalon_sgdma.o) (alt_remap_uncached)
../niosII_simple_socket_server_1_bsp/\libucosii_bsp.a(alt_tick.o)
                              ../niosII_simple_socket_server_1_bsp/\libucosii_bsp.a(alt_usleep.o) (_alt_tick_rate)
../niosII_simple_socket_server_1_bsp/\libucosii_bsp.a(alt_uncached_malloc.o)
                              ../niosII_simple_socket_server_1_bsp/\libucosii_bsp.a(ins_tse_mac.o) (alt_uncached_malloc)
../niosII_simple_socket_server_1_bsp/\libucosii_bsp.a(alt_write.o)
                              ../niosII_simple_socket_server_1_bsp/\libucosii_bsp.a(alt_iniche_write.o) (alt_write)
../niosII_simple_socket_server_1_bsp/\libucosii_bsp.a(altera_nios2_irq.o)
                              ../niosII_simple_socket_server_1_bsp/\libucosii_bsp.a(alt_sys_init.o) (altera_nios2_irq_init)
../niosII_simple_socket_server_1_bsp/\libucosii_bsp.a(os_cpu_a.o)
                              ../niosII_simple_socket_server_1_bsp/\libucosii_bsp.a(os_core.o) (OSIntCtxSw)
../niosII_simple_socket_server_1_bsp/\libucosii_bsp.a(os_cpu_c.o)
                              ../niosII_simple_socket_server_1_bsp/\libucosii_bsp.a(os_task.o) (OSTaskStkInit)
../niosII_simple_socket_server_1_bsp/\libucosii_bsp.a(altera_avalon_cfi_flash_amd.o)
                              ../niosII_simple_socket_server_1_bsp/\libucosii_bsp.a(altera_avalon_cfi_flash_table.o) (alt_program_amd)
../niosII_simple_socket_server_1_bsp/\libucosii_bsp.a(altera_avalon_cfi_flash_intel.o)
                              ../niosII_simple_socket_server_1_bsp/\libucosii_bsp.a(altera_avalon_cfi_flash_table.o) (alt_program_intel)
../niosII_simple_socket_server_1_bsp/\libucosii_bsp.a(allports.o)
                              ../niosII_simple_socket_server_1_bsp/\libucosii_bsp.a(netmain.o) (netmain_init)
../niosII_simple_socket_server_1_bsp/\libucosii_bsp.a(timeouts.o)
                              ../niosII_simple_socket_server_1_bsp/\libucosii_bsp.a(netmain.o) (inet_timer)
../niosII_simple_socket_server_1_bsp/\libucosii_bsp.a(tk_misc.o)
                              ../niosII_simple_socket_server_1_bsp/\libucosii_bsp.a(netmain.o) (create_apptasks)
../niosII_simple_socket_server_1_bsp/\libucosii_bsp.a(alt_iniche_fcntl.o)
                              ../niosII_simple_socket_server_1_bsp/\libucosii_bsp.a(brdutils.o) (fcntl)
../niosII_simple_socket_server_1_bsp/\libucosii_bsp.a(et_arp.o)
                              ../niosII_simple_socket_server_1_bsp/\libucosii_bsp.a(ipstart.o) (etainit)
../niosII_simple_socket_server_1_bsp/\libucosii_bsp.a(iface.o)
                              ../niosII_simple_socket_server_1_bsp/\libucosii_bsp.a(ipnet.o) (netlist)
../niosII_simple_socket_server_1_bsp/\libucosii_bsp.a(ip.o)
                              ../niosII_simple_socket_server_1_bsp/\libucosii_bsp.a(ipstart.o) (ip_init)
../niosII_simple_socket_server_1_bsp/\libucosii_bsp.a(ip_reasm.o)
                              ../niosII_simple_socket_server_1_bsp/\libucosii_bsp.a(timeouts.o) (ire_cticks)
../niosII_simple_socket_server_1_bsp/\libucosii_bsp.a(ipdemux.o)
                              ../niosII_simple_socket_server_1_bsp/\libucosii_bsp.a(ipnet.o) (ip_rcv)
../niosII_simple_socket_server_1_bsp/\libucosii_bsp.a(ipmc.o)
                              ../niosII_simple_socket_server_1_bsp/\libucosii_bsp.a(ipstart.o) (in_addmulti)
../niosII_simple_socket_server_1_bsp/\libucosii_bsp.a(ipport.o)
                              ../niosII_simple_socket_server_1_bsp/\libucosii_bsp.a(targnios.o) (port_prep)
../niosII_simple_socket_server_1_bsp/\libucosii_bsp.a(ipraw.o)
                              ../niosII_simple_socket_server_1_bsp/\libucosii_bsp.a(rawsock.o) (ipraw_eps)
../niosII_simple_socket_server_1_bsp/\libucosii_bsp.a(iproute.o)
                              ../niosII_simple_socket_server_1_bsp/\libucosii_bsp.a(ip.o) (cachedRoute)
../niosII_simple_socket_server_1_bsp/\libucosii_bsp.a(udp.o)
                              ../niosII_simple_socket_server_1_bsp/\libucosii_bsp.a(ipdemux.o) (udpdemux)
../niosII_simple_socket_server_1_bsp/\libucosii_bsp.a(igmp.o)
                              ../niosII_simple_socket_server_1_bsp/\libucosii_bsp.a(igmp_cmn.o) (igmpv1_input)
../niosII_simple_socket_server_1_bsp/\libucosii_bsp.a(igmp2.o)
                              ../niosII_simple_socket_server_1_bsp/\libucosii_bsp.a(igmp_cmn.o) (igmpv2_input)
../niosII_simple_socket_server_1_bsp/\libucosii_bsp.a(ipopt.o)
                              ../niosII_simple_socket_server_1_bsp/\libucosii_bsp.a(socket.o) (ip_setmoptions)
../niosII_simple_socket_server_1_bsp/\libucosii_bsp.a(u_mctest.o)
                              ../niosII_simple_socket_server_1_bsp/\libucosii_bsp.a(allports.o) (u_mctest_init)
../niosII_simple_socket_server_1_bsp/\libucosii_bsp.a(memdev.o)
                              ../niosII_simple_socket_server_1_bsp/\libucosii_bsp.a(allports.o) (init_memdev)
../niosII_simple_socket_server_1_bsp/\libucosii_bsp.a(parseip.o)
                              ../niosII_simple_socket_server_1_bsp/\libucosii_bsp.a(u_mctest.o) (inet_addr)
../niosII_simple_socket_server_1_bsp/\libucosii_bsp.a(tcpcksum.o)
                              ../niosII_simple_socket_server_1_bsp/\libucosii_bsp.a(nptcp.o) (tcp_cksum)
../niosII_simple_socket_server_1_bsp/\libucosii_bsp.a(udp_open.o)
                              ../niosII_simple_socket_server_1_bsp/\libucosii_bsp.a(nptcp.o) (firstudp)
../niosII_simple_socket_server_1_bsp/\libucosii_bsp.a(in_pcb.o)
                              ../niosII_simple_socket_server_1_bsp/\libucosii_bsp.a(tcp_usr.o) (in_pcballoc)
../niosII_simple_socket_server_1_bsp/\libucosii_bsp.a(vfsfiles.o)
                              ../niosII_simple_socket_server_1_bsp/\libucosii_bsp.a(memdev.o) (vfsystems)
../niosII_simple_socket_server_1_bsp/\libucosii_bsp.a(vfsport.o)
                              ../niosII_simple_socket_server_1_bsp/\libucosii_bsp.a(allports.o) (prep_vfs)
../niosII_simple_socket_server_1_bsp/\libucosii_bsp.a(alt_exception_entry.o)
                              ../niosII_simple_socket_server_1_bsp/\libucosii_bsp.a(alt_irq_entry.o) (alt_exception)
../niosII_simple_socket_server_1_bsp/\libucosii_bsp.a(alt_fcntl.o)
                              ../niosII_simple_socket_server_1_bsp/\libucosii_bsp.a(alt_iniche_fcntl.o) (alt_fcntl)
../niosII_simple_socket_server_1_bsp/\libucosii_bsp.a(alt_find_file.o)
                              ../niosII_simple_socket_server_1_bsp/\libucosii_bsp.a(alt_open.o) (alt_find_file)
../niosII_simple_socket_server_1_bsp/\libucosii_bsp.a(alt_get_fd.o)
                              ../niosII_simple_socket_server_1_bsp/\libucosii_bsp.a(alt_open.o) (alt_get_fd)
../niosII_simple_socket_server_1_bsp/\libucosii_bsp.a(alt_icache_flush.o)
                              ../niosII_simple_socket_server_1_bsp/\libucosii_bsp.a(alt_icache_flush_all.o) (alt_icache_flush)
../niosII_simple_socket_server_1_bsp/\libucosii_bsp.a(icmp.o)
                              ../niosII_simple_socket_server_1_bsp/\libucosii_bsp.a(ipdemux.o) (icmprcv)
c:/altera/12.0/nios2eds/bin/gnu/h-i686-mingw32/bin/../lib/gcc/nios2-elf/4.1.2/../../../../nios2-elf/lib\libc.a(lib_a-atexit.o)
                              ../niosII_simple_socket_server_1_bsp/\libucosii_bsp.a(alt_main.o) (atexit)
c:/altera/12.0/nios2eds/bin/gnu/h-i686-mingw32/bin/../lib/gcc/nios2-elf/4.1.2/../../../../nios2-elf/lib\libc.a(lib_a-atoi.o)
                              ../niosII_simple_socket_server_1_bsp/\libucosii_bsp.a(parseip.o) (atoi)
c:/altera/12.0/nios2eds/bin/gnu/h-i686-mingw32/bin/../lib/gcc/nios2-elf/4.1.2/../../../../nios2-elf/lib\libc.a(lib_a-calloc.o)
                              ../niosII_simple_socket_server_1_bsp/\libucosii_bsp.a(targnios.o) (calloc)
c:/altera/12.0/nios2eds/bin/gnu/h-i686-mingw32/bin/../lib/gcc/nios2-elf/4.1.2/../../../../nios2-elf/lib\libc.a(lib_a-exit.o)
                              ../niosII_simple_socket_server_1_bsp/\libucosii_bsp.a(alt_main.o) (exit)
c:/altera/12.0/nios2eds/bin/gnu/h-i686-mingw32/bin/../lib/gcc/nios2-elf/4.1.2/../../../../nios2-elf/lib\libc.a(lib_a-getc.o)
                              ../niosII_simple_socket_server_1_bsp/\libucosii_bsp.a(brdutils.o) (getc)
c:/altera/12.0/nios2eds/bin/gnu/h-i686-mingw32/bin/../lib/gcc/nios2-elf/4.1.2/../../../../nios2-elf/lib\libc.a(lib_a-memcmp.o)
                              ../niosII_simple_socket_server_1_bsp/\libucosii_bsp.a(altera_avalon_cfi_flash.o) (memcmp)
c:/altera/12.0/nios2eds/bin/gnu/h-i686-mingw32/bin/../lib/gcc/nios2-elf/4.1.2/../../../../nios2-elf/lib\libc.a(lib_a-rget.o)
                              c:/altera/12.0/nios2eds/bin/gnu/h-i686-mingw32/bin/../lib/gcc/nios2-elf/4.1.2/../../../../nios2-elf/lib\libc.a(lib_a-getc.o) (__srget_r)
c:/altera/12.0/nios2eds/bin/gnu/h-i686-mingw32/bin/../lib/gcc/nios2-elf/4.1.2/../../../../nios2-elf/lib\libc.a(lib_a-strcpy.o)
                              ../niosII_simple_socket_server_1_bsp/\libucosii_bsp.a(altera_avalon_tse.o) (strcpy)
c:/altera/12.0/nios2eds/bin/gnu/h-i686-mingw32/bin/../lib/gcc/nios2-elf/4.1.2/../../../../nios2-elf/lib\libc.a(lib_a-strncmp.o)
                              ../niosII_simple_socket_server_1_bsp/\libucosii_bsp.a(vfsfiles.o) (strncmp)
c:/altera/12.0/nios2eds/bin/gnu/h-i686-mingw32/bin/../lib/gcc/nios2-elf/4.1.2/../../../../nios2-elf/lib\libc.a(lib_a-strtol.o)
                              c:/altera/12.0/nios2eds/bin/gnu/h-i686-mingw32/bin/../lib/gcc/nios2-elf/4.1.2/../../../../nios2-elf/lib\libc.a(lib_a-atoi.o) (_strtol_r)
c:/altera/12.0/nios2eds/bin/gnu/h-i686-mingw32/bin/../lib/gcc/nios2-elf/4.1.2/../../../../nios2-elf/lib\libc.a(lib_a-vprintf.o)
                              ../niosII_simple_socket_server_1_bsp/\libucosii_bsp.a(in_utils.o) (vprintf)
c:/altera/12.0/nios2eds/bin/gnu/h-i686-mingw32/bin/../lib/gcc/nios2-elf/4.1.2/../../../../nios2-elf/lib\libc.a(lib_a-vsprintf.o)
                              ../niosII_simple_socket_server_1_bsp/\libucosii_bsp.a(in_utils.o) (vsprintf)
c:/altera/12.0/nios2eds/bin/gnu/h-i686-mingw32/bin/../lib/gcc/nios2-elf/4.1.2/../../../../nios2-elf/lib\libc.a(lib_a-__atexit.o)
                              c:/altera/12.0/nios2eds/bin/gnu/h-i686-mingw32/bin/../lib/gcc/nios2-elf/4.1.2/../../../../nios2-elf/lib\libc.a(lib_a-atexit.o) (__register_exitproc)
c:/altera/12.0/nios2eds/bin/gnu/h-i686-mingw32/bin/../lib/gcc/nios2-elf/4.1.2/../../../../nios2-elf/lib\libc.a(lib_a-__call_atexit.o)
                              c:/altera/12.0/nios2eds/bin/gnu/h-i686-mingw32/bin/../lib/gcc/nios2-elf/4.1.2/../../../../nios2-elf/lib\libc.a(lib_a-exit.o) (__call_exitprocs)
c:/altera/12.0/nios2eds/bin/gnu/h-i686-mingw32/bin/../lib/gcc/nios2-elf/4.1.2/../../../../nios2-elf/lib\libc.a(lib_a-refill.o)
                              c:/altera/12.0/nios2eds/bin/gnu/h-i686-mingw32/bin/../lib/gcc/nios2-elf/4.1.2/../../../../nios2-elf/lib\libc.a(lib_a-rget.o) (__srefill_r)
../niosII_simple_socket_server_1_bsp/\libucosii_bsp.a(alt_exit.o)
                              c:/altera/12.0/nios2eds/bin/gnu/h-i686-mingw32/bin/../lib/gcc/nios2-elf/4.1.2/../../../../nios2-elf/lib\libc.a(lib_a-exit.o) (_exit)

Allocating common symbols
Common symbol       size              file

soq                 0x14              ../niosII_simple_socket_server_1_bsp/\libucosii_bsp.a(nptcp.o)
alt_irq             0x100             ../niosII_simple_socket_server_1_bsp/\libucosii_bsp.a(alt_irq_handler.o)
tcp_optionbuf       0x4               ../niosII_simple_socket_server_1_bsp/\libucosii_bsp.a(tcp_out.o)
last_flash_sector_offset
                    0x4               obj/SSS_DE2_115.o
rt_mib              0x4               ../niosII_simple_socket_server_1_bsp/\libucosii_bsp.a(ip.o)
so_evtmap_create    0x4               ../niosII_simple_socket_server_1_bsp/\libucosii_bsp.a(ipport.o)
SSSLEDCommandQ      0x4               obj/niosII_simple_socket_server.o
OSLockNesting       0x1               ../niosII_simple_socket_server_1_bsp/\libucosii_bsp.a(os_core.o)
tcb                 0x2c              ../niosII_simple_socket_server_1_bsp/\libucosii_bsp.a(tcp_subr.o)
OSRunning           0x1               ../niosII_simple_socket_server_1_bsp/\libucosii_bsp.a(os_core.o)
tcpstat             0xe0              ../niosII_simple_socket_server_1_bsp/\libucosii_bsp.a(tcp_subr.o)
system_dhcp_hostname
                    0x4               obj/iniche_init.o
OSIdleCtr           0x4               ../niosII_simple_socket_server_1_bsp/\libucosii_bsp.a(os_core.o)
udp_mib             0x10              ../niosII_simple_socket_server_1_bsp/\libucosii_bsp.a(udp.o)
to_netmain          0x1               ../niosII_simple_socket_server_1_bsp/\libucosii_bsp.a(netmain.o)
to_sssphytask       0x1               obj/iniche_init.o
OSPrioHighRdy       0x1               ../niosII_simple_socket_server_1_bsp/\libucosii_bsp.a(os_core.o)
errno               0x4               c:/altera/12.0/nios2eds/bin/gnu/h-i686-mingw32/bin/../lib/gcc/nios2-elf/4.1.2/../../../../nios2-elf/lib\libc.a(lib_a-int_errno.o)
lilfreeq            0x14              ../niosII_simple_socket_server_1_bsp/\libucosii_bsp.a(pktalloc.o)
icmp_mib            0x68              ../niosII_simple_socket_server_1_bsp/\libucosii_bsp.a(icmp.o)
pmac_groups         0x10              ../niosII_simple_socket_server_1_bsp/\libucosii_bsp.a(altera_avalon_tse.o)
resid_semaphore     0x40              ../niosII_simple_socket_server_1_bsp/\libucosii_bsp.a(targnios.o)
alt_heapsem         0x4               ../niosII_simple_socket_server_1_bsp/\libucosii_bsp.a(alt_malloc_lock.o)
OSFlagTbl           0x370             ../niosII_simple_socket_server_1_bsp/\libucosii_bsp.a(os_core.o)
mbstat              0x8               ../niosII_simple_socket_server_1_bsp/\libucosii_bsp.a(nptcp.o)
netq_intmask        0x4               ../niosII_simple_socket_server_1_bsp/\libucosii_bsp.a(osportco.o)
select_wait         0x2               ../niosII_simple_socket_server_1_bsp/\libucosii_bsp.a(nptcp.o)
SSSLEDFreqMailbox   0x4               obj/niosII_simple_socket_server.o
SSSMonitorPhyTaskStk
                    0x20000           obj/iniche_init.o
tse_iniche_dev_driver_data
                    0x30              ../niosII_simple_socket_server_1_bsp/\libucosii_bsp.a(ins_tse_mac.o)
to_ssspenetask      0x1               obj/iniche_init.o
tcpmib              0x3c              ../niosII_simple_socket_server_1_bsp/\libucosii_bsp.a(nptcp.o)
OSPrioCur           0x1               ../niosII_simple_socket_server_1_bsp/\libucosii_bsp.a(os_core.o)
tse                 0x130             ../niosII_simple_socket_server_1_bsp/\libucosii_bsp.a(ins_tse_mac.o)
mheap_sem_ptr       0x4               ../niosII_simple_socket_server_1_bsp/\libucosii_bsp.a(targnios.o)
netlist             0x14              ../niosII_simple_socket_server_1_bsp/\libucosii_bsp.a(iface.o)
mbufq               0x14              ../niosII_simple_socket_server_1_bsp/\libucosii_bsp.a(nptcp.o)
OSTCBList           0x4               ../niosII_simple_socket_server_1_bsp/\libucosii_bsp.a(os_core.o)
alt_fd_list_lock    0x4               ../niosII_simple_socket_server_1_bsp/\libucosii_bsp.a(alt_dev.o)
OSMemTbl            0xc30             ../niosII_simple_socket_server_1_bsp/\libucosii_bsp.a(os_core.o)
OSTickStepState     0x1               ../niosII_simple_socket_server_1_bsp/\libucosii_bsp.a(os_core.o)
OSTaskStatStk       0x800             ../niosII_simple_socket_server_1_bsp/\libucosii_bsp.a(os_core.o)
OSCtxSwCtr          0x4               ../niosII_simple_socket_server_1_bsp/\libucosii_bsp.a(os_core.o)
igmpstats           0x64              ../niosII_simple_socket_server_1_bsp/\libucosii_bsp.a(igmp_cmn.o)
ire_stats           0x18              ../niosII_simple_socket_server_1_bsp/\libucosii_bsp.a(ip_reasm.o)
old_mode            0x4               ../niosII_simple_socket_server_1_bsp/\libucosii_bsp.a(osportco.o)
vfs_dir_stale       0x4               ../niosII_simple_socket_server_1_bsp/\libucosii_bsp.a(vfsfiles.o)
pphy_profiles       0x10              ../niosII_simple_socket_server_1_bsp/\libucosii_bsp.a(altera_avalon_tse.o)
cticks_factor       0x4               ../niosII_simple_socket_server_1_bsp/\libucosii_bsp.a(brdutils.o)
OSIdleCtrMax        0x4               ../niosII_simple_socket_server_1_bsp/\libucosii_bsp.a(os_core.o)
memestats           0x10              ../niosII_simple_socket_server_1_bsp/\libucosii_bsp.a(pktalloc.o)
intimers            0x64              ../niosII_simple_socket_server_1_bsp/\libucosii_bsp.a(timeouts.o)
OSTCBFreeList       0x4               ../niosII_simple_socket_server_1_bsp/\libucosii_bsp.a(os_core.o)
global_TCPwakeup_setIndx
                    0x4               ../niosII_simple_socket_server_1_bsp/\libucosii_bsp.a(osportco.o)
SSSInitialTaskStk   0x20000           obj/iniche_init.o
rcvdq               0x14              ../niosII_simple_socket_server_1_bsp/\libucosii_bsp.a(ipnet.o)
global_tcb_ext      0xfc              ../niosII_simple_socket_server_1_bsp/\libucosii_bsp.a(osportco.o)
netstatic           0x300             ../niosII_simple_socket_server_1_bsp/\libucosii_bsp.a(ipstart.o)
tcp_maxidle         0x4               ../niosII_simple_socket_server_1_bsp/\libucosii_bsp.a(tcp_timr.o)
OSCPUUsage          0x1               ../niosII_simple_socket_server_1_bsp/\libucosii_bsp.a(os_core.o)
nets                0x10              ../niosII_simple_socket_server_1_bsp/\libucosii_bsp.a(ipstart.o)
pktlog              0xf0              ../niosII_simple_socket_server_1_bsp/\libucosii_bsp.a(pktalloc.o)
LEDBlinkTaskStk     0x20000           obj/niosII_simple_socket_server.o
OSTaskCtr           0x1               ../niosII_simple_socket_server_1_bsp/\libucosii_bsp.a(os_core.o)
OSMemFreeList       0x4               ../niosII_simple_socket_server_1_bsp/\libucosii_bsp.a(os_core.o)
vfs_open_files      0x4               ../niosII_simple_socket_server_1_bsp/\libucosii_bsp.a(vfsfiles.o)
cticks              0x4               ../niosII_simple_socket_server_1_bsp/\libucosii_bsp.a(osportco.o)
to_nettick          0x1               ../niosII_simple_socket_server_1_bsp/\libucosii_bsp.a(netmain.o)
last_flash_sector   0x4               obj/SSS_DE2_115.o
OSQTbl              0x1e0             ../niosII_simple_socket_server_1_bsp/\libucosii_bsp.a(os_core.o)
OSTCBHighRdy        0x4               ../niosII_simple_socket_server_1_bsp/\libucosii_bsp.a(os_core.o)
OSQFreeList         0x4               ../niosII_simple_socket_server_1_bsp/\libucosii_bsp.a(os_core.o)
OSRdyGrp            0x1               ../niosII_simple_socket_server_1_bsp/\libucosii_bsp.a(os_core.o)
ip_mib              0x50              ../niosII_simple_socket_server_1_bsp/\libucosii_bsp.a(ip.o)
SSSLEDCommandQTbl   0x78              obj/niosII_simple_socket_server.o
OS_TPS              0x4               ../niosII_simple_socket_server_1_bsp/\libucosii_bsp.a(brdutils.o)
_atexit0            0x190             c:/altera/12.0/nios2eds/bin/gnu/h-i686-mingw32/bin/../lib/gcc/nios2-elf/4.1.2/../../../../nios2-elf/lib\libc.a(lib_a-atexit.o)
OSRdyTbl            0x3               ../niosII_simple_socket_server_1_bsp/\libucosii_bsp.a(os_core.o)
igmp_all_hosts_group
                    0x4               ../niosII_simple_socket_server_1_bsp/\libucosii_bsp.a(igmp_cmn.o)
eth_prt_buf         0x12              ../niosII_simple_socket_server_1_bsp/\libucosii_bsp.a(in_utils.o)
app_semaphore       0x18              ../niosII_simple_socket_server_1_bsp/\libucosii_bsp.a(targnios.o)
LEDManagementTaskStk
                    0x20000           obj/niosII_simple_socket_server.o
tse_mac_if          0xe0              ../niosII_simple_socket_server_1_bsp/\libucosii_bsp.a(alt_sys_init.o)
rcvdq_sem_ptr       0x4               ../niosII_simple_socket_server_1_bsp/\libucosii_bsp.a(targnios.o)
OSEventFreeList     0x4               ../niosII_simple_socket_server_1_bsp/\libucosii_bsp.a(os_core.o)
mfreeq              0x14              ../niosII_simple_socket_server_1_bsp/\libucosii_bsp.a(nptcp.o)
to_ssstask          0x1               obj/iniche_init.o
global_TCPwakeup_set
                    0xf0              ../niosII_simple_socket_server_1_bsp/\libucosii_bsp.a(osportco.o)
bigfreeq            0x14              ../niosII_simple_socket_server_1_bsp/\libucosii_bsp.a(pktalloc.o)
so_evtmap_delete    0x4               ../niosII_simple_socket_server_1_bsp/\libucosii_bsp.a(ipport.o)
tcp_saveti          0x28              ../niosII_simple_socket_server_1_bsp/\libucosii_bsp.a(tcp_in.o)
OSIntNesting        0x1               ../niosII_simple_socket_server_1_bsp/\libucosii_bsp.a(os_core.o)
so_evtmap           0x1               ../niosII_simple_socket_server_1_bsp/\libucosii_bsp.a(ipport.o)
OSTCBCur            0x4               ../niosII_simple_socket_server_1_bsp/\libucosii_bsp.a(os_core.o)
arp_table           0x100             ../niosII_simple_socket_server_1_bsp/\libucosii_bsp.a(et_arp.o)
tcp_iss             0x4               ../niosII_simple_socket_server_1_bsp/\libucosii_bsp.a(tcp_timr.o)
vfs_total_rw_space  0x4               ../niosII_simple_socket_server_1_bsp/\libucosii_bsp.a(vfsfiles.o)
OSTime              0x4               ../niosII_simple_socket_server_1_bsp/\libucosii_bsp.a(os_core.o)
OSTaskIdleStk       0x800             ../niosII_simple_socket_server_1_bsp/\libucosii_bsp.a(os_core.o)
bus                 0x4               obj/alt_eeprom/alt_2_wire.o
OSEventTbl          0xb40             ../niosII_simple_socket_server_1_bsp/\libucosii_bsp.a(os_core.o)
vfs_total_dyna_files
                    0x4               ../niosII_simple_socket_server_1_bsp/\libucosii_bsp.a(vfsfiles.o)
OSTCBTbl            0x510             ../niosII_simple_socket_server_1_bsp/\libucosii_bsp.a(os_core.o)
ipreturn            0x12              ../niosII_simple_socket_server_1_bsp/\libucosii_bsp.a(in_utils.o)
OSFlagFreeList      0x4               ../niosII_simple_socket_server_1_bsp/\libucosii_bsp.a(os_core.o)
dropline            0x4               ../niosII_simple_socket_server_1_bsp/\libucosii_bsp.a(tcp_in.o)
OSStatRdy           0x1               ../niosII_simple_socket_server_1_bsp/\libucosii_bsp.a(os_core.o)
OSTCBPrioTbl        0x54              ../niosII_simple_socket_server_1_bsp/\libucosii_bsp.a(os_core.o)
igmp_all_rtrs_group
                    0x4               ../niosII_simple_socket_server_1_bsp/\libucosii_bsp.a(igmp_cmn.o)
alt_envsem          0x4               ../niosII_simple_socket_server_1_bsp/\libucosii_bsp.a(alt_env_lock.o)
OSIdleCtrRun        0x4               ../niosII_simple_socket_server_1_bsp/\libucosii_bsp.a(os_core.o)

Memory Configuration

Name             Origin             Length             Attributes
reset            0x00000000         0x00000020
sdram            0x00000020         0x07ffffe0
cfi_flash        0x0a800000         0x00800000
sram             0x0b200000         0x00200000
onchip_memory2   0x0b420000         0x00020000
descriptor_memory 0x0b440000         0x00001000
*default*        0x00000000         0xffffffff

Linker script and memory map

LOAD ../niosII_simple_socket_server_1_bsp//obj/HAL/src/crt0.o
LOAD obj/SSS_DE2_115.o
LOAD obj/alt_eeprom/alt_2_wire.o
LOAD obj/alt_eeprom/alt_eeprom.o
LOAD obj/alt_error_handler.o
LOAD obj/iniche_init.o
LOAD obj/led.o
LOAD obj/niosII_simple_socket_server.o
LOAD c:/altera/12.0/nios2eds/bin/gnu/h-i686-mingw32/bin/../lib/gcc/nios2-elf/4.1.2/../../../../nios2-elf/lib\libstdc++.a
LOAD c:/altera/12.0/nios2eds/bin/gnu/h-i686-mingw32/bin/../lib/gcc/nios2-elf/4.1.2/../../../../nios2-elf/lib\libm.a
LOAD c:/altera/12.0/nios2eds/bin/gnu/h-i686-mingw32/bin/../lib/gcc/nios2-elf/4.1.2\libgcc.a
START GROUP
LOAD c:/altera/12.0/nios2eds/bin/gnu/h-i686-mingw32/bin/../lib/gcc/nios2-elf/4.1.2/../../../../nios2-elf/lib\libc.a
LOAD c:/altera/12.0/nios2eds/bin/gnu/h-i686-mingw32/bin/../lib/gcc/nios2-elf/4.1.2\libgcc.a
LOAD ../niosII_simple_socket_server_1_bsp/\libucosii_bsp.a
END GROUP
LOAD c:/altera/12.0/nios2eds/bin/gnu/h-i686-mingw32/bin/../lib/gcc/nios2-elf/4.1.2\libgcc.a
                0x00000000                __alt_mem_sdram = 0x0
                0x0a800000                __alt_mem_cfi_flash = 0xa800000
                0x0b200000                __alt_mem_sram = 0xb200000
                0x0b420000                __alt_mem_onchip_memory2 = 0xb420000
                0x0b440000                __alt_mem_descriptor_memory = 0xb440000

.entry          0x00000000       0x20
 *(.entry)
 .entry         0x00000000       0x20 ../niosII_simple_socket_server_1_bsp//obj/HAL/src/crt0.o
                0x00000000                __reset

.exceptions     0x00000020      0x19c
                0x00000020                PROVIDE (__ram_exceptions_start, ABSOLUTE (.))
                0x00000020                . = ALIGN (0x20)
 *(.irq)
 *(.exceptions.entry.label)
 .exceptions.entry.label
                0x00000020        0x0 ../niosII_simple_socket_server_1_bsp/\libucosii_bsp.a(alt_irq_entry.o)
                0x00000020                alt_irq_entry
 .exceptions.entry.label
                0x00000020        0x0 ../niosII_simple_socket_server_1_bsp/\libucosii_bsp.a(alt_exception_entry.o)
                0x00000020                alt_exception
 *(.exceptions.entry.user)
 *(.exceptions.entry)
 .exceptions.entry
                0x00000020       0x54 ../niosII_simple_socket_server_1_bsp/\libucosii_bsp.a(alt_exception_entry.o)
 *(.exceptions.irqtest.user)
 *(.exceptions.irqtest)
 .exceptions.irqtest
                0x00000074       0x10 ../niosII_simple_socket_server_1_bsp/\libucosii_bsp.a(alt_irq_entry.o)
 *(.exceptions.irqhandler.user)
 *(.exceptions.irqhandler)
 .exceptions.irqhandler
                0x00000084        0x4 ../niosII_simple_socket_server_1_bsp/\libucosii_bsp.a(alt_irq_entry.o)
 *(.exceptions.irqreturn.user)
 *(.exceptions.irqreturn)
 .exceptions.irqreturn
                0x00000088        0x4 ../niosII_simple_socket_server_1_bsp/\libucosii_bsp.a(alt_irq_entry.o)
 *(.exceptions.notirq.label)
 .exceptions.notirq.label
                0x0000008c        0x0 ../niosII_simple_socket_server_1_bsp/\libucosii_bsp.a(alt_irq_entry.o)
 *(.exceptions.notirq.user)
 *(.exceptions.notirq)
 .exceptions.notirq
                0x0000008c        0x8 ../niosII_simple_socket_server_1_bsp/\libucosii_bsp.a(alt_exception_entry.o)
 *(.exceptions.soft.user)
 *(.exceptions.soft)
 *(.exceptions.unknown.user)
 *(.exceptions.unknown)
 .exceptions.unknown
                0x00000094        0x4 ../niosII_simple_socket_server_1_bsp/\libucosii_bsp.a(alt_exception_entry.o)
 *(.exceptions.exit.label)
 .exceptions.exit.label
                0x00000098        0x0 ../niosII_simple_socket_server_1_bsp/\libucosii_bsp.a(alt_irq_entry.o)
 .exceptions.exit.label
                0x00000098        0x0 ../niosII_simple_socket_server_1_bsp/\libucosii_bsp.a(alt_exception_entry.o)
 *(.exceptions.exit.user)
 *(.exceptions.exit)
 .exceptions.exit
                0x00000098       0x54 ../niosII_simple_socket_server_1_bsp/\libucosii_bsp.a(alt_exception_entry.o)
 *(.exceptions)
 .exceptions    0x000000ec       0xd0 ../niosII_simple_socket_server_1_bsp/\libucosii_bsp.a(alt_irq_handler.o)
                0x000000ec                alt_irq_handler
                0x000001bc                PROVIDE (__ram_exceptions_end, ABSOLUTE (.))
                0x00000020                PROVIDE (__flash_exceptions_start, LOADADDR (.exceptions))

.text           0x000001bc    0x4a608
                0x000001bc                PROVIDE (stext, ABSOLUTE (.))
 *(.interp)
 *(.hash)
 *(.dynsym)
 *(.dynstr)
 *(.gnu.version)
 *(.gnu.version_d)
 *(.gnu.version_r)
 *(.rel.init)
 *(.rela.init)
 *(.rel.text .rel.text.* .rel.gnu.linkonce.t.*)
 *(.rela.text .rela.text.* .rela.gnu.linkonce.t.*)
 *(.rel.fini)
 *(.rela.fini)
 *(.rel.rodata .rel.rodata.* .rel.gnu.linkonce.r.*)
 *(.rela.rodata .rela.rodata.* .rela.gnu.linkonce.r.*)
 *(.rel.data .rel.data.* .rel.gnu.linkonce.d.*)
 *(.rela.data .rela.data.* .rela.gnu.linkonce.d.*)
 *(.rel.tdata .rel.tdata.* .rel.gnu.linkonce.td.*)
 *(.rela.tdata .rela.tdata.* .rela.gnu.linkonce.td.*)
 *(.rel.tbss .rel.tbss.* .rel.gnu.linkonce.tb.*)
 *(.rela.tbss .rela.tbss.* .rela.gnu.linkonce.tb.*)
 *(.rel.ctors)
 *(.rela.ctors)
 *(.rel.dtors)
 *(.rela.dtors)
 *(.rel.got)
 *(.rela.got)
 *(.rel.sdata .rel.sdata.* .rel.gnu.linkonce.s.*)
 *(.rela.sdata .rela.sdata.* .rela.gnu.linkonce.s.*)
 *(.rel.sbss .rel.sbss.* .rel.gnu.linkonce.sb.*)
 *(.rela.sbss .rela.sbss.* .rela.gnu.linkonce.sb.*)
 *(.rel.sdata2 .rel.sdata2.* .rel.gnu.linkonce.s2.*)
 *(.rela.sdata2 .rela.sdata2.* .rela.gnu.linkonce.s2.*)
 *(.rel.sbss2 .rel.sbss2.* .rel.gnu.linkonce.sb2.*)
 *(.rela.sbss2 .rela.sbss2.* .rela.gnu.linkonce.sb2.*)
 *(.rel.bss .rel.bss.* .rel.gnu.linkonce.b.*)
 *(.rela.bss .rela.bss.* .rela.gnu.linkonce.b.*)
 *(.rel.plt)
 *(.rela.plt)
 *(.rel.dyn)
 *(.init)
 *(.plt)
 *(.text .stub .text.* .gnu.linkonce.t.*)
 .text          0x000001bc       0x4c ../niosII_simple_socket_server_1_bsp//obj/HAL/src/crt0.o
                0x000001bc                _start
 .text          0x00000208      0x2ec obj/SSS_DE2_115.o
                0x00000208                get_DE2_115_mac_addr
                0x000003b0                FindLastFlashSectorOffset
 .text          0x000004f4      0x410 obj/alt_eeprom/alt_2_wire.o
                0x00000680                alt_2_wireStart
                0x000006b4                alt_2_wireStop
                0x000006e4                alt_2_wireSendByte
                0x00000788                alt_2_wireReadByte
                0x0000089c                alt_2_wireSetDelay
                0x000008c4                alt_2_wireInit
 .text          0x00000904      0x5b8 obj/alt_eeprom/alt_eeprom.o
                0x00000904                readRandom
                0x00000af0                writeByte
                0x00000cdc                hexdump_eeprom
                0x00000db8                dump
                0x00000e28                fill
 .text          0x00000ebc      0xba8 obj/alt_error_handler.o
                0x00000ebc                alt_uCOSIIErrorHandler
                0x000014e0                alt_NetworkErrorHandler
                0x00001778                alt_SSSErrorHandler
 .text          0x00001a64      0x888 obj/iniche_init.o
                0x00001a64                ws_ipset
                0x00001b68                get_board_mac_addr
                0x00001ca4                suspend_network_tasks
                0x00001d04                resume_network_tasks
                0x00001d64                get_mac_addr
                0x00001d9c                get_ip_addr
                0x00001f64                wait_on_phy
                0x000020f8                SSSMonitorPhyTask
                0x000021c8                SSSInitialTask
                0x00002270                main
 .text          0x000022ec      0x154 obj/led.o
                0x000022ec                LEDBlinkTask
                0x000023a4                LEDManagementTask
 .text          0x00002440     0x12f0 obj/niosII_simple_socket_server.o
                0x00002440                SSSCreateOSDataStructs
                0x000024bc                SSSCreateTasks
                0x00002580                SSS_reset_connection
                0x000025f0                SSS_send_menu
                0x00002758                SSS_handle_accept
                0x00002810                SSS_exec_command
                0x000029c0                SSS_handle_receive
                0x00002bac                SSSNiosIISimpleSocketServerTask
                0x00002d7c                SSSNiosIISimpleSocketServerPeneTask
 .text          0x00003730      0x14c c:/altera/12.0/nios2eds/bin/gnu/h-i686-mingw32/bin/../lib/gcc/nios2-elf/4.1.2\libgcc.a(lib2-divmod.o)
                0x000037ac                __divsi3
                0x0000380c                __modsi3
                0x0000386c                __udivsi3
                0x00003874                __umodsi3
 .text          0x0000387c        0x0 c:/altera/12.0/nios2eds/bin/gnu/h-i686-mingw32/bin/../lib/gcc/nios2-elf/4.1.2/../../../../nios2-elf/lib\libc.a(lib_a-ctype_.o)
 .text          0x0000387c       0x60 c:/altera/12.0/nios2eds/bin/gnu/h-i686-mingw32/bin/../lib/gcc/nios2-elf/4.1.2/../../../../nios2-elf/lib\libc.a(lib_a-fprintf.o)
                0x0000387c                fprintf
                0x000038a8                _fprintf_r
 .text          0x000038dc       0xdc c:/altera/12.0/nios2eds/bin/gnu/h-i686-mingw32/bin/../lib/gcc/nios2-elf/4.1.2/../../../../nios2-elf/lib\libc.a(lib_a-fwrite.o)
                0x000038dc                _fwrite_r
                0x00003978                fwrite
 .text          0x000039b8        0x0 c:/altera/12.0/nios2eds/bin/gnu/h-i686-mingw32/bin/../lib/gcc/nios2-elf/4.1.2/../../../../nios2-elf/lib\libc.a(lib_a-impure.o)
 .text          0x000039b8       0x28 c:/altera/12.0/nios2eds/bin/gnu/h-i686-mingw32/bin/../lib/gcc/nios2-elf/4.1.2/../../../../nios2-elf/lib\libc.a(lib_a-malloc.o)
                0x000039b8                free
                0x000039cc                malloc
 .text          0x000039e0      0x740 c:/altera/12.0/nios2eds/bin/gnu/h-i686-mingw32/bin/../lib/gcc/nios2-elf/4.1.2/../../../../nios2-elf/lib\libc.a(lib_a-mallocr.o)
                0x000039e0                _malloc_r
 .text          0x00004120       0xa0 c:/altera/12.0/nios2eds/bin/gnu/h-i686-mingw32/bin/../lib/gcc/nios2-elf/4.1.2/../../../../nios2-elf/lib\libc.a(lib_a-memcpy.o)
                0x00004120                memcpy
 .text          0x000041c0       0xe0 c:/altera/12.0/nios2eds/bin/gnu/h-i686-mingw32/bin/../lib/gcc/nios2-elf/4.1.2/../../../../nios2-elf/lib\libc.a(lib_a-memmove.o)
                0x000041c0                memmove
 .text          0x000042a0       0x98 c:/altera/12.0/nios2eds/bin/gnu/h-i686-mingw32/bin/../lib/gcc/nios2-elf/4.1.2/../../../../nios2-elf/lib\libc.a(lib_a-memset.o)
                0x000042a0                memset
 .text          0x00004338       0x80 c:/altera/12.0/nios2eds/bin/gnu/h-i686-mingw32/bin/../lib/gcc/nios2-elf/4.1.2/../../../../nios2-elf/lib\libc.a(lib_a-perror.o)
                0x00004338                _perror_r
                0x000043a4                perror
 .text          0x000043b8       0x78 c:/altera/12.0/nios2eds/bin/gnu/h-i686-mingw32/bin/../lib/gcc/nios2-elf/4.1.2/../../../../nios2-elf/lib\libc.a(lib_a-printf.o)
                0x000043b8                printf
                0x000043fc                _printf_r
 .text          0x00004430       0x24 c:/altera/12.0/nios2eds/bin/gnu/h-i686-mingw32/bin/../lib/gcc/nios2-elf/4.1.2/../../../../nios2-elf/lib\libc.a(lib_a-putchar.o)
                0x00004430                putchar
                0x0000444c                _putchar_r
 .text          0x00004454       0xb4 c:/altera/12.0/nios2eds/bin/gnu/h-i686-mingw32/bin/../lib/gcc/nios2-elf/4.1.2/../../../../nios2-elf/lib\libc.a(lib_a-puts.o)
                0x00004454                _puts_r
                0x000044f4                puts
 .text          0x00004508       0x70 c:/altera/12.0/nios2eds/bin/gnu/h-i686-mingw32/bin/../lib/gcc/nios2-elf/4.1.2/../../../../nios2-elf/lib\libc.a(lib_a-sbrkr.o)
                0x00004508                _sbrk_r
 .text          0x00004578       0xd4 c:/altera/12.0/nios2eds/bin/gnu/h-i686-mingw32/bin/../lib/gcc/nios2-elf/4.1.2/../../../../nios2-elf/lib\libc.a(lib_a-sprintf.o)
                0x00004578                sprintf
                0x000045ec                _sprintf_r
 .text          0x0000464c       0xe0 c:/altera/12.0/nios2eds/bin/gnu/h-i686-mingw32/bin/../lib/gcc/nios2-elf/4.1.2/../../../../nios2-elf/lib\libc.a(lib_a-strchr.o)
                0x0000464c                strchr
 .text          0x0000472c      0x674 c:/altera/12.0/nios2eds/bin/gnu/h-i686-mingw32/bin/../lib/gcc/nios2-elf/4.1.2/../../../../nios2-elf/lib\libc.a(lib_a-strerror.o)
                0x0000472c                strerror
 .text          0x00004da0       0x74 c:/altera/12.0/nios2eds/bin/gnu/h-i686-mingw32/bin/../lib/gcc/nios2-elf/4.1.2/../../../../nios2-elf/lib\libc.a(lib_a-strlen.o)
                0x00004da0                strlen
 .text          0x00004e14        0x8 c:/altera/12.0/nios2eds/bin/gnu/h-i686-mingw32/bin/../lib/gcc/nios2-elf/4.1.2/../../../../nios2-elf/lib\libc.a(lib_a-u_strerr.o)
                0x00004e14                _user_strerror
 .text          0x00004e1c     0x1f28 c:/altera/12.0/nios2eds/bin/gnu/h-i686-mingw32/bin/../lib/gcc/nios2-elf/4.1.2/../../../../nios2-elf/lib\libc.a(lib_a-vfprintf.o)
                0x00004e74                ___vfprintf_internal_r
                0x00006d20                __vfprintf_internal
 .text          0x00006d44      0x13c c:/altera/12.0/nios2eds/bin/gnu/h-i686-mingw32/bin/../lib/gcc/nios2-elf/4.1.2/../../../../nios2-elf/lib\libc.a(lib_a-wsetup.o)
                0x00006d44                __swsetup_r
 .text          0x00006e80     0x17cc c:/altera/12.0/nios2eds/bin/gnu/h-i686-mingw32/bin/../lib/gcc/nios2-elf/4.1.2/../../../../nios2-elf/lib\libc.a(lib_a-dtoa.o)
                0x00007098                _dtoa_r
 .text          0x0000864c      0x230 c:/altera/12.0/nios2eds/bin/gnu/h-i686-mingw32/bin/../lib/gcc/nios2-elf/4.1.2/../../../../nios2-elf/lib\libc.a(lib_a-fflush.o)
                0x0000864c                _fflush_r
                0x00008848                fflush
 .text          0x0000887c      0x2c0 c:/altera/12.0/nios2eds/bin/gnu/h-i686-mingw32/bin/../lib/gcc/nios2-elf/4.1.2/../../../../nios2-elf/lib\libc.a(lib_a-findfp.o)
                0x000088d4                __sfp_lock_acquire
                0x000088d8                __sfp_lock_release
                0x000088dc                __sinit_lock_acquire
                0x000088e0                __sinit_lock_release
                0x000088e4                __sinit
                0x00008998                __fp_unlock_all
                0x000089b0                __fp_lock_all
                0x000089c8                _cleanup_r
                0x000089d4                _cleanup
                0x000089e4                __sfmoreglue
                0x00008a4c                __sfp
 .text          0x00008b3c       0xbc c:/altera/12.0/nios2eds/bin/gnu/h-i686-mingw32/bin/../lib/gcc/nios2-elf/4.1.2/../../../../nios2-elf/lib\libc.a(lib_a-fputc.o)
                0x00008b3c                fputc
                0x00008ba0                _fputc_r
 .text          0x00008bf8       0x90 c:/altera/12.0/nios2eds/bin/gnu/h-i686-mingw32/bin/../lib/gcc/nios2-elf/4.1.2/../../../../nios2-elf/lib\libc.a(lib_a-fputs.o)
                0x00008bf8                _fputs_r
                0x00008c6c                fputs
 .text          0x00008c88      0x440 c:/altera/12.0/nios2eds/bin/gnu/h-i686-mingw32/bin/../lib/gcc/nios2-elf/4.1.2/../../../../nios2-elf/lib\libc.a(lib_a-freer.o)
                0x00008c88                _malloc_trim_r
                0x00008db4                _free_r
 .text          0x000090c8      0x49c c:/altera/12.0/nios2eds/bin/gnu/h-i686-mingw32/bin/../lib/gcc/nios2-elf/4.1.2/../../../../nios2-elf/lib\libc.a(lib_a-fvwrite.o)
                0x000090c8                __sfvwrite_r
 .text          0x00009564      0x180 c:/altera/12.0/nios2eds/bin/gnu/h-i686-mingw32/bin/../lib/gcc/nios2-elf/4.1.2/../../../../nios2-elf/lib\libc.a(lib_a-fwalk.o)
                0x00009564                _fwalk_reent
                0x0000962c                _fwalk
 .text          0x000096e4        0x0 c:/altera/12.0/nios2eds/bin/gnu/h-i686-mingw32/bin/../lib/gcc/nios2-elf/4.1.2/../../../../nios2-elf/lib\libc.a(lib_a-int_errno.o)
 .text          0x000096e4       0xc4 c:/altera/12.0/nios2eds/bin/gnu/h-i686-mingw32/bin/../lib/gcc/nios2-elf/4.1.2/../../../../nios2-elf/lib\libc.a(lib_a-locale.o)
                0x000096e4                __locale_charset
                0x000096ec                _localeconv_r
                0x000096f8                localeconv
                0x00009708                _setlocale_r
                0x0000978c                setlocale
 .text          0x000097a8      0x194 c:/altera/12.0/nios2eds/bin/gnu/h-i686-mingw32/bin/../lib/gcc/nios2-elf/4.1.2/../../../../nios2-elf/lib\libc.a(lib_a-makebuf.o)
                0x000097a8                __smakebuf_r
 .text          0x0000993c       0xe4 c:/altera/12.0/nios2eds/bin/gnu/h-i686-mingw32/bin/../lib/gcc/nios2-elf/4.1.2/../../../../nios2-elf/lib\libc.a(lib_a-memchr.o)
                0x0000993c                memchr
 .text          0x00009a20      0xff4 c:/altera/12.0/nios2eds/bin/gnu/h-i686-mingw32/bin/../lib/gcc/nios2-elf/4.1.2/../../../../nios2-elf/lib\libc.a(lib_a-mprec.o)
                0x00009a20                _Bfree
                0x00009a48                __hi0bits
                0x00009ab8                __lo0bits
                0x00009b7c                __mcmp
                0x00009bdc                __ulp
                0x00009c5c                __b2d
                0x00009d7c                __ratio
                0x00009e2c                _mprec_log10
                0x00009ec0                __copybits
                0x00009f18                __any_on
                0x00009fa0                _Balloc
                0x0000a05c                __d2b
                0x0000a1d8                __mdiff
                0x0000a364                __lshift
                0x0000a4b0                __multiply
                0x0000a698                __i2b
                0x0000a6d4                __multadd
                0x0000a7d4                __pow5mult
                0x0000a8f4                __s2b
 .text          0x0000aa14      0x1ec c:/altera/12.0/nios2eds/bin/gnu/h-i686-mingw32/bin/../lib/gcc/nios2-elf/4.1.2/../../../../nios2-elf/lib\libc.a(lib_a-putc.o)
                0x0000aa14                putc
                0x0000ab18                _putc_r
 .text          0x0000ac00      0x5f4 c:/altera/12.0/nios2eds/bin/gnu/h-i686-mingw32/bin/../lib/gcc/nios2-elf/4.1.2/../../../../nios2-elf/lib\libc.a(lib_a-reallocr.o)
                0x0000ac00                _realloc_r
 .text          0x0000b1f4       0x40 c:/altera/12.0/nios2eds/bin/gnu/h-i686-mingw32/bin/../lib/gcc/nios2-elf/4.1.2/../../../../nios2-elf/lib\libc.a(lib_a-s_isinfd.o)
                0x0000b1f4                __isinfd
 .text          0x0000b234       0x30 c:/altera/12.0/nios2eds/bin/gnu/h-i686-mingw32/bin/../lib/gcc/nios2-elf/4.1.2/../../../../nios2-elf/lib\libc.a(lib_a-s_isnand.o)
                0x0000b234                __isnand
 .text          0x0000b264      0x14c c:/altera/12.0/nios2eds/bin/gnu/h-i686-mingw32/bin/../lib/gcc/nios2-elf/4.1.2/../../../../nios2-elf/lib\libc.a(lib_a-stdio.o)
                0x0000b264                __sclose
                0x0000b26c                __sseek
                0x0000b2d4                __swrite
                0x0000b350                __sread
 .text          0x0000b3b0       0xbc c:/altera/12.0/nios2eds/bin/gnu/h-i686-mingw32/bin/../lib/gcc/nios2-elf/4.1.2/../../../../nios2-elf/lib\libc.a(lib_a-strcmp.o)
                0x0000b3b0                strcmp
 .text          0x0000b46c      0x14c c:/altera/12.0/nios2eds/bin/gnu/h-i686-mingw32/bin/../lib/gcc/nios2-elf/4.1.2/../../../../nios2-elf/lib\libc.a(lib_a-wbuf.o)
                0x0000b46c                __swbuf_r
                0x0000b59c                __swbuf
 .text          0x0000b5b8       0x78 c:/altera/12.0/nios2eds/bin/gnu/h-i686-mingw32/bin/../lib/gcc/nios2-elf/4.1.2/../../../../nios2-elf/lib\libc.a(lib_a-writer.o)
                0x0000b5b8                _write_r
 .text          0x0000b630       0xb4 c:/altera/12.0/nios2eds/bin/gnu/h-i686-mingw32/bin/../lib/gcc/nios2-elf/4.1.2/../../../../nios2-elf/lib\libc.a(lib_a-callocr.o)
                0x0000b630                _calloc_r
 .text          0x0000b6e4       0x70 c:/altera/12.0/nios2eds/bin/gnu/h-i686-mingw32/bin/../lib/gcc/nios2-elf/4.1.2/../../../../nios2-elf/lib\libc.a(lib_a-closer.o)
                0x0000b6e4                _close_r
 .text          0x0000b754      0x124 c:/altera/12.0/nios2eds/bin/gnu/h-i686-mingw32/bin/../lib/gcc/nios2-elf/4.1.2/../../../../nios2-elf/lib\libc.a(lib_a-fclose.o)
                0x0000b754                _fclose_r
                0x0000b864                fclose
 .text          0x0000b878       0x74 c:/altera/12.0/nios2eds/bin/gnu/h-i686-mingw32/bin/../lib/gcc/nios2-elf/4.1.2/../../../../nios2-elf/lib\libc.a(lib_a-fstatr.o)
                0x0000b878                _fstat_r
 .text          0x0000b8ec       0x70 c:/altera/12.0/nios2eds/bin/gnu/h-i686-mingw32/bin/../lib/gcc/nios2-elf/4.1.2/../../../../nios2-elf/lib\libc.a(lib_a-isattyr.o)
                0x0000b8ec                _isatty_r
 .text          0x0000b95c       0x78 c:/altera/12.0/nios2eds/bin/gnu/h-i686-mingw32/bin/../lib/gcc/nios2-elf/4.1.2/../../../../nios2-elf/lib\libc.a(lib_a-lseekr.o)
                0x0000b95c                _lseek_r
 .text          0x0000b9d4       0x78 c:/altera/12.0/nios2eds/bin/gnu/h-i686-mingw32/bin/../lib/gcc/nios2-elf/4.1.2/../../../../nios2-elf/lib\libc.a(lib_a-readr.o)
                0x0000b9d4                _read_r
 .text          0x0000ba4c      0x5dc c:/altera/12.0/nios2eds/bin/gnu/h-i686-mingw32/bin/../lib/gcc/nios2-elf/4.1.2\libgcc.a(_udivdi3.o)
                0x0000ba4c                __udivdi3
 .text          0x0000c028      0x5b0 c:/altera/12.0/nios2eds/bin/gnu/h-i686-mingw32/bin/../lib/gcc/nios2-elf/4.1.2\libgcc.a(_umoddi3.o)
                0x0000c028                __umoddi3
 .text          0x0000c5d8      0x504 c:/altera/12.0/nios2eds/bin/gnu/h-i686-mingw32/bin/../lib/gcc/nios2-elf/4.1.2\libgcc.a(_addsub_df.o)
                0x0000c9e8                __subdf3
                0x0000ca68                __adddf3
 .text          0x0000cadc      0x3c4 c:/altera/12.0/nios2eds/bin/gnu/h-i686-mingw32/bin/../lib/gcc/nios2-elf/4.1.2\libgcc.a(_mul_df.o)
                0x0000cadc                __muldf3
 .text          0x0000cea0      0x258 c:/altera/12.0/nios2eds/bin/gnu/h-i686-mingw32/bin/../lib/gcc/nios2-elf/4.1.2\libgcc.a(_div_df.o)
                0x0000cea0                __divdf3
 .text          0x0000d0f8       0x88 c:/altera/12.0/nios2eds/bin/gnu/h-i686-mingw32/bin/../lib/gcc/nios2-elf/4.1.2\libgcc.a(_eq_df.o)
                0x0000d0f8                __eqdf2
 .text          0x0000d180       0x88 c:/altera/12.0/nios2eds/bin/gnu/h-i686-mingw32/bin/../lib/gcc/nios2-elf/4.1.2\libgcc.a(_ne_df.o)
                0x0000d180                __nedf2
 .text          0x0000d208       0x88 c:/altera/12.0/nios2eds/bin/gnu/h-i686-mingw32/bin/../lib/gcc/nios2-elf/4.1.2\libgcc.a(_gt_df.o)
                0x0000d208                __gtdf2
 .text          0x0000d290       0x88 c:/altera/12.0/nios2eds/bin/gnu/h-i686-mingw32/bin/../lib/gcc/nios2-elf/4.1.2\libgcc.a(_ge_df.o)
                0x0000d290                __gedf2
 .text          0x0000d318       0x88 c:/altera/12.0/nios2eds/bin/gnu/h-i686-mingw32/bin/../lib/gcc/nios2-elf/4.1.2\libgcc.a(_lt_df.o)
                0x0000d318                __ltdf2
 .text          0x0000d3a0       0xf8 c:/altera/12.0/nios2eds/bin/gnu/h-i686-mingw32/bin/../lib/gcc/nios2-elf/4.1.2\libgcc.a(_si_to_df.o)
                0x0000d3a0                __floatsidf
 .text          0x0000d498       0xd8 c:/altera/12.0/nios2eds/bin/gnu/h-i686-mingw32/bin/../lib/gcc/nios2-elf/4.1.2\libgcc.a(_df_to_si.o)
                0x0000d498                __fixdfsi
 .text          0x0000d570        0x0 c:/altera/12.0/nios2eds/bin/gnu/h-i686-mingw32/bin/../lib/gcc/nios2-elf/4.1.2\libgcc.a(_thenan_df.o)
 .text          0x0000d570      0x194 c:/altera/12.0/nios2eds/bin/gnu/h-i686-mingw32/bin/../lib/gcc/nios2-elf/4.1.2\libgcc.a(_usi_to_df.o)
                0x0000d570                __floatunsidf
 .text          0x0000d704       0x98 c:/altera/12.0/nios2eds/bin/gnu/h-i686-mingw32/bin/../lib/gcc/nios2-elf/4.1.2\libgcc.a(_muldi3.o)
                0x0000d704                __muldi3
 .text          0x0000d79c        0x0 c:/altera/12.0/nios2eds/bin/gnu/h-i686-mingw32/bin/../lib/gcc/nios2-elf/4.1.2\libgcc.a(_clz.o)
 .text          0x0000d79c       0x80 c:/altera/12.0/nios2eds/bin/gnu/h-i686-mingw32/bin/../lib/gcc/nios2-elf/4.1.2\libgcc.a(_clzsi2.o)
                0x0000d79c                __clzsi2
 .text          0x0000d81c      0x314 c:/altera/12.0/nios2eds/bin/gnu/h-i686-mingw32/bin/../lib/gcc/nios2-elf/4.1.2\libgcc.a(_pack_df.o)
                0x0000d81c                __pack_d
 .text          0x0000db30      0x138 c:/altera/12.0/nios2eds/bin/gnu/h-i686-mingw32/bin/../lib/gcc/nios2-elf/4.1.2\libgcc.a(_unpack_df.o)
                0x0000db30                __unpack_d
 .text          0x0000dc68       0xc8 c:/altera/12.0/nios2eds/bin/gnu/h-i686-mingw32/bin/../lib/gcc/nios2-elf/4.1.2\libgcc.a(_fpcmp_parts_df.o)
                0x0000dc68                __fpcmp_parts_d
 .text          0x0000dd30       0xd0 ../niosII_simple_socket_server_1_bsp/\libucosii_bsp.a(alt_flash_dev.o)
                0x0000dd30                alt_flash_open_dev
                0x0000ddac                alt_flash_close_dev
 .text          0x0000de00      0x134 ../niosII_simple_socket_server_1_bsp/\libucosii_bsp.a(alt_fstat.o)
                0x0000de00                fstat
 .text          0x0000df34      0x120 ../niosII_simple_socket_server_1_bsp/\libucosii_bsp.a(alt_isatty.o)
                0x0000df34                isatty
 .text          0x0000e054       0xec ../niosII_simple_socket_server_1_bsp/\libucosii_bsp.a(alt_load.o)
                0x0000e054                alt_load
 .text          0x0000e140      0x150 ../niosII_simple_socket_server_1_bsp/\libucosii_bsp.a(alt_lseek.o)
                0x0000e140                lseek
 .text          0x0000e290       0xc8 ../niosII_simple_socket_server_1_bsp/\libucosii_bsp.a(alt_main.o)
                0x0000e290                alt_main
 .text          0x0000e358       0xbc ../niosII_simple_socket_server_1_bsp/\libucosii_bsp.a(alt_sbrk.o)
                0x0000e358                sbrk
 .text          0x0000e414      0x118 ../niosII_simple_socket_server_1_bsp/\libucosii_bsp.a(alt_usleep.o)
                0x0000e414                usleep
 .text          0x0000e52c      0x108 ../niosII_simple_socket_server_1_bsp/\libucosii_bsp.a(alt_env_lock.o)
                0x0000e52c                __env_lock
                0x0000e5d8                __env_unlock
 .text          0x0000e634      0x1d8 ../niosII_simple_socket_server_1_bsp/\libucosii_bsp.a(alt_malloc_lock.o)
                0x0000e634                __malloc_lock
                0x0000e73c                __malloc_unlock
 .text          0x0000e80c     0x2128 ../niosII_simple_socket_server_1_bsp/\libucosii_bsp.a(os_core.o)
                0x0000e80c                OSEventNameGet
                0x0000e93c                OSEventNameSet
                0x0000ea80                OSEventPendMulti
                0x0000f134                OSInit
                0x0000f188                OSIntEnter
                0x0000f204                OSIntExit
                0x0000f304                OSSchedLock
                0x0000f390                OSSchedUnlock
                0x0000f474                OSStart
                0x0000f4e4                OSStatInit
                0x0000f590                OSTimeTick
                0x0000f7d0                OSVersion
                0x0000f7f0                OS_Dummy
                0x0000f80c                OS_EventTaskRdy
                0x0000f9a0                OS_EventTaskWait
                0x0000fab0                OS_EventTaskWaitMulti
                0x0000fc04                OS_EventTaskRemove
                0x0000fcbc                OS_EventTaskRemoveMulti
                0x0000fdc0                OS_EventWaitListInit
                0x0001018c                OS_MemClr
                0x000101e0                OS_MemCopy
                0x0001024c                OS_Sched
                0x00010390                OS_StrCopy
                0x00010410                OS_StrLen
                0x00010468                OS_TaskIdle
                0x000104c4                OS_TaskStat
                0x0001058c                OS_TaskStatStkChk
                0x00010654                OS_TCBInit
 .text          0x00010934      0x18c ../niosII_simple_socket_server_1_bsp/\libucosii_bsp.a(os_dbg.o)
                0x00010934                OSDebugInit
 .text          0x00010ac0     0x193c ../niosII_simple_socket_server_1_bsp/\libucosii_bsp.a(os_flag.o)
                0x00010ac0                OSFlagAccept
                0x00010df4                OSFlagCreate
                0x00010f30                OSFlagDel
                0x000111d8                OSFlagNameGet
                0x0001131c                OSFlagNameSet
                0x00011470                OSFlagPend
                0x00011ab4                OSFlagPendGetFlagsRdy
                0x00011b1c                OSFlagPost
                0x00011ec4                OSFlagQuery
                0x0001215c                OS_FlagInit
                0x00012350                OS_FlagUnlink
 .text          0x000123fc      0xc8c ../niosII_simple_socket_server_1_bsp/\libucosii_bsp.a(os_mbox.o)
                0x000123fc                OSMboxAccept
                0x000124a0                OSMboxCreate
                0x000125b4                OSMboxDel
                0x00012854                OSMboxPend
                0x00012b1c                OSMboxPendAbort
                0x00012c98                OSMboxPost
                0x00012dcc                OSMboxPostOpt
                0x00012f58                OSMboxQuery
 .text          0x00013088      0x808 ../niosII_simple_socket_server_1_bsp/\libucosii_bsp.a(os_mem.o)
                0x00013088                OSMemCreate
                0x000132a4                OSMemGet
                0x000133a8                OSMemNameGet
                0x000134b4                OSMemNameSet
                0x000135d4                OSMemPut
                0x000136c4                OSMemQuery
                0x000137c0                OS_MemInit
 .text          0x00013890     0x1334 ../niosII_simple_socket_server_1_bsp/\libucosii_bsp.a(os_q.o)
                0x00013890                OSQAccept
                0x000139e4                OSQCreate
                0x00013bf8                OSQDel
                0x00013ef8                OSQFlush
                0x00013fc0                OSQPend
                0x000142e0                OSQPendAbort
                0x0001445c                OSQPost
                0x000145dc                OSQPostFront
                0x00014764                OSQPostOpt
                0x00014998                OSQQuery
                0x00014b18                OS_QInit
 .text          0x00014bc4      0xbc8 ../niosII_simple_socket_server_1_bsp/\libucosii_bsp.a(os_sem.o)
                0x00014bc4                OSSemAccept
                0x00014c84                OSSemCreate
                0x00014d98                OSSemDel
                0x00015038                OSSemPend
                0x000152b4                OSSemPendAbort
                0x00015430                OSSemPost
                0x00015558                OSSemQuery
                0x00015688                OSSemSet
 .text          0x0001578c     0x1a40 ../niosII_simple_socket_server_1_bsp/\libucosii_bsp.a(os_task.o)
                0x0001578c                OSTaskChangePrio
                0x00015d00                OSTaskCreate
                0x00015ed4                OSTaskCreateExt
                0x000160d4                OSTaskDel
                0x000164e0                OSTaskDelReq
                0x00016650                OSTaskNameGet
                0x00016808                OSTaskNameSet
                0x000169cc                OSTaskResume
                0x00016be4                OSTaskStkChk
                0x00016de0                OSTaskSuspend
                0x0001700c                OSTaskQuery
                0x00017150                OS_TaskStkClr
 .text          0x000171cc      0x598 ../niosII_simple_socket_server_1_bsp/\libucosii_bsp.a(os_time.o)
                0x000171cc                OSTimeDly
                0x00017318                OSTimeDlyHMSM
                0x0001748c                OSTimeDlyResume
                0x0001769c                OSTimeGet
                0x00017700                OSTimeSet
 .text          0x00017764      0x2fc ../niosII_simple_socket_server_1_bsp/\libucosii_bsp.a(alt_sys_init.o)
                0x00017764                alt_irq_init
                0x00017798                alt_sys_init
 .text          0x00017a60      0x8c8 ../niosII_simple_socket_server_1_bsp/\libucosii_bsp.a(altera_avalon_cfi_flash.o)
                0x00017a60                alt_flash_cfi_init
                0x00017b34                alt_flash_cfi_write
                0x00017df4                alt_flash_cfi_get_info
                0x00017e84                alt_flash_cfi_read
                0x00017eec                alt_write_value_to_flash
                0x00018050                alt_flash_program_block
 .text          0x00018328     0x1448 ../niosII_simple_socket_server_1_bsp/\libucosii_bsp.a(altera_avalon_cfi_flash_table.o)
                0x00018328                alt_read_query_entry_8bit
                0x00018368                alt_read_query_entry_16bit
                0x000183ac                alt_read_query_entry_32bit
                0x000183f4                alt_write_flash_command_8bit_device_8bit_mode
                0x00018430                alt_write_flash_command_16bit_device_8bit_mode
                0x000184ac                alt_write_flash_command_32bit_device_8bit_mode
                0x000184f4                alt_write_flash_command_16bit_device_16bit_mode
                0x00018538                alt_write_flash_command_32bit_device_16bit_mode
                0x00018580                alt_write_flash_command_32bit_device_32bit_mode
                0x000185c8                alt_write_native_8bit
                0x000185fc                alt_write_native_16bit
                0x00018630                alt_write_native_32bit
                0x00018660                alt_set_flash_width_func
                0x00018840                alt_set_flash_algorithm_func
                0x00018968                alt_read_cfi_table
                0x00018ee8                alt_read_cfi_width
                0x00019694                alt_check_primary_table
 .text          0x00019770      0x148 ../niosII_simple_socket_server_1_bsp/\libucosii_bsp.a(altera_avalon_jtag_uart_fd.o)
                0x00019770                altera_avalon_jtag_uart_read_fd
                0x000197c8                altera_avalon_jtag_uart_write_fd
                0x00019820                altera_avalon_jtag_uart_close_fd
                0x00019868                altera_avalon_jtag_uart_ioctl_fd
 .text          0x000198b8      0x584 ../niosII_simple_socket_server_1_bsp/\libucosii_bsp.a(altera_avalon_jtag_uart_init.o)
                0x000198b8                altera_avalon_jtag_uart_init
                0x00019dc8                altera_avalon_jtag_uart_close
 .text          0x00019e3c       0xf4 ../niosII_simple_socket_server_1_bsp/\libucosii_bsp.a(altera_avalon_jtag_uart_ioctl.o)
                0x00019e3c                altera_avalon_jtag_uart_ioctl
 .text          0x00019f30      0x2c0 ../niosII_simple_socket_server_1_bsp/\libucosii_bsp.a(altera_avalon_jtag_uart_read.o)
                0x00019f30                altera_avalon_jtag_uart_read
 .text          0x0001a1f0      0x2dc ../niosII_simple_socket_server_1_bsp/\libucosii_bsp.a(altera_avalon_jtag_uart_write.o)
                0x0001a1f0                altera_avalon_jtag_uart_write
 .text          0x0001a4cc      0xf3c ../niosII_simple_socket_server_1_bsp/\libucosii_bsp.a(altera_avalon_lcd_16207.o)
                0x0001aca0                altera_avalon_lcd_16207_write
                0x0001b2a4                altera_avalon_lcd_16207_init
 .text          0x0001b408       0x58 ../niosII_simple_socket_server_1_bsp/\libucosii_bsp.a(altera_avalon_lcd_16207_fd.o)
                0x0001b408                altera_avalon_lcd_16207_write_fd
 .text          0x0001b460      0xde4 ../niosII_simple_socket_server_1_bsp/\libucosii_bsp.a(altera_avalon_sgdma.o)
                0x0001b460                alt_avalon_sgdma_do_async_transfer
                0x0001b59c                alt_avalon_sgdma_do_sync_transfer
                0x0001b6c0                alt_avalon_sgdma_construct_mem_to_mem_desc
                0x0001b730                alt_avalon_sgdma_construct_mem_to_mem_desc_burst
                0x0001b7b0                alt_avalon_sgdma_construct_stream_to_mem_desc
                0x0001b804                alt_avalon_sgdma_construct_stream_to_mem_desc_burst
                0x0001b874                alt_avalon_sgdma_construct_mem_to_stream_desc
                0x0001b8e8                alt_avalon_sgdma_construct_mem_to_stream_desc_burst
                0x0001b96c                alt_avalon_sgdma_register_callback
                0x0001b9bc                alt_avalon_sgdma_start
                0x0001ba10                alt_avalon_sgdma_stop
                0x0001ba68                alt_avalon_sgdma_check_descriptor_status
                0x0001bad8                alt_avalon_sgdma_open
                0x0001bb90                alt_avalon_sgdma_construct_descriptor
                0x0001bc18                alt_avalon_sgdma_enable_desc_poll
                0x0001bc94                alt_avalon_sgdma_disable_desc_poll
                0x0001bcf0                alt_avalon_sgdma_construct_descriptor_burst
                0x0001c198                alt_avalon_sgdma_init
 .text          0x0001c244      0x100 ../niosII_simple_socket_server_1_bsp/\libucosii_bsp.a(altera_avalon_timer_sc.o)
                0x0001c2b4                alt_avalon_timer_sc_init
 .text          0x0001c344     0x5350 ../niosII_simple_socket_server_1_bsp/\libucosii_bsp.a(altera_avalon_tse.o)
                0x0001c344                no_printf
                0x0001c370                tse_mac_initTransInfo2
                0x0001c3d0                tse_mac_sTxWrite
                0x0001c4c0                tse_mac_aRxRead
                0x0001c564                tse_mac_SwReset
                0x0001c5f8                tse_mac_setMIImode
                0x0001c650                tse_mac_setGMIImode
                0x0001c6a4                alt_tse_phy_add_profile
                0x0001c87c                alt_tse_system_add_sys
                0x0001d290                alt_tse_sys_enable_mdio_sharing
                0x0001d408                alt_tse_mac_get_common_speed
                0x0001d448                alt_tse_mac_set_common_speed
                0x0001d490                alt_tse_get_system_index
                0x0001d50c                alt_tse_get_mac_group_index
                0x0001d58c                alt_tse_get_mac_info_index
                0x0001d618                alt_tse_get_mac_info
                0x0001d6f8                alt_tse_mac_set_speed
                0x0001d7e4                alt_tse_mac_set_duplex
                0x0001d87c                getPHYSpeed
                0x0001e694                alt_tse_phy_rd_mdio_addr
                0x0001e6dc                alt_tse_phy_wr_mdio_addr
                0x0001e730                alt_tse_phy_wr_mdio_reg
                0x0001e858                alt_tse_phy_rd_mdio_reg
                0x0001e91c                alt_tse_phy_add_profile_default
                0x0001eb94                alt_tse_phy_print_profile
                0x0001ed84                alt_tse_mac_group_init
                0x0001f490                alt_tse_mac_get_phy
                0x0001f8a8                alt_tse_mac_associate_phy
                0x0001fae0                alt_tse_phy_cfg_pcs
                0x0001fc00                alt_tse_phy_init
                0x0001fd14                alt_tse_phy_restart_an
                0x0001fec4                alt_tse_phy_check_link
                0x00020008                alt_tse_phy_get_cap
                0x00020548                alt_tse_phy_set_adv_1000
                0x000206dc                alt_tse_phy_set_adv_100
                0x000208ec                alt_tse_phy_set_adv_10
                0x00020a84                alt_tse_phy_get_common_speed
                0x00020da0                alt_tse_phy_set_common_speed
                0x00021284                marvell_phy_cfg
                0x0002132c                marvell_cfg_gmii
                0x00021420                marvell_cfg_sgmii
                0x00021514                marvell_cfg_rgmii
                0x00021614                DP83848C_link_status_read
 .text          0x00021694       0xf8 ../niosII_simple_socket_server_1_bsp/\libucosii_bsp.a(altera_avalon_uart_fd.o)
                0x00021694                altera_avalon_uart_read_fd
                0x000216ec                altera_avalon_uart_write_fd
                0x00021744                altera_avalon_uart_close_fd
 .text          0x0002178c      0x57c ../niosII_simple_socket_server_1_bsp/\libucosii_bsp.a(altera_avalon_uart_init.o)
                0x0002178c                altera_avalon_uart_init
                0x00021ca8                altera_avalon_uart_close
 .text          0x00021d08      0x310 ../niosII_simple_socket_server_1_bsp/\libucosii_bsp.a(altera_avalon_uart_read.o)
                0x00021d08                altera_avalon_uart_read
 .text          0x00022018      0x2a8 ../niosII_simple_socket_server_1_bsp/\libucosii_bsp.a(altera_avalon_uart_write.o)
                0x00022018                altera_avalon_uart_write
 .text          0x000222c0     0x1778 ../niosII_simple_socket_server_1_bsp/\libucosii_bsp.a(ins_tse_mac.o)
                0x000222c0                triple_speed_ethernet_init
                0x0002241c                prep_tse_mac
                0x00022674                tse_mac_init
                0x0002315c                tse_mac_raw_send
                0x00023454                tse_sgdmaRx_isr
                0x000234fc                tse_sgdma_read_init
                0x000236a4                tse_mac_rcv
                0x000238f4                tse_mac_stats
                0x00023934                tse_mac_close
 .text          0x00023a38       0x54 ../niosII_simple_socket_server_1_bsp/\libucosii_bsp.a(alt_iniche_close.o)
                0x00023a38                close
 .text          0x00023a8c      0x124 ../niosII_simple_socket_server_1_bsp/\libucosii_bsp.a(alt_iniche_dev.o)
                0x00023a8c                iniche_devices_init
 .text          0x00023bb0       0x78 ../niosII_simple_socket_server_1_bsp/\libucosii_bsp.a(alt_iniche_read.o)
                0x00023bb0                read
 .text          0x00023c28       0x70 ../niosII_simple_socket_server_1_bsp/\libucosii_bsp.a(alt_iniche_write.o)
                0x00023c28                write
 .text          0x00023c98      0xedc ../niosII_simple_socket_server_1_bsp/\libucosii_bsp.a(ipnet.o)
                0x00023c98                Netinit
                0x000242e4                fixup_subnet_mask
                0x00024444                netclose
                0x0002452c                pktdemux
                0x00024900                c_older
                0x000249d0                ip2mac
 .text          0x00024b74      0x4b0 ../niosII_simple_socket_server_1_bsp/\libucosii_bsp.a(ipstart.o)
                0x00024b74                ip_startup
                0x00024e58                exit_hook
                0x00024ec4                ip_exit
                0x00024f94                if_netnumber
 .text          0x00025024     0x1010 ../niosII_simple_socket_server_1_bsp/\libucosii_bsp.a(igmp_cmn.o)
                0x00025024                igmp_init
                0x000250d4                igmp_input
                0x000251cc                igmp_fasttimo
                0x00025368                igmp_send
                0x00025610                igmp_joingroup
                0x0002587c                igmp_leavegroup
                0x000258f8                igmp_validate
                0x00025c54                igmp_print_stats
 .text          0x00026034      0xb68 ../niosII_simple_socket_server_1_bsp/\libucosii_bsp.a(bsdsock.o)
                0x00026034                bsd_accept
                0x0002616c                bsd_getpeername
                0x00026298                bsd_getsockname
                0x000263c4                bsd_i_sockoptlen
                0x00026594                bsd_getsockopt
                0x000266b4                bsd_ioctl
                0x000267b8                bsd_inet_ntoa
                0x000267e8                bsd_recvfrom
                0x00026948                bsd_select
                0x00026ab0                bsd_setsockopt
 .text          0x00026b9c      0x118 ../niosII_simple_socket_server_1_bsp/\libucosii_bsp.a(cksum.o)
                0x00026b9c                ccksum
                0x00026c4c                cksum
 .text          0x00026cb4      0xa9c ../niosII_simple_socket_server_1_bsp/\libucosii_bsp.a(in_utils.o)
                0x00026cb4                do_trap
                0x00026ce0                nextarg
                0x00026d5c                hexdump
                0x00026ea4                print_ipad
                0x00026f18                print_uptime
                0x00027044                panic
                0x00027088                print_eth
                0x000271ec                uslash
                0x0002726c                ns_printf
                0x000273f0                std_out
                0x00027434                con_page
                0x00027524                parse_args
 .text          0x00027750      0x1c4 ../niosII_simple_socket_server_1_bsp/\libucosii_bsp.a(netmain.o)
                0x00027750                netmain
                0x00027844                tk_netmain
                0x000278cc                tk_nettick
 .text          0x00027914      0x5e8 ../niosII_simple_socket_server_1_bsp/\libucosii_bsp.a(tk_crnos.o)
                0x00027914                TK_OSTimeDly
                0x00027940                TK_OSTaskResume
                0x000279b0                tcp_sleep
                0x00027b50                tcp_wakeup
                0x00027c54                TK_OSTaskQuery
                0x00027cc8                tk_yield
                0x00027cf4                tk_stats
 .text          0x00027efc      0x79c ../niosII_simple_socket_server_1_bsp/\libucosii_bsp.a(pktalloc.o)
                0x00027efc                pk_init
                0x0002818c                pk_alloc
                0x00028268                pk_validate
                0x00028520                pk_free
                0x000285cc                pk_get_max_intrsafe_buf_len
                0x000285ec                dump_buf_estats
 .text          0x00028698      0x288 ../niosII_simple_socket_server_1_bsp/\libucosii_bsp.a(q.o)
                0x00028698                getq
                0x00028760                putq
                0x00028810                qdel
 .text          0x00028920      0x194 ../niosII_simple_socket_server_1_bsp/\libucosii_bsp.a(asm_cksum.o)
                0x00028920                asm_cksum
 .text          0x00028ab4      0x2a0 ../niosII_simple_socket_server_1_bsp/\libucosii_bsp.a(brdutils.o)
                0x00028ab4                dtrap
                0x00028ae4                kbhit
                0x00028b90                getch
                0x00028bf0                clock_init
                0x00028c2c                clock_c
                0x00028c48                cticks_hook
                0x00028cb4                irq_Mask
                0x00028d10                irq_Unmask
 .text          0x00028d54      0x488 ../niosII_simple_socket_server_1_bsp/\libucosii_bsp.a(osportco.o)
                0x00028d54                LOCK_NET_RESOURCE
                0x00028e14                UNLOCK_NET_RESOURCE
                0x00028e9c                TK_NEWTASK
                0x000290b0                wait_app_sem
                0x00029164                post_app_sem
 .text          0x000291dc      0x568 ../niosII_simple_socket_server_1_bsp/\libucosii_bsp.a(targnios.o)
                0x000291dc                alt_iniche_init
                0x000293f8                pre_task_setup
                0x0002946c                post_task_setup
                0x0002948c                prep_armintcp
                0x000294c4                calloc2
                0x000294f8                npalloc
                0x000295ec                npfree
                0x000296a4                ncpalloc
                0x000296f8                ncpfree
 .text          0x00029744     0x197c ../niosII_simple_socket_server_1_bsp/\libucosii_bsp.a(nptcp.o)
                0x00029744                pffindtype
                0x000297e4                pffindproto
                0x000298b4                m_getnbuf
                0x00029a5c                m_free
                0x00029b90                m_freem
                0x00029bd4                m_copy
                0x00029ef8                m_adj
                0x0002a0c8                mbuf_len
                0x0002a120                dtom
                0x0002a1c8                remque
                0x0002a238                insque
                0x0002a2b4                nptcp_init
                0x0002a3d8                tcp_rcv
                0x0002a5c4                ip_output
                0x0002abbc                in_broadcast
                0x0002abfc                np_stripoptions
                0x0002ace4                so_icmpdu
                0x0002b03c                tcp_tick
 .text          0x0002b0c0      0xa2c ../niosII_simple_socket_server_1_bsp/\libucosii_bsp.a(rawsock.o)
                0x0002b0c0                rawip_lookup
                0x0002b130                rawip_soinput
                0x0002b304                rawip_usrreq
 .text          0x0002baec     0x17fc ../niosII_simple_socket_server_1_bsp/\libucosii_bsp.a(sockcall.o)
                0x0002baec                DOMAIN_CHECK
                0x0002bb38                t_socket
                0x0002bbc8                t_bind
                0x0002bd44                t_listen
                0x0002be28                t_accept
                0x0002c0c0                t_connect
                0x0002c368                t_getpeername
                0x0002c3ac                t_getsockname
                0x0002c5ec                t_setsockopt
                0x0002c7c8                t_getsockopt
                0x0002c96c                t_recv
                0x0002ca5c                t_recvfrom
                0x0002cbac                t_sendto
                0x0002cdd8                t_send
                0x0002d000                t_shutdown
                0x0002d0e4                t_socketclose
                0x0002d24c                t_errno
 .text          0x0002d2e8     0x238c ../niosII_simple_socket_server_1_bsp/\libucosii_bsp.a(socket.o)
                0x0002d2e8                socreate
                0x0002d4b4                sobind
                0x0002d510                solisten
                0x0002d600                sofree
                0x0002d730                soclose
                0x0002da24                soabort
                0x0002da74                soaccept
                0x0002db10                soconnect
                0x0002dbe4                sodisconnect
                0x0002dc84                sosend
                0x0002e28c                soreceive
                0x0002ea70                soshutdown
                0x0002eb18                sorflush
                0x0002ec18                sosetopt
                0x0002f0f0                sogetopt
                0x0002f630                sohasoutofband
 .text          0x0002f674     0x1318 ../niosII_simple_socket_server_1_bsp/\libucosii_bsp.a(socket2.o)
                0x0002f674                soisconnecting
                0x0002f6e0                soisconnected
                0x0002f7dc                soisdisconnecting
                0x0002f868                soisdisconnected
                0x0002f924                sonewconn
                0x0002fb40                soqinsque
                0x0002fbec                soqremque
                0x0002fd0c                socantsendmore
                0x0002fd5c                socantrcvmore
                0x0002fdac                sbselqueue
                0x0002fde4                sbwait
                0x0002fe4c                sbwakeup
                0x0002fee8                soreserve
                0x0002ff68                sbreserve
                0x0002ffc8                sbrelease
                0x00030010                sbappend
                0x000300b8                sbappendrecord
                0x00030198                sbappendaddr
                0x000303a0                sbcompress
                0x00030588                sbflush
                0x00030618                sbdrop
                0x000307e8                sbdropend
                0x000308f8                sbdroprecord
 .text          0x0003098c      0x964 ../niosII_simple_socket_server_1_bsp/\libucosii_bsp.a(soselect.o)
                0x0003098c                t_select
                0x00030bac                sock_selscan
                0x00030d04                sock_select
                0x00030f68                in_pcbnotify
                0x00031034                tcp_notify
                0x0003109c                ifd_clr
                0x0003118c                ifd_set
                0x00031200                ifd_isset
                0x00031280                ifd_get
 .text          0x000312f0     0x30cc ../niosII_simple_socket_server_1_bsp/\libucosii_bsp.a(tcp_in.o)
                0x000312f0                tcp_reass
                0x000316f8                tcp_input
                0x00033d30                tcp_dooptions
                0x00033ec0                tcp_pulloutofband
                0x00033fec                tcp_xmit_timer
                0x00034258                ip4_tcpmss
                0x000342a0                tcp_mss
 .text          0x000343bc     0x1360 ../niosII_simple_socket_server_1_bsp/\libucosii_bsp.a(tcp_out.o)
                0x000343bc                tcp_output
                0x00035538                tcp_setpersist
 .text          0x0003571c      0xa10 ../niosII_simple_socket_server_1_bsp/\libucosii_bsp.a(tcp_subr.o)
                0x0003571c                tcp_init
                0x00035774                tcp_template
                0x0003588c                tcp_respond
                0x00035d14                tcp_newtcpcb
                0x00035e2c                tcp_drop
                0x00035f00                tcp_close
                0x00035fe8                tcp_quench
                0x00036034                tcp_putseq
                0x000360b4                tcp_getseq
 .text          0x0003612c      0x83c ../niosII_simple_socket_server_1_bsp/\libucosii_bsp.a(tcp_timr.o)
                0x0003612c                tcp_slowtimo
                0x00036470                tcp_canceltimers
                0x000364cc                tcp_timers
 .text          0x00036968      0x9ec ../niosII_simple_socket_server_1_bsp/\libucosii_bsp.a(tcp_usr.o)
                0x00036968                tcp_usrreq
                0x0003706c                tcp_attach
                0x000371a0                tcp_disconnect
                0x00037274                tcp_usrclosed
 .text          0x00037354      0x45c ../niosII_simple_socket_server_1_bsp/\libucosii_bsp.a(tcp_zio.o)
                0x00037354                tcp_xout
                0x000375a4                tcp_pktalloc
                0x00037634                tcp_pktfree
                0x00037674                tcp_data_upcall
 .text          0x000377b0       0x4c ../niosII_simple_socket_server_1_bsp/\libucosii_bsp.a(tcpport.o)
                0x000377b0                tcpinit
 .text          0x000377fc      0xd20 ../niosII_simple_socket_server_1_bsp/\libucosii_bsp.a(udpsock.o)
                0x000377fc                udp_lookup
                0x0003786c                udp_soinput
                0x00037a24                udp_usrreq
                0x00037ca8                udp4_sockbind
                0x00037fe4                udp4_socksend
                0x000383c0                udp4_sockaddr
 .text          0x0003851c      0x154 ../niosII_simple_socket_server_1_bsp/\libucosii_bsp.a(alt_alarm_start.o)
                0x0003851c                alt_alarm_start
 .text          0x00038670      0x14c ../niosII_simple_socket_server_1_bsp/\libucosii_bsp.a(alt_busy_sleep.o)
                0x00038670                alt_busy_sleep
 .text          0x000387bc      0x15c ../niosII_simple_socket_server_1_bsp/\libucosii_bsp.a(alt_close.o)
                0x000387bc                alt_close
 .text          0x00038918       0x78 ../niosII_simple_socket_server_1_bsp/\libucosii_bsp.a(alt_dcache_flush.o)
                0x00038918                alt_dcache_flush
 .text          0x00038990       0x44 ../niosII_simple_socket_server_1_bsp/\libucosii_bsp.a(alt_dcache_flush_all.o)
                0x00038990                alt_dcache_flush_all
 .text          0x000389d4       0x2c ../niosII_simple_socket_server_1_bsp/\libucosii_bsp.a(alt_dev.o)
 .text          0x00038a00      0x114 ../niosII_simple_socket_server_1_bsp/\libucosii_bsp.a(alt_dev_llist_insert.o)
                0x00038a00                alt_dev_llist_insert
 .text          0x00038b14       0x64 ../niosII_simple_socket_server_1_bsp/\libucosii_bsp.a(alt_do_ctors.o)
                0x00038b14                _do_ctors
 .text          0x00038b78       0x64 ../niosII_simple_socket_server_1_bsp/\libucosii_bsp.a(alt_do_dtors.o)
                0x00038b78                _do_dtors
 .text          0x00038bdc        0x0 ../niosII_simple_socket_server_1_bsp/\libucosii_bsp.a(alt_errno.o)
 .text          0x00038bdc       0x94 ../niosII_simple_socket_server_1_bsp/\libucosii_bsp.a(alt_find_dev.o)
                0x00038bdc                alt_find_dev
 .text          0x00038c70       0x30 ../niosII_simple_socket_server_1_bsp/\libucosii_bsp.a(alt_icache_flush_all.o)
                0x00038c70                alt_icache_flush_all
 .text          0x00038ca0      0x1d4 ../niosII_simple_socket_server_1_bsp/\libucosii_bsp.a(alt_iic.o)
                0x00038ca0                alt_ic_isr_register
                0x00038cf0                alt_ic_irq_enable
                0x00038d8c                alt_ic_irq_disable
                0x00038e2c                alt_ic_irq_enabled
 .text          0x00038e74       0xf8 ../niosII_simple_socket_server_1_bsp/\libucosii_bsp.a(alt_iic_isr_register.o)
                0x00038e74                alt_iic_isr_register
 .text          0x00038f6c      0x13c ../niosII_simple_socket_server_1_bsp/\libucosii_bsp.a(alt_io_redirect.o)
                0x00039030                alt_io_redirect
 .text          0x000390a8        0x0 ../niosII_simple_socket_server_1_bsp/\libucosii_bsp.a(alt_irq_entry.o)
 .text          0x000390a8        0x0 ../niosII_simple_socket_server_1_bsp/\libucosii_bsp.a(alt_irq_handler.o)
 .text          0x000390a8        0x0 ../niosII_simple_socket_server_1_bsp/\libucosii_bsp.a(alt_irq_vars.o)
 .text          0x000390a8      0x2c4 ../niosII_simple_socket_server_1_bsp/\libucosii_bsp.a(alt_open.o)
                0x00039184                open
 .text          0x0003936c      0x180 ../niosII_simple_socket_server_1_bsp/\libucosii_bsp.a(alt_read.o)
                0x0003936c                alt_read
 .text          0x000394ec       0x60 ../niosII_simple_socket_server_1_bsp/\libucosii_bsp.a(alt_release_fd.o)
                0x000394ec                alt_release_fd
 .text          0x0003954c       0x38 ../niosII_simple_socket_server_1_bsp/\libucosii_bsp.a(alt_remap_cached.o)
                0x0003954c                alt_remap_cached
 .text          0x00039584       0x40 ../niosII_simple_socket_server_1_bsp/\libucosii_bsp.a(alt_remap_uncached.o)
                0x00039584                alt_remap_uncached
 .text          0x000395c4      0x1a8 ../niosII_simple_socket_server_1_bsp/\libucosii_bsp.a(alt_tick.o)
                0x000395c4                alt_alarm_stop
                0x0003965c                alt_tick
 .text          0x0003976c       0x64 ../niosII_simple_socket_server_1_bsp/\libucosii_bsp.a(alt_uncached_malloc.o)
                0x0003976c                alt_uncached_malloc
 .text          0x000397d0      0x180 ../niosII_simple_socket_server_1_bsp/\libucosii_bsp.a(alt_write.o)
                0x000397d0                alt_write
 .text          0x00039950       0x20 ../niosII_simple_socket_server_1_bsp/\libucosii_bsp.a(altera_nios2_irq.o)
                0x00039950                altera_nios2_irq_init
 .text          0x00039970       0xd0 ../niosII_simple_socket_server_1_bsp/\libucosii_bsp.a(os_cpu_a.o)
                0x00039970                OSCtxSw
                0x00039970                OSIntCtxSw
                0x000399fc                OSStartHighRdy
                0x00039a1c                OSStartTsk
 .text          0x00039a40      0x424 ../niosII_simple_socket_server_1_bsp/\libucosii_bsp.a(os_cpu_c.o)
                0x00039a40                OSTaskStkInit
                0x00039d50                OSTaskCreateHook
                0x00039d70                OSTaskDelHook
                0x00039d90                OSTaskSwHook
                0x00039dac                OSTaskStatHook
                0x00039dc8                OSTimeTickHook
                0x00039df0                OSInitHookBegin
                0x00039e0c                OSInitHookEnd
                0x00039e28                OSTaskIdleHook
                0x00039e44                OSTCBInitHook
 .text          0x00039e64      0x460 ../niosII_simple_socket_server_1_bsp/\libucosii_bsp.a(altera_avalon_cfi_flash_amd.o)
                0x00039e64                alt_program_amd
                0x00039ecc                alt_erase_block_amd
 .text          0x0003a2c4      0x460 ../niosII_simple_socket_server_1_bsp/\libucosii_bsp.a(altera_avalon_cfi_flash_intel.o)
                0x0003a2c4                alt_program_intel
                0x0003a348                alt_erase_block_intel
 .text          0x0003a724      0x3d0 ../niosII_simple_socket_server_1_bsp/\libucosii_bsp.a(allports.o)
                0x0003a724                netmain_init
                0x0003a81c                icmp_port_du
                0x0003a8a4                station_state
                0x0003a9f0                sysuptime
                0x0003aa2c                packet_check
                0x0003aa78                mcastlist
                0x0003aa9c                prep_modules
 .text          0x0003aaf4      0x47c ../niosII_simple_socket_server_1_bsp/\libucosii_bsp.a(timeouts.o)
                0x0003aaf4                inet_timer
                0x0003ad4c                in_timerset
                0x0003aec8                in_timerkill
 .text          0x0003af70       0xa4 ../niosII_simple_socket_server_1_bsp/\libucosii_bsp.a(tk_misc.o)
                0x0003af70                create_apptasks
                0x0003af94                task_stats
 .text          0x0003b014       0xb0 ../niosII_simple_socket_server_1_bsp/\libucosii_bsp.a(alt_iniche_fcntl.o)
                0x0003b014                fcntl
 .text          0x0003b0c4     0x14a0 ../niosII_simple_socket_server_1_bsp/\libucosii_bsp.a(et_arp.o)
                0x0003b0c4                etainit
                0x0003b118                et_send
                0x0003b294                arp_free_pending
                0x0003b31c                arp_send_pending
                0x0003b390                send_arp
                0x0003b828                find_oldest_arp
                0x0003b9d0                make_arp_entry
                0x0003bae4                arpReply
                0x0003bd78                arprcv
                0x0003bfd8                send_via_arp
                0x0003c180                cb_arpent_tmo
                0x0003c298                grat_arp
 .text          0x0003c564      0x298 ../niosII_simple_socket_server_1_bsp/\libucosii_bsp.a(iface.o)
                0x0003c564                if_getbynum
                0x0003c5e8                isbcast
                0x0003c6c8                reg_type
                0x0003c764                if_killsocks
 .text          0x0003c7fc     0x22a4 ../niosII_simple_socket_server_1_bsp/\libucosii_bsp.a(ip.o)
                0x0003c7fc                ip_init
                0x0003c8f8                ip_bldhead
                0x0003ca9c                ip_write_internal
                0x0003d21c                ip_write
                0x0003d464                ip_write2
                0x0003d814                ip_raw_write
                0x0003d8ec                ip_fragment_lc
                0x0003dd74                ip_fragment
                0x0003e398                ip_mymach
                0x0003e444                ip_dump
                0x0003e6fc                iproute
                0x0003e968                ip_copypkt
 .text          0x0003eaa0     0x1d9c ../niosII_simple_socket_server_1_bsp/\libucosii_bsp.a(ip_reasm.o)
                0x0003eaa0                ip_reasm_match_frag_with_ire
                0x0003eb70                ip_reasm_determine_type_of_frag
                0x0003ec5c                ip_reasm_check_mem_useage
                0x0003ecf4                ip_reasm_incr_mem_useage
                0x0003ed9c                ip_reasm_decr_mem_useage
                0x0003ee3c                ip_reasm_process_first_fragment
                0x0003f11c                ip_reassm
                0x0003f1bc                ip_reasm_compute_overlap
                0x0003f74c                ip_reasm_process_subsequent_fragments
                0x0003fce0                ip_reasm_find_ire
                0x0003fd44                ip_reasm_copy_queued_fragments_into_reassy_buffer
                0x000400a0                ip_reasm_process_timer_tick
                0x00040184                ip_reasm_delete_ire
                0x0004034c                ip_reasm_mark_compact_rfq
                0x00040494                ipr_stats
                0x000407e8                ip_reasm_send_icmp_timex
 .text          0x0004083c      0xe3c ../niosII_simple_socket_server_1_bsp/\libucosii_bsp.a(ipdemux.o)
                0x0004083c                ip_rcv
                0x00040c3c                ip_rcv_phase2
                0x00041248                ip_demux
 .text          0x00041678      0x2f0 ../niosII_simple_socket_server_1_bsp/\libucosii_bsp.a(ipmc.o)
                0x00041678                in_addmulti
                0x000417e0                in_delmulti
                0x000418f8                lookup_mcast
 .text          0x00041968       0xe4 ../niosII_simple_socket_server_1_bsp/\libucosii_bsp.a(ipport.o)
                0x00041968                prep_ifaces
                0x000419fc                netexit
                0x00041a24                evtmap_setup
 .text          0x00041a4c      0x550 ../niosII_simple_socket_server_1_bsp/\libucosii_bsp.a(ipraw.o)
                0x00041a4c                ip_raw_open
                0x00041b3c                ip_raw_close
                0x00041bfc                ip_raw_input
                0x00041e34                ip_raw_alloc
                0x00041f00                ip_raw_free
                0x00041f40                ip_raw_maxalloc
 .text          0x00041f9c      0x6f0 ../niosII_simple_socket_server_1_bsp/\libucosii_bsp.a(iproute.o)
                0x00041f9c                rt_lookup
                0x00042120                add_route
                0x00042548                del_route
 .text          0x0004268c      0xe3c ../niosII_simple_socket_server_1_bsp/\libucosii_bsp.a(udp.o)
                0x0004268c                udpdemux
                0x00042ee4                udp_send
                0x0004319c                udpswap
                0x000432cc                udp_socket
                0x0004339c                udp_alloc
                0x0004345c                udp_maxalloc
                0x00043488                udp_free
 .text          0x000434c8      0x2e8 ../niosII_simple_socket_server_1_bsp/\libucosii_bsp.a(igmp.o)
                0x000434c8                igmpv1_input
 .text          0x000437b0      0x7c0 ../niosII_simple_socket_server_1_bsp/\libucosii_bsp.a(igmp2.o)
                0x000437b0                igmpv2_input
                0x00043910                igmpv2_process_report
                0x00043a5c                igmpv2_process_query
                0x00043ca8                igmpv2_chk_set_timer
                0x00043e00                igmpv2_chk4_rtr_alert_opt
 .text          0x00043f70      0x8fc ../niosII_simple_socket_server_1_bsp/\libucosii_bsp.a(ipopt.o)
                0x00043f70                IPADDR_TO_NETP
                0x000440b8                ip_setmoptions
                0x000446a8                ip_getmoptions
                0x000447e8                ip_freemoptions
 .text          0x0004486c      0x6ac ../niosII_simple_socket_server_1_bsp/\libucosii_bsp.a(u_mctest.o)
                0x0004486c                u_mctest_init
                0x0004489c                u_mctest_run
 .text          0x00044f18      0x40c ../niosII_simple_socket_server_1_bsp/\libucosii_bsp.a(memdev.o)
                0x00044f18                init_memdev
                0x00044f90                md_fopen
                0x00044fb8                md_fclose
                0x00044fd8                md_fread
                0x00045158                md_fwrite
                0x000451d8                md_fseek
                0x00045204                md_ftell
                0x00045228                md_fgetc
                0x00045300                md_unlink
 .text          0x00045324      0x810 ../niosII_simple_socket_server_1_bsp/\libucosii_bsp.a(parseip.o)
                0x00045324                parse_ipad
                0x00045640                inet_addr
                0x000456a8                hextoa
                0x00045718                inet_pton
                0x000457c4                inet_ntop
                0x00045850                print46_addr
                0x000458b0                inet46_addr
                0x00045974                inet_setport
                0x000459e8                convert_ip
 .text          0x00045b34      0x1cc ../niosII_simple_socket_server_1_bsp/\libucosii_bsp.a(tcpcksum.o)
                0x00045b34                tcp_cksum
 .text          0x00045d00      0x31c ../niosII_simple_socket_server_1_bsp/\libucosii_bsp.a(udp_open.o)
                0x00045d00                udp_open
                0x00045f38                udp_close
 .text          0x0004601c      0x900 ../niosII_simple_socket_server_1_bsp/\libucosii_bsp.a(in_pcb.o)
                0x0004601c                in_pcballoc
                0x000460b0                in_pcbdetach
                0x00046104                in_pcbbind
                0x00046358                in_pcbconnect
                0x00046568                in_pcbdisconnect
                0x000465c8                in_setsockaddr
                0x00046644                in_setpeeraddr
                0x000466c0                in_pcblookup
 .text          0x0004691c     0x1a74 ../niosII_simple_socket_server_1_bsp/\libucosii_bsp.a(vfsfiles.o)
                0x0004691c                set_vfopen_error
                0x00046944                get_vfopen_error
                0x00046964                vf_alloc_and_link_vop
                0x000469e0                vf_alloc_buffer
                0x00046ab8                vf_free_buffer
                0x00046b08                vfopen_locked
                0x00046e70                vfopen
                0x00046ec0                vfclose_locked
                0x00047068                vfclose
                0x000470a8                vfflush
                0x000470f0                vfgets
                0x000471d4                vfeof
                0x0004722c                vunlink_flag_open_files
                0x00047288                vunlink
                0x000474a8                vfread
                0x00047654                vfwrite_locked
                0x00047a3c                vfwrite
                0x00047a9c                vfseek
                0x00047c18                vftell
                0x00047d4c                vgetc_locked
                0x00047e6c                vgetc
                0x00047eb4                vfslookup_locked
                0x00047fec                vfslookup
                0x00048034                strippath
                0x0004821c                isvfile_locked
                0x00048280                isvfile
                0x000482c8                vferror
                0x00048334                vclearerr
 .text          0x00048390       0x24 ../niosII_simple_socket_server_1_bsp/\libucosii_bsp.a(vfsport.o)
                0x00048390                prep_vfs
 .text          0x000483b4        0x0 ../niosII_simple_socket_server_1_bsp/\libucosii_bsp.a(alt_exception_entry.o)
 .text          0x000483b4      0x1b4 ../niosII_simple_socket_server_1_bsp/\libucosii_bsp.a(alt_fcntl.o)
                0x000483b4                alt_fcntl
 .text          0x00048568      0x120 ../niosII_simple_socket_server_1_bsp/\libucosii_bsp.a(alt_find_file.o)
                0x00048568                alt_find_file
 .text          0x00048688       0xf4 ../niosII_simple_socket_server_1_bsp/\libucosii_bsp.a(alt_get_fd.o)
                0x00048688                alt_get_fd
 .text          0x0004877c       0x90 ../niosII_simple_socket_server_1_bsp/\libucosii_bsp.a(alt_icache_flush.o)
                0x0004877c                alt_icache_flush
 .text          0x0004880c     0x130c ../niosII_simple_socket_server_1_bsp/\libucosii_bsp.a(icmp.o)
                0x0004880c                icmprcv
                0x00049440                icmp_destun
                0x00049790                icmp_timex
                0x00049ac4                icmp_du
 .text          0x00049b18       0x14 c:/altera/12.0/nios2eds/bin/gnu/h-i686-mingw32/bin/../lib/gcc/nios2-elf/4.1.2/../../../../nios2-elf/lib\libc.a(lib_a-atexit.o)
                0x00049b18                atexit
 .text          0x00049b2c       0x18 c:/altera/12.0/nios2eds/bin/gnu/h-i686-mingw32/bin/../lib/gcc/nios2-elf/4.1.2/../../../../nios2-elf/lib\libc.a(lib_a-atoi.o)
                0x00049b2c                _atoi_r
                0x00049b38                atoi
 .text          0x00049b44       0x1c c:/altera/12.0/nios2eds/bin/gnu/h-i686-mingw32/bin/../lib/gcc/nios2-elf/4.1.2/../../../../nios2-elf/lib\libc.a(lib_a-calloc.o)
                0x00049b44                calloc
 .text          0x00049b60       0x38 c:/altera/12.0/nios2eds/bin/gnu/h-i686-mingw32/bin/../lib/gcc/nios2-elf/4.1.2/../../../../nios2-elf/lib\libc.a(lib_a-exit.o)
                0x00049b60                exit
 .text          0x00049b98      0x128 c:/altera/12.0/nios2eds/bin/gnu/h-i686-mingw32/bin/../lib/gcc/nios2-elf/4.1.2/../../../../nios2-elf/lib\libc.a(lib_a-getc.o)
                0x00049b98                getc
                0x00049c30                _getc_r
 .text          0x00049cc0       0x74 c:/altera/12.0/nios2eds/bin/gnu/h-i686-mingw32/bin/../lib/gcc/nios2-elf/4.1.2/../../../../nios2-elf/lib\libc.a(lib_a-memcmp.o)
                0x00049cc0                memcmp
 .text          0x00049d34       0x60 c:/altera/12.0/nios2eds/bin/gnu/h-i686-mingw32/bin/../lib/gcc/nios2-elf/4.1.2/../../../../nios2-elf/lib\libc.a(lib_a-rget.o)
                0x00049d34                __srget_r
                0x00049d80                __srget
 .text          0x00049d94       0x8c c:/altera/12.0/nios2eds/bin/gnu/h-i686-mingw32/bin/../lib/gcc/nios2-elf/4.1.2/../../../../nios2-elf/lib\libc.a(lib_a-strcpy.o)
                0x00049d94                strcpy
 .text          0x00049e20       0xf0 c:/altera/12.0/nios2eds/bin/gnu/h-i686-mingw32/bin/../lib/gcc/nios2-elf/4.1.2/../../../../nios2-elf/lib\libc.a(lib_a-strncmp.o)
                0x00049e20                strncmp
 .text          0x00049f10      0x268 c:/altera/12.0/nios2eds/bin/gnu/h-i686-mingw32/bin/../lib/gcc/nios2-elf/4.1.2/../../../../nios2-elf/lib\libc.a(lib_a-strtol.o)
                0x00049f10                _strtol_r
                0x0004a154                strtol
 .text          0x0004a178       0x34 c:/altera/12.0/nios2eds/bin/gnu/h-i686-mingw32/bin/../lib/gcc/nios2-elf/4.1.2/../../../../nios2-elf/lib\libc.a(lib_a-vprintf.o)
                0x0004a178                _vprintf_r
                0x0004a18c                vprintf
 .text          0x0004a1ac       0x74 c:/altera/12.0/nios2eds/bin/gnu/h-i686-mingw32/bin/../lib/gcc/nios2-elf/4.1.2/../../../../nios2-elf/lib\libc.a(lib_a-vsprintf.o)
                0x0004a1ac                _vsprintf_r
                0x0004a1fc                vsprintf
 .text          0x0004a220      0x134 c:/altera/12.0/nios2eds/bin/gnu/h-i686-mingw32/bin/../lib/gcc/nios2-elf/4.1.2/../../../../nios2-elf/lib\libc.a(lib_a-__atexit.o)
                0x0004a220                __register_exitproc
 .text          0x0004a354      0x1b4 c:/altera/12.0/nios2eds/bin/gnu/h-i686-mingw32/bin/../lib/gcc/nios2-elf/4.1.2/../../../../nios2-elf/lib\libc.a(lib_a-__call_atexit.o)
                0x0004a358                __call_exitprocs
 .text          0x0004a508      0x1e0 c:/altera/12.0/nios2eds/bin/gnu/h-i686-mingw32/bin/../lib/gcc/nios2-elf/4.1.2/../../../../nios2-elf/lib\libc.a(lib_a-refill.o)
                0x0004a508                __srefill_r
 .text          0x0004a6e8       0x6c ../niosII_simple_socket_server_1_bsp/\libucosii_bsp.a(alt_exit.o)
                0x0004a728                _exit
 *(.gnu.warning.*)
 *(.fini)
                0x0004a754                PROVIDE (__etext, ABSOLUTE (.))
                0x0004a754                PROVIDE (_etext, ABSOLUTE (.))
                0x0004a754                PROVIDE (etext, ABSOLUTE (.))
 *(.eh_frame_hdr)
                0x0004a754                . = ALIGN (0x4)
                0x0004a754                PROVIDE (__preinit_array_start, ABSOLUTE (.))
 *(.preinit_array)
                0x0004a754                PROVIDE (__preinit_array_end, ABSOLUTE (.))
                0x0004a754                PROVIDE (__init_array_start, ABSOLUTE (.))
 *(.init_array)
                0x0004a754                PROVIDE (__init_array_end, ABSOLUTE (.))
                0x0004a754                PROVIDE (__fini_array_start, ABSOLUTE (.))
 *(.fini_array)
                0x0004a754                PROVIDE (__fini_array_end, ABSOLUTE (.))
 *(.eh_frame)
 .eh_frame      0x0004a754       0x40 c:/altera/12.0/nios2eds/bin/gnu/h-i686-mingw32/bin/../lib/gcc/nios2-elf/4.1.2\libgcc.a(_udivdi3.o)
 .eh_frame      0x0004a794       0x2c c:/altera/12.0/nios2eds/bin/gnu/h-i686-mingw32/bin/../lib/gcc/nios2-elf/4.1.2\libgcc.a(_umoddi3.o)
                                 0x40 (size before relaxing)
 *(.gcc_except_table)
 *(.dynamic)
                0x0004a7c0                PROVIDE (__CTOR_LIST__, ABSOLUTE (.))
 *(.ctors)
 *(SORT(.ctors.*))
 .ctors.65535   0x0004a7c0        0x4 c:/altera/12.0/nios2eds/bin/gnu/h-i686-mingw32/bin/../lib/gcc/nios2-elf/4.1.2/../../../../nios2-elf/lib\libc.a(lib_a-__call_atexit.o)
                0x0004a7c4                PROVIDE (__CTOR_END__, ABSOLUTE (.))
                0x0004a7c4                PROVIDE (__DTOR_LIST__, ABSOLUTE (.))
 *(.dtors)
 *(SORT(.dtors.*))
                0x0004a7c4                PROVIDE (__DTOR_END__, ABSOLUTE (.))
 *(.jcr)
                0x0004a7c4                . = ALIGN (0x4)

.rodata         0x0004a7c4     0x71d4
                0x0004a7c4                PROVIDE (__ram_rodata_start, ABSOLUTE (.))
                0x0004a7c4                . = ALIGN (0x4)
 *(.rodata .rodata.* .gnu.linkonce.r.*)
 .rodata        0x0004a7c4       0xa4 obj/SSS_DE2_115.o
 .rodata        0x0004a868      0x1fc obj/alt_eeprom/alt_eeprom.o
 .rodata        0x0004aa64      0xba4 obj/alt_error_handler.o
 .rodata        0x0004b608      0x3f4 obj/iniche_init.o
 .rodata        0x0004b9fc       0x1c obj/led.o
 .rodata        0x0004ba18     0x1150 obj/niosII_simple_socket_server.o
 .rodata        0x0004cb68      0x281 c:/altera/12.0/nios2eds/bin/gnu/h-i686-mingw32/bin/../lib/gcc/nios2-elf/4.1.2/../../../../nios2-elf/lib\libc.a(lib_a-ctype_.o)
                0x0004cb68                _ctype_
 *fill*         0x0004cde9        0x3 00
 .rodata.str1.4
                0x0004cdec        0x2 c:/altera/12.0/nios2eds/bin/gnu/h-i686-mingw32/bin/../lib/gcc/nios2-elf/4.1.2/../../../../nios2-elf/lib\libc.a(lib_a-impure.o)
                                  0x4 (size before relaxing)
 *fill*         0x0004cdee        0x2 00
 .rodata.str1.4
                0x0004cdf0        0x3 c:/altera/12.0/nios2eds/bin/gnu/h-i686-mingw32/bin/../lib/gcc/nios2-elf/4.1.2/../../../../nios2-elf/lib\libc.a(lib_a-perror.o)
                                  0x4 (size before relaxing)
 *fill*         0x0004cdf3        0x1 00
 .rodata.str1.4
                0x0004cdf4        0x2 c:/altera/12.0/nios2eds/bin/gnu/h-i686-mingw32/bin/../lib/gcc/nios2-elf/4.1.2/../../../../nios2-elf/lib\libc.a(lib_a-puts.o)
                                  0x4 (size before relaxing)
 *fill*         0x0004cdf6        0x2 00
 .rodata.str1.4
                0x0004cdf8      0x7a2 c:/altera/12.0/nios2eds/bin/gnu/h-i686-mingw32/bin/../lib/gcc/nios2-elf/4.1.2/../../../../nios2-elf/lib\libc.a(lib_a-strerror.o)
                                0x7a8 (size before relaxing)
 *fill*         0x0004d59a        0x2 00
 .rodata.str1.4
                0x0004d59c       0x5e c:/altera/12.0/nios2eds/bin/gnu/h-i686-mingw32/bin/../lib/gcc/nios2-elf/4.1.2/../../../../nios2-elf/lib\libc.a(lib_a-vfprintf.o)
                                 0x60 (size before relaxing)
 .rodata        0x0004d5fa       0x20 c:/altera/12.0/nios2eds/bin/gnu/h-i686-mingw32/bin/../lib/gcc/nios2-elf/4.1.2/../../../../nios2-elf/lib\libc.a(lib_a-vfprintf.o)
 *fill*         0x0004d61a        0x2 00
 .rodata.str1.4
                0x0004d61c       0x10 c:/altera/12.0/nios2eds/bin/gnu/h-i686-mingw32/bin/../lib/gcc/nios2-elf/4.1.2/../../../../nios2-elf/lib\libc.a(lib_a-dtoa.o)
                                 0x14 (size before relaxing)
 .rodata.str1.4
                0x0004d62c       0x10 c:/altera/12.0/nios2eds/bin/gnu/h-i686-mingw32/bin/../lib/gcc/nios2-elf/4.1.2/../../../../nios2-elf/lib\libc.a(lib_a-locale.o)
                                 0x18 (size before relaxing)
 .rodata        0x0004d63c       0x30 c:/altera/12.0/nios2eds/bin/gnu/h-i686-mingw32/bin/../lib/gcc/nios2-elf/4.1.2/../../../../nios2-elf/lib\libc.a(lib_a-locale.o)
 .rodata        0x0004d66c      0x124 c:/altera/12.0/nios2eds/bin/gnu/h-i686-mingw32/bin/../lib/gcc/nios2-elf/4.1.2/../../../../nios2-elf/lib\libc.a(lib_a-mprec.o)
                0x0004d66c                __mprec_tens
                0x0004d734                __mprec_bigtens
                0x0004d75c                __mprec_tinytens
 .rodata        0x0004d790       0x14 c:/altera/12.0/nios2eds/bin/gnu/h-i686-mingw32/bin/../lib/gcc/nios2-elf/4.1.2\libgcc.a(_thenan_df.o)
                0x0004d790                __thenan_df
 .rodata        0x0004d7a4      0x100 c:/altera/12.0/nios2eds/bin/gnu/h-i686-mingw32/bin/../lib/gcc/nios2-elf/4.1.2\libgcc.a(_clz.o)
                0x0004d7a4                __clz_tab
 .rodata        0x0004d8a4       0x10 ../niosII_simple_socket_server_1_bsp/\libucosii_bsp.a(alt_main.o)
 .rodata        0x0004d8b4      0x120 ../niosII_simple_socket_server_1_bsp/\libucosii_bsp.a(os_core.o)
                0x0004d8b4                OSUnMapTbl
 .rodata        0x0004d9d4       0x68 ../niosII_simple_socket_server_1_bsp/\libucosii_bsp.a(alt_sys_init.o)
 .rodata        0x0004da3c     0x1cc0 ../niosII_simple_socket_server_1_bsp/\libucosii_bsp.a(altera_avalon_tse.o)
 .rodata        0x0004f6fc      0x374 ../niosII_simple_socket_server_1_bsp/\libucosii_bsp.a(ins_tse_mac.o)
 .rodata        0x0004fa70       0xd8 ../niosII_simple_socket_server_1_bsp/\libucosii_bsp.a(ipnet.o)
 .rodata        0x0004fb48       0xec ../niosII_simple_socket_server_1_bsp/\libucosii_bsp.a(ipstart.o)
 .rodata        0x0004fc34      0x54c ../niosII_simple_socket_server_1_bsp/\libucosii_bsp.a(igmp_cmn.o)
 .rodata        0x00050180       0xb8 ../niosII_simple_socket_server_1_bsp/\libucosii_bsp.a(in_utils.o)
 .rodata        0x00050238       0x34 ../niosII_simple_socket_server_1_bsp/\libucosii_bsp.a(netmain.o)
 .rodata        0x0005026c      0x1a8 ../niosII_simple_socket_server_1_bsp/\libucosii_bsp.a(tk_crnos.o)
 .rodata        0x00050414      0x118 ../niosII_simple_socket_server_1_bsp/\libucosii_bsp.a(pktalloc.o)
 .rodata        0x0005052c       0x2c ../niosII_simple_socket_server_1_bsp/\libucosii_bsp.a(brdutils.o)
 .rodata        0x00050558      0x26c ../niosII_simple_socket_server_1_bsp/\libucosii_bsp.a(osportco.o)
 .rodata        0x000507c4       0xa0 ../niosII_simple_socket_server_1_bsp/\libucosii_bsp.a(targnios.o)
 .rodata        0x00050864       0x90 ../niosII_simple_socket_server_1_bsp/\libucosii_bsp.a(nptcp.o)
 .rodata        0x000508f4        0x8 ../niosII_simple_socket_server_1_bsp/\libucosii_bsp.a(sockcall.o)
 .rodata        0x000508fc       0x50 ../niosII_simple_socket_server_1_bsp/\libucosii_bsp.a(socket.o)
 .rodata        0x0005094c       0x40 ../niosII_simple_socket_server_1_bsp/\libucosii_bsp.a(socket2.o)
 .rodata        0x0005098c       0x20 ../niosII_simple_socket_server_1_bsp/\libucosii_bsp.a(tcp_in.o)
 .rodata        0x000509ac       0x40 ../niosII_simple_socket_server_1_bsp/\libucosii_bsp.a(tcp_out.o)
 .rodata        0x000509ec       0x24 ../niosII_simple_socket_server_1_bsp/\libucosii_bsp.a(tcp_subr.o)
 .rodata        0x00050a10       0x2c ../niosII_simple_socket_server_1_bsp/\libucosii_bsp.a(tcp_usr.o)
 .rodata        0x00050a3c        0xc ../niosII_simple_socket_server_1_bsp/\libucosii_bsp.a(alt_dev.o)
 .rodata        0x00050a48        0x4 ../niosII_simple_socket_server_1_bsp/\libucosii_bsp.a(os_cpu_c.o)
 .rodata        0x00050a4c      0x1d4 ../niosII_simple_socket_server_1_bsp/\libucosii_bsp.a(allports.o)
 .rodata        0x00050c20       0x34 ../niosII_simple_socket_server_1_bsp/\libucosii_bsp.a(tk_misc.o)
 .rodata        0x00050c54       0x44 ../niosII_simple_socket_server_1_bsp/\libucosii_bsp.a(et_arp.o)
 .rodata        0x00050c98      0x1dc ../niosII_simple_socket_server_1_bsp/\libucosii_bsp.a(ip.o)
 .rodata        0x00050e74      0x158 ../niosII_simple_socket_server_1_bsp/\libucosii_bsp.a(ip_reasm.o)
 .rodata        0x00050fcc      0x120 ../niosII_simple_socket_server_1_bsp/\libucosii_bsp.a(ipdemux.o)
 .rodata        0x000510ec       0x34 ../niosII_simple_socket_server_1_bsp/\libucosii_bsp.a(ipport.o)
 .rodata        0x00051120       0x24 ../niosII_simple_socket_server_1_bsp/\libucosii_bsp.a(ipraw.o)
 .rodata        0x00051144       0x38 ../niosII_simple_socket_server_1_bsp/\libucosii_bsp.a(iproute.o)
 .rodata        0x0005117c       0xe8 ../niosII_simple_socket_server_1_bsp/\libucosii_bsp.a(udp.o)
 .rodata        0x00051264      0x2d0 ../niosII_simple_socket_server_1_bsp/\libucosii_bsp.a(u_mctest.o)
 .rodata        0x00051534       0x94 ../niosII_simple_socket_server_1_bsp/\libucosii_bsp.a(parseip.o)
 .rodata        0x000515c8       0x84 ../niosII_simple_socket_server_1_bsp/\libucosii_bsp.a(udp_open.o)
 .rodata        0x0005164c       0x34 ../niosII_simple_socket_server_1_bsp/\libucosii_bsp.a(vfsfiles.o)
 .rodata        0x00051680      0x318 ../niosII_simple_socket_server_1_bsp/\libucosii_bsp.a(icmp.o)
 *(.rodata1)
                0x00051998                . = ALIGN (0x4)
                0x00051998                PROVIDE (__ram_rodata_end, ABSOLUTE (.))
                0x0004a7c4                PROVIDE (__flash_rodata_start, LOADADDR (.rodata))

.rwdata         0x00051998     0x2268 load address 0x00053c00
                0x00051998                PROVIDE (__ram_rwdata_start, ABSOLUTE (.))
                0x00051998                . = ALIGN (0x4)
 *(.got.plt)
 *(.got)
 *(.data1)
 *(.data .data.* .gnu.linkonce.d.*)
 .data          0x00051998        0x0 ../niosII_simple_socket_server_1_bsp//obj/HAL/src/crt0.o
 .data          0x00051998        0x0 obj/SSS_DE2_115.o
 .data          0x00051998        0x0 obj/alt_eeprom/alt_2_wire.o
 .data          0x00051998        0x0 obj/alt_eeprom/alt_eeprom.o
 .data          0x00051998        0x0 obj/alt_error_handler.o
 .data          0x00051998       0x78 obj/iniche_init.o
                0x00051998                devices
                0x000519c8                ssstask
                0x000519e0                sssphytask
                0x000519f8                ssspenetask
 .data          0x00051a10        0x0 obj/led.o
 .data          0x00051a10      0x120 obj/niosII_simple_socket_server.o
                0x00051a10                tse_mac_device
 .data          0x00051b30        0x0 c:/altera/12.0/nios2eds/bin/gnu/h-i686-mingw32/bin/../lib/gcc/nios2-elf/4.1.2\libgcc.a(lib2-divmod.o)
 .data          0x00051b30        0x0 c:/altera/12.0/nios2eds/bin/gnu/h-i686-mingw32/bin/../lib/gcc/nios2-elf/4.1.2/../../../../nios2-elf/lib\libc.a(lib_a-ctype_.o)
 .data          0x00051b30        0x0 c:/altera/12.0/nios2eds/bin/gnu/h-i686-mingw32/bin/../lib/gcc/nios2-elf/4.1.2/../../../../nios2-elf/lib\libc.a(lib_a-fprintf.o)
 .data          0x00051b30        0x0 c:/altera/12.0/nios2eds/bin/gnu/h-i686-mingw32/bin/../lib/gcc/nios2-elf/4.1.2/../../../../nios2-elf/lib\libc.a(lib_a-fwrite.o)
 .data          0x00051b30      0x400 c:/altera/12.0/nios2eds/bin/gnu/h-i686-mingw32/bin/../lib/gcc/nios2-elf/4.1.2/../../../../nios2-elf/lib\libc.a(lib_a-impure.o)
 .data          0x00051f30        0x0 c:/altera/12.0/nios2eds/bin/gnu/h-i686-mingw32/bin/../lib/gcc/nios2-elf/4.1.2/../../../../nios2-elf/lib\libc.a(lib_a-malloc.o)
 .data          0x00051f30      0x408 c:/altera/12.0/nios2eds/bin/gnu/h-i686-mingw32/bin/../lib/gcc/nios2-elf/4.1.2/../../../../nios2-elf/lib\libc.a(lib_a-mallocr.o)
                0x00051f30                __malloc_av_
 .data          0x00052338        0x0 c:/altera/12.0/nios2eds/bin/gnu/h-i686-mingw32/bin/../lib/gcc/nios2-elf/4.1.2/../../../../nios2-elf/lib\libc.a(lib_a-memcpy.o)
 .data          0x00052338        0x0 c:/altera/12.0/nios2eds/bin/gnu/h-i686-mingw32/bin/../lib/gcc/nios2-elf/4.1.2/../../../../nios2-elf/lib\libc.a(lib_a-memmove.o)
 .data          0x00052338        0x0 c:/altera/12.0/nios2eds/bin/gnu/h-i686-mingw32/bin/../lib/gcc/nios2-elf/4.1.2/../../../../nios2-elf/lib\libc.a(lib_a-memset.o)
 .data          0x00052338        0x0 c:/altera/12.0/nios2eds/bin/gnu/h-i686-mingw32/bin/../lib/gcc/nios2-elf/4.1.2/../../../../nios2-elf/lib\libc.a(lib_a-perror.o)
 .data          0x00052338        0x0 c:/altera/12.0/nios2eds/bin/gnu/h-i686-mingw32/bin/../lib/gcc/nios2-elf/4.1.2/../../../../nios2-elf/lib\libc.a(lib_a-printf.o)
 .data          0x00052338        0x0 c:/altera/12.0/nios2eds/bin/gnu/h-i686-mingw32/bin/../lib/gcc/nios2-elf/4.1.2/../../../../nios2-elf/lib\libc.a(lib_a-putchar.o)
 .data          0x00052338        0x0 c:/altera/12.0/nios2eds/bin/gnu/h-i686-mingw32/bin/../lib/gcc/nios2-elf/4.1.2/../../../../nios2-elf/lib\libc.a(lib_a-puts.o)
 .data          0x00052338        0x0 c:/altera/12.0/nios2eds/bin/gnu/h-i686-mingw32/bin/../lib/gcc/nios2-elf/4.1.2/../../../../nios2-elf/lib\libc.a(lib_a-sbrkr.o)
 .data          0x00052338        0x0 c:/altera/12.0/nios2eds/bin/gnu/h-i686-mingw32/bin/../lib/gcc/nios2-elf/4.1.2/../../../../nios2-elf/lib\libc.a(lib_a-sprintf.o)
 .data          0x00052338        0x0 c:/altera/12.0/nios2eds/bin/gnu/h-i686-mingw32/bin/../lib/gcc/nios2-elf/4.1.2/../../../../nios2-elf/lib\libc.a(lib_a-strchr.o)
 .data          0x00052338        0x0 c:/altera/12.0/nios2eds/bin/gnu/h-i686-mingw32/bin/../lib/gcc/nios2-elf/4.1.2/../../../../nios2-elf/lib\libc.a(lib_a-strerror.o)
 .data          0x00052338        0x0 c:/altera/12.0/nios2eds/bin/gnu/h-i686-mingw32/bin/../lib/gcc/nios2-elf/4.1.2/../../../../nios2-elf/lib\libc.a(lib_a-strlen.o)
 .data          0x00052338        0x0 c:/altera/12.0/nios2eds/bin/gnu/h-i686-mingw32/bin/../lib/gcc/nios2-elf/4.1.2/../../../../nios2-elf/lib\libc.a(lib_a-u_strerr.o)
 .data          0x00052338        0x0 c:/altera/12.0/nios2eds/bin/gnu/h-i686-mingw32/bin/../lib/gcc/nios2-elf/4.1.2/../../../../nios2-elf/lib\libc.a(lib_a-vfprintf.o)
 .data          0x00052338        0x0 c:/altera/12.0/nios2eds/bin/gnu/h-i686-mingw32/bin/../lib/gcc/nios2-elf/4.1.2/../../../../nios2-elf/lib\libc.a(lib_a-wsetup.o)
 .data          0x00052338        0x0 c:/altera/12.0/nios2eds/bin/gnu/h-i686-mingw32/bin/../lib/gcc/nios2-elf/4.1.2/../../../../nios2-elf/lib\libc.a(lib_a-dtoa.o)
 .data          0x00052338        0x0 c:/altera/12.0/nios2eds/bin/gnu/h-i686-mingw32/bin/../lib/gcc/nios2-elf/4.1.2/../../../../nios2-elf/lib\libc.a(lib_a-fflush.o)
 .data          0x00052338        0x0 c:/altera/12.0/nios2eds/bin/gnu/h-i686-mingw32/bin/../lib/gcc/nios2-elf/4.1.2/../../../../nios2-elf/lib\libc.a(lib_a-findfp.o)
 .data          0x00052338        0x0 c:/altera/12.0/nios2eds/bin/gnu/h-i686-mingw32/bin/../lib/gcc/nios2-elf/4.1.2/../../../../nios2-elf/lib\libc.a(lib_a-fputc.o)
 .data          0x00052338        0x0 c:/altera/12.0/nios2eds/bin/gnu/h-i686-mingw32/bin/../lib/gcc/nios2-elf/4.1.2/../../../../nios2-elf/lib\libc.a(lib_a-fputs.o)
 .data          0x00052338        0x0 c:/altera/12.0/nios2eds/bin/gnu/h-i686-mingw32/bin/../lib/gcc/nios2-elf/4.1.2/../../../../nios2-elf/lib\libc.a(lib_a-freer.o)
 .data          0x00052338        0x0 c:/altera/12.0/nios2eds/bin/gnu/h-i686-mingw32/bin/../lib/gcc/nios2-elf/4.1.2/../../../../nios2-elf/lib\libc.a(lib_a-fvwrite.o)
 .data          0x00052338        0x0 c:/altera/12.0/nios2eds/bin/gnu/h-i686-mingw32/bin/../lib/gcc/nios2-elf/4.1.2/../../../../nios2-elf/lib\libc.a(lib_a-fwalk.o)
 .data          0x00052338        0x0 c:/altera/12.0/nios2eds/bin/gnu/h-i686-mingw32/bin/../lib/gcc/nios2-elf/4.1.2/../../../../nios2-elf/lib\libc.a(lib_a-int_errno.o)
 .data          0x00052338        0xc c:/altera/12.0/nios2eds/bin/gnu/h-i686-mingw32/bin/../lib/gcc/nios2-elf/4.1.2/../../../../nios2-elf/lib\libc.a(lib_a-locale.o)
                0x00052338                __lc_ctype
 .data          0x00052344        0x0 c:/altera/12.0/nios2eds/bin/gnu/h-i686-mingw32/bin/../lib/gcc/nios2-elf/4.1.2/../../../../nios2-elf/lib\libc.a(lib_a-makebuf.o)
 .data          0x00052344        0x0 c:/altera/12.0/nios2eds/bin/gnu/h-i686-mingw32/bin/../lib/gcc/nios2-elf/4.1.2/../../../../nios2-elf/lib\libc.a(lib_a-memchr.o)
 .data          0x00052344        0x0 c:/altera/12.0/nios2eds/bin/gnu/h-i686-mingw32/bin/../lib/gcc/nios2-elf/4.1.2/../../../../nios2-elf/lib\libc.a(lib_a-mprec.o)
 .data          0x00052344        0x0 c:/altera/12.0/nios2eds/bin/gnu/h-i686-mingw32/bin/../lib/gcc/nios2-elf/4.1.2/../../../../nios2-elf/lib\libc.a(lib_a-putc.o)
 .data          0x00052344        0x0 c:/altera/12.0/nios2eds/bin/gnu/h-i686-mingw32/bin/../lib/gcc/nios2-elf/4.1.2/../../../../nios2-elf/lib\libc.a(lib_a-reallocr.o)
 .data          0x00052344        0x0 c:/altera/12.0/nios2eds/bin/gnu/h-i686-mingw32/bin/../lib/gcc/nios2-elf/4.1.2/../../../../nios2-elf/lib\libc.a(lib_a-s_isinfd.o)
 .data          0x00052344        0x0 c:/altera/12.0/nios2eds/bin/gnu/h-i686-mingw32/bin/../lib/gcc/nios2-elf/4.1.2/../../../../nios2-elf/lib\libc.a(lib_a-s_isnand.o)
 .data          0x00052344        0x0 c:/altera/12.0/nios2eds/bin/gnu/h-i686-mingw32/bin/../lib/gcc/nios2-elf/4.1.2/../../../../nios2-elf/lib\libc.a(lib_a-stdio.o)
 .data          0x00052344        0x0 c:/altera/12.0/nios2eds/bin/gnu/h-i686-mingw32/bin/../lib/gcc/nios2-elf/4.1.2/../../../../nios2-elf/lib\libc.a(lib_a-strcmp.o)
 .data          0x00052344        0x0 c:/altera/12.0/nios2eds/bin/gnu/h-i686-mingw32/bin/../lib/gcc/nios2-elf/4.1.2/../../../../nios2-elf/lib\libc.a(lib_a-wbuf.o)
 .data          0x00052344        0x0 c:/altera/12.0/nios2eds/bin/gnu/h-i686-mingw32/bin/../lib/gcc/nios2-elf/4.1.2/../../../../nios2-elf/lib\libc.a(lib_a-writer.o)
 .data          0x00052344        0x0 c:/altera/12.0/nios2eds/bin/gnu/h-i686-mingw32/bin/../lib/gcc/nios2-elf/4.1.2/../../../../nios2-elf/lib\libc.a(lib_a-callocr.o)
 .data          0x00052344        0x0 c:/altera/12.0/nios2eds/bin/gnu/h-i686-mingw32/bin/../lib/gcc/nios2-elf/4.1.2/../../../../nios2-elf/lib\libc.a(lib_a-closer.o)
 .data          0x00052344        0x0 c:/altera/12.0/nios2eds/bin/gnu/h-i686-mingw32/bin/../lib/gcc/nios2-elf/4.1.2/../../../../nios2-elf/lib\libc.a(lib_a-fclose.o)
 .data          0x00052344        0x0 c:/altera/12.0/nios2eds/bin/gnu/h-i686-mingw32/bin/../lib/gcc/nios2-elf/4.1.2/../../../../nios2-elf/lib\libc.a(lib_a-fstatr.o)
 .data          0x00052344        0x0 c:/altera/12.0/nios2eds/bin/gnu/h-i686-mingw32/bin/../lib/gcc/nios2-elf/4.1.2/../../../../nios2-elf/lib\libc.a(lib_a-isattyr.o)
 .data          0x00052344        0x0 c:/altera/12.0/nios2eds/bin/gnu/h-i686-mingw32/bin/../lib/gcc/nios2-elf/4.1.2/../../../../nios2-elf/lib\libc.a(lib_a-lseekr.o)
 .data          0x00052344        0x0 c:/altera/12.0/nios2eds/bin/gnu/h-i686-mingw32/bin/../lib/gcc/nios2-elf/4.1.2/../../../../nios2-elf/lib\libc.a(lib_a-readr.o)
 .data          0x00052344        0x0 c:/altera/12.0/nios2eds/bin/gnu/h-i686-mingw32/bin/../lib/gcc/nios2-elf/4.1.2\libgcc.a(_udivdi3.o)
 .data          0x00052344        0x0 c:/altera/12.0/nios2eds/bin/gnu/h-i686-mingw32/bin/../lib/gcc/nios2-elf/4.1.2\libgcc.a(_umoddi3.o)
 .data          0x00052344        0x0 c:/altera/12.0/nios2eds/bin/gnu/h-i686-mingw32/bin/../lib/gcc/nios2-elf/4.1.2\libgcc.a(_addsub_df.o)
 .data          0x00052344        0x0 c:/altera/12.0/nios2eds/bin/gnu/h-i686-mingw32/bin/../lib/gcc/nios2-elf/4.1.2\libgcc.a(_mul_df.o)
 .data          0x00052344        0x0 c:/altera/12.0/nios2eds/bin/gnu/h-i686-mingw32/bin/../lib/gcc/nios2-elf/4.1.2\libgcc.a(_div_df.o)
 .data          0x00052344        0x0 c:/altera/12.0/nios2eds/bin/gnu/h-i686-mingw32/bin/../lib/gcc/nios2-elf/4.1.2\libgcc.a(_eq_df.o)
 .data          0x00052344        0x0 c:/altera/12.0/nios2eds/bin/gnu/h-i686-mingw32/bin/../lib/gcc/nios2-elf/4.1.2\libgcc.a(_ne_df.o)
 .data          0x00052344        0x0 c:/altera/12.0/nios2eds/bin/gnu/h-i686-mingw32/bin/../lib/gcc/nios2-elf/4.1.2\libgcc.a(_gt_df.o)
 .data          0x00052344        0x0 c:/altera/12.0/nios2eds/bin/gnu/h-i686-mingw32/bin/../lib/gcc/nios2-elf/4.1.2\libgcc.a(_ge_df.o)
 .data          0x00052344        0x0 c:/altera/12.0/nios2eds/bin/gnu/h-i686-mingw32/bin/../lib/gcc/nios2-elf/4.1.2\libgcc.a(_lt_df.o)
 .data          0x00052344        0x0 c:/altera/12.0/nios2eds/bin/gnu/h-i686-mingw32/bin/../lib/gcc/nios2-elf/4.1.2\libgcc.a(_si_to_df.o)
 .data          0x00052344        0x0 c:/altera/12.0/nios2eds/bin/gnu/h-i686-mingw32/bin/../lib/gcc/nios2-elf/4.1.2\libgcc.a(_df_to_si.o)
 .data          0x00052344        0x0 c:/altera/12.0/nios2eds/bin/gnu/h-i686-mingw32/bin/../lib/gcc/nios2-elf/4.1.2\libgcc.a(_thenan_df.o)
 .data          0x00052344        0x0 c:/altera/12.0/nios2eds/bin/gnu/h-i686-mingw32/bin/../lib/gcc/nios2-elf/4.1.2\libgcc.a(_usi_to_df.o)
 .data          0x00052344        0x0 c:/altera/12.0/nios2eds/bin/gnu/h-i686-mingw32/bin/../lib/gcc/nios2-elf/4.1.2\libgcc.a(_muldi3.o)
 .data          0x00052344        0x0 c:/altera/12.0/nios2eds/bin/gnu/h-i686-mingw32/bin/../lib/gcc/nios2-elf/4.1.2\libgcc.a(_clz.o)
 .data          0x00052344        0x0 c:/altera/12.0/nios2eds/bin/gnu/h-i686-mingw32/bin/../lib/gcc/nios2-elf/4.1.2\libgcc.a(_clzsi2.o)
 .data          0x00052344        0x0 c:/altera/12.0/nios2eds/bin/gnu/h-i686-mingw32/bin/../lib/gcc/nios2-elf/4.1.2\libgcc.a(_pack_df.o)
 .data          0x00052344        0x0 c:/altera/12.0/nios2eds/bin/gnu/h-i686-mingw32/bin/../lib/gcc/nios2-elf/4.1.2\libgcc.a(_unpack_df.o)
 .data          0x00052344        0x0 c:/altera/12.0/nios2eds/bin/gnu/h-i686-mingw32/bin/../lib/gcc/nios2-elf/4.1.2\libgcc.a(_fpcmp_parts_df.o)
 .data          0x00052344        0x0 ../niosII_simple_socket_server_1_bsp/\libucosii_bsp.a(alt_flash_dev.o)
 .data          0x00052344        0x0 ../niosII_simple_socket_server_1_bsp/\libucosii_bsp.a(alt_fstat.o)
 .data          0x00052344        0x0 ../niosII_simple_socket_server_1_bsp/\libucosii_bsp.a(alt_isatty.o)
 .data          0x00052344        0x0 ../niosII_simple_socket_server_1_bsp/\libucosii_bsp.a(alt_load.o)
 .data          0x00052344        0x0 ../niosII_simple_socket_server_1_bsp/\libucosii_bsp.a(alt_lseek.o)
 .data          0x00052344        0x0 ../niosII_simple_socket_server_1_bsp/\libucosii_bsp.a(alt_main.o)
 .data          0x00052344        0x0 ../niosII_simple_socket_server_1_bsp/\libucosii_bsp.a(alt_sbrk.o)
 .data          0x00052344        0x0 ../niosII_simple_socket_server_1_bsp/\libucosii_bsp.a(alt_usleep.o)
 .data          0x00052344        0x0 ../niosII_simple_socket_server_1_bsp/\libucosii_bsp.a(alt_env_lock.o)
 .data          0x00052344        0x0 ../niosII_simple_socket_server_1_bsp/\libucosii_bsp.a(alt_malloc_lock.o)
 .data          0x00052344        0x0 ../niosII_simple_socket_server_1_bsp/\libucosii_bsp.a(os_core.o)
 .data          0x00052344        0x0 ../niosII_simple_socket_server_1_bsp/\libucosii_bsp.a(os_dbg.o)
 .data          0x00052344        0x0 ../niosII_simple_socket_server_1_bsp/\libucosii_bsp.a(os_flag.o)
 .data          0x00052344        0x0 ../niosII_simple_socket_server_1_bsp/\libucosii_bsp.a(os_mbox.o)
 .data          0x00052344        0x0 ../niosII_simple_socket_server_1_bsp/\libucosii_bsp.a(os_mem.o)
 .data          0x00052344        0x0 ../niosII_simple_socket_server_1_bsp/\libucosii_bsp.a(os_q.o)
 .data          0x00052344        0x0 ../niosII_simple_socket_server_1_bsp/\libucosii_bsp.a(os_sem.o)
 .data          0x00052344        0x0 ../niosII_simple_socket_server_1_bsp/\libucosii_bsp.a(os_task.o)
 .data          0x00052344        0x0 ../niosII_simple_socket_server_1_bsp/\libucosii_bsp.a(os_time.o)
 .data          0x00052344     0x1398 ../niosII_simple_socket_server_1_bsp/\libucosii_bsp.a(alt_sys_init.o)
 .data          0x000536dc        0x0 ../niosII_simple_socket_server_1_bsp/\libucosii_bsp.a(altera_avalon_cfi_flash.o)
 .data          0x000536dc        0x0 ../niosII_simple_socket_server_1_bsp/\libucosii_bsp.a(altera_avalon_cfi_flash_table.o)
 .data          0x000536dc        0x0 ../niosII_simple_socket_server_1_bsp/\libucosii_bsp.a(altera_avalon_jtag_uart_fd.o)
 .data          0x000536dc        0x0 ../niosII_simple_socket_server_1_bsp/\libucosii_bsp.a(altera_avalon_jtag_uart_init.o)
 .data          0x000536dc        0x0 ../niosII_simple_socket_server_1_bsp/\libucosii_bsp.a(altera_avalon_jtag_uart_ioctl.o)
 .data          0x000536dc        0x0 ../niosII_simple_socket_server_1_bsp/\libucosii_bsp.a(altera_avalon_jtag_uart_read.o)
 .data          0x000536dc        0x0 ../niosII_simple_socket_server_1_bsp/\libucosii_bsp.a(altera_avalon_jtag_uart_write.o)
 .data          0x000536dc        0x0 ../niosII_simple_socket_server_1_bsp/\libucosii_bsp.a(altera_avalon_lcd_16207.o)
 .data          0x000536dc        0x0 ../niosII_simple_socket_server_1_bsp/\libucosii_bsp.a(altera_avalon_lcd_16207_fd.o)
 .data          0x000536dc        0x0 ../niosII_simple_socket_server_1_bsp/\libucosii_bsp.a(altera_avalon_sgdma.o)
 .data          0x000536dc        0x0 ../niosII_simple_socket_server_1_bsp/\libucosii_bsp.a(altera_avalon_timer_sc.o)
 .data          0x000536dc        0x0 ../niosII_simple_socket_server_1_bsp/\libucosii_bsp.a(altera_avalon_tse.o)
 .data          0x000536dc        0x0 ../niosII_simple_socket_server_1_bsp/\libucosii_bsp.a(altera_avalon_uart_fd.o)
 .data          0x000536dc        0x0 ../niosII_simple_socket_server_1_bsp/\libucosii_bsp.a(altera_avalon_uart_init.o)
 .data          0x000536dc        0x0 ../niosII_simple_socket_server_1_bsp/\libucosii_bsp.a(altera_avalon_uart_read.o)
 .data          0x000536dc        0x0 ../niosII_simple_socket_server_1_bsp/\libucosii_bsp.a(altera_avalon_uart_write.o)
 .data          0x000536dc        0x0 ../niosII_simple_socket_server_1_bsp/\libucosii_bsp.a(ins_tse_mac.o)
 .data          0x000536dc        0x0 ../niosII_simple_socket_server_1_bsp/\libucosii_bsp.a(alt_iniche_close.o)
 .data          0x000536dc        0x0 ../niosII_simple_socket_server_1_bsp/\libucosii_bsp.a(alt_iniche_dev.o)
 .data          0x000536dc        0x0 ../niosII_simple_socket_server_1_bsp/\libucosii_bsp.a(alt_iniche_read.o)
 .data          0x000536dc        0x0 ../niosII_simple_socket_server_1_bsp/\libucosii_bsp.a(alt_iniche_write.o)
 .data          0x000536dc        0x0 ../niosII_simple_socket_server_1_bsp/\libucosii_bsp.a(ipnet.o)
 .data          0x000536dc        0x0 ../niosII_simple_socket_server_1_bsp/\libucosii_bsp.a(ipstart.o)
 .data          0x000536dc        0x0 ../niosII_simple_socket_server_1_bsp/\libucosii_bsp.a(igmp_cmn.o)
 .data          0x000536dc        0x0 ../niosII_simple_socket_server_1_bsp/\libucosii_bsp.a(bsdsock.o)
 .data          0x000536dc        0x0 ../niosII_simple_socket_server_1_bsp/\libucosii_bsp.a(cksum.o)
 .data          0x000536dc        0x0 ../niosII_simple_socket_server_1_bsp/\libucosii_bsp.a(in_utils.o)
 .data          0x000536dc       0x30 ../niosII_simple_socket_server_1_bsp/\libucosii_bsp.a(netmain.o)
                0x000536dc                nettasks
 .data          0x0005370c        0x0 ../niosII_simple_socket_server_1_bsp/\libucosii_bsp.a(tk_crnos.o)
 .data          0x0005370c        0x0 ../niosII_simple_socket_server_1_bsp/\libucosii_bsp.a(pktalloc.o)
 .data          0x0005370c        0x0 ../niosII_simple_socket_server_1_bsp/\libucosii_bsp.a(q.o)
 .data          0x0005370c        0x0 ../niosII_simple_socket_server_1_bsp/\libucosii_bsp.a(asm_cksum.o)
 .data          0x0005370c        0x0 ../niosII_simple_socket_server_1_bsp/\libucosii_bsp.a(brdutils.o)
 .data          0x0005370c        0x0 ../niosII_simple_socket_server_1_bsp/\libucosii_bsp.a(osportco.o)
 .data          0x0005370c        0x0 ../niosII_simple_socket_server_1_bsp/\libucosii_bsp.a(targnios.o)
 .data          0x0005370c       0x48 ../niosII_simple_socket_server_1_bsp/\libucosii_bsp.a(nptcp.o)
                0x0005370c                tcp_protosw
                0x00053724                udp_protosw
                0x0005373c                rawip_protosw
 .data          0x00053754        0x0 ../niosII_simple_socket_server_1_bsp/\libucosii_bsp.a(rawsock.o)
 .data          0x00053754        0x0 ../niosII_simple_socket_server_1_bsp/\libucosii_bsp.a(sockcall.o)
 .data          0x00053754        0x0 ../niosII_simple_socket_server_1_bsp/\libucosii_bsp.a(socket.o)
 .data          0x00053754        0x0 ../niosII_simple_socket_server_1_bsp/\libucosii_bsp.a(socket2.o)
 .data          0x00053754        0x0 ../niosII_simple_socket_server_1_bsp/\libucosii_bsp.a(soselect.o)
 .data          0x00053754        0x0 ../niosII_simple_socket_server_1_bsp/\libucosii_bsp.a(tcp_in.o)
 .data          0x00053754        0xb ../niosII_simple_socket_server_1_bsp/\libucosii_bsp.a(tcp_out.o)
                0x00053754                tcp_outflags
 .data          0x0005375f        0x0 ../niosII_simple_socket_server_1_bsp/\libucosii_bsp.a(tcp_subr.o)
 .data          0x0005375f        0xd ../niosII_simple_socket_server_1_bsp/\libucosii_bsp.a(tcp_timr.o)
                0x0005375f                tcp_backoff
 .data          0x0005376c        0x0 ../niosII_simple_socket_server_1_bsp/\libucosii_bsp.a(tcp_usr.o)
 .data          0x0005376c        0x0 ../niosII_simple_socket_server_1_bsp/\libucosii_bsp.a(tcp_zio.o)
 .data          0x0005376c        0x0 ../niosII_simple_socket_server_1_bsp/\libucosii_bsp.a(tcpport.o)
 .data          0x0005376c        0x0 ../niosII_simple_socket_server_1_bsp/\libucosii_bsp.a(udpsock.o)
 .data          0x0005376c        0x0 ../niosII_simple_socket_server_1_bsp/\libucosii_bsp.a(alt_alarm_start.o)
 .data          0x0005376c        0x0 ../niosII_simple_socket_server_1_bsp/\libucosii_bsp.a(alt_busy_sleep.o)
 .data          0x0005376c        0x0 ../niosII_simple_socket_server_1_bsp/\libucosii_bsp.a(alt_close.o)
 .data          0x0005376c        0x0 ../niosII_simple_socket_server_1_bsp/\libucosii_bsp.a(alt_dcache_flush.o)
 .data          0x0005376c        0x0 ../niosII_simple_socket_server_1_bsp/\libucosii_bsp.a(alt_dcache_flush_all.o)
 .data          0x0005376c      0x1a8 ../niosII_simple_socket_server_1_bsp/\libucosii_bsp.a(alt_dev.o)
                0x0005376c                alt_dev_null
                0x00053794                alt_fd_list
 .data          0x00053914        0x0 ../niosII_simple_socket_server_1_bsp/\libucosii_bsp.a(alt_dev_llist_insert.o)
 .data          0x00053914        0x0 ../niosII_simple_socket_server_1_bsp/\libucosii_bsp.a(alt_do_ctors.o)
 .data          0x00053914        0x0 ../niosII_simple_socket_server_1_bsp/\libucosii_bsp.a(alt_do_dtors.o)
 .data          0x00053914        0x0 ../niosII_simple_socket_server_1_bsp/\libucosii_bsp.a(alt_errno.o)
 .data          0x00053914        0x0 ../niosII_simple_socket_server_1_bsp/\libucosii_bsp.a(alt_find_dev.o)
 .data          0x00053914        0x0 ../niosII_simple_socket_server_1_bsp/\libucosii_bsp.a(alt_icache_flush_all.o)
 .data          0x00053914        0x0 ../niosII_simple_socket_server_1_bsp/\libucosii_bsp.a(alt_iic.o)
 .data          0x00053914        0x0 ../niosII_simple_socket_server_1_bsp/\libucosii_bsp.a(alt_iic_isr_register.o)
 .data          0x00053914        0x0 ../niosII_simple_socket_server_1_bsp/\libucosii_bsp.a(alt_io_redirect.o)
 .data          0x00053914        0x0 ../niosII_simple_socket_server_1_bsp/\libucosii_bsp.a(alt_irq_entry.o)
 .data          0x00053914        0x0 ../niosII_simple_socket_server_1_bsp/\libucosii_bsp.a(alt_irq_handler.o)
 .data          0x00053914        0x0 ../niosII_simple_socket_server_1_bsp/\libucosii_bsp.a(alt_irq_vars.o)
 .data          0x00053914        0x0 ../niosII_simple_socket_server_1_bsp/\libucosii_bsp.a(alt_open.o)
 .data          0x00053914        0x0 ../niosII_simple_socket_server_1_bsp/\libucosii_bsp.a(alt_read.o)
 .data          0x00053914        0x0 ../niosII_simple_socket_server_1_bsp/\libucosii_bsp.a(alt_release_fd.o)
 .data          0x00053914        0x0 ../niosII_simple_socket_server_1_bsp/\libucosii_bsp.a(alt_remap_cached.o)
 .data          0x00053914        0x0 ../niosII_simple_socket_server_1_bsp/\libucosii_bsp.a(alt_remap_uncached.o)
 .data          0x00053914        0x0 ../niosII_simple_socket_server_1_bsp/\libucosii_bsp.a(alt_tick.o)
 .data          0x00053914        0x0 ../niosII_simple_socket_server_1_bsp/\libucosii_bsp.a(alt_uncached_malloc.o)
 .data          0x00053914        0x0 ../niosII_simple_socket_server_1_bsp/\libucosii_bsp.a(alt_write.o)
 .data          0x00053914        0x0 ../niosII_simple_socket_server_1_bsp/\libucosii_bsp.a(altera_nios2_irq.o)
 .data          0x00053914        0x0 ../niosII_simple_socket_server_1_bsp/\libucosii_bsp.a(os_cpu_a.o)
 .data          0x00053914        0x0 ../niosII_simple_socket_server_1_bsp/\libucosii_bsp.a(os_cpu_c.o)
 .data          0x00053914        0x0 ../niosII_simple_socket_server_1_bsp/\libucosii_bsp.a(altera_avalon_cfi_flash_amd.o)
 .data          0x00053914        0x0 ../niosII_simple_socket_server_1_bsp/\libucosii_bsp.a(altera_avalon_cfi_flash_intel.o)
 .data          0x00053914       0x18 ../niosII_simple_socket_server_1_bsp/\libucosii_bsp.a(allports.o)
                0x00053914                icmpdu_types
 .data          0x0005392c        0x0 ../niosII_simple_socket_server_1_bsp/\libucosii_bsp.a(timeouts.o)
 .data          0x0005392c        0x0 ../niosII_simple_socket_server_1_bsp/\libucosii_bsp.a(tk_misc.o)
 .data          0x0005392c        0x0 ../niosII_simple_socket_server_1_bsp/\libucosii_bsp.a(alt_iniche_fcntl.o)
 .data          0x0005392c        0x0 ../niosII_simple_socket_server_1_bsp/\libucosii_bsp.a(et_arp.o)
 .data          0x0005392c        0x0 ../niosII_simple_socket_server_1_bsp/\libucosii_bsp.a(iface.o)
 .data          0x0005392c        0x0 ../niosII_simple_socket_server_1_bsp/\libucosii_bsp.a(ip.o)
 .data          0x0005392c        0x0 ../niosII_simple_socket_server_1_bsp/\libucosii_bsp.a(ip_reasm.o)
 .data          0x0005392c        0x0 ../niosII_simple_socket_server_1_bsp/\libucosii_bsp.a(ipdemux.o)
 .data          0x0005392c        0x0 ../niosII_simple_socket_server_1_bsp/\libucosii_bsp.a(ipmc.o)
 .data          0x0005392c        0x0 ../niosII_simple_socket_server_1_bsp/\libucosii_bsp.a(ipport.o)
 .data          0x0005392c        0x0 ../niosII_simple_socket_server_1_bsp/\libucosii_bsp.a(ipraw.o)
 .data          0x0005392c        0x9 ../niosII_simple_socket_server_1_bsp/\libucosii_bsp.a(iproute.o)
                0x0005392c                rtp_priority
 .data          0x00053935        0x0 ../niosII_simple_socket_server_1_bsp/\libucosii_bsp.a(udp.o)
 .data          0x00053935        0x0 ../niosII_simple_socket_server_1_bsp/\libucosii_bsp.a(igmp.o)
 .data          0x00053935        0x0 ../niosII_simple_socket_server_1_bsp/\libucosii_bsp.a(igmp2.o)
 .data          0x00053935        0x0 ../niosII_simple_socket_server_1_bsp/\libucosii_bsp.a(ipopt.o)
 .data          0x00053935        0x0 ../niosII_simple_socket_server_1_bsp/\libucosii_bsp.a(u_mctest.o)
 *fill*         0x00053935        0x3 00
 .data          0x00053938       0xd4 ../niosII_simple_socket_server_1_bsp/\libucosii_bsp.a(memdev.o)
                0x00053938                mdio
                0x0005395c                mdlist
 .data          0x00053a0c        0x0 ../niosII_simple_socket_server_1_bsp/\libucosii_bsp.a(parseip.o)
 .data          0x00053a0c        0x0 ../niosII_simple_socket_server_1_bsp/\libucosii_bsp.a(tcpcksum.o)
 .data          0x00053a0c        0x0 ../niosII_simple_socket_server_1_bsp/\libucosii_bsp.a(udp_open.o)
 .data          0x00053a0c        0x0 ../niosII_simple_socket_server_1_bsp/\libucosii_bsp.a(in_pcb.o)
 .data          0x00053a0c       0x80 ../niosII_simple_socket_server_1_bsp/\libucosii_bsp.a(vfsfiles.o)
                0x00053a0c                vfs_root_path
 .data          0x00053a8c        0x0 ../niosII_simple_socket_server_1_bsp/\libucosii_bsp.a(vfsport.o)
 .data          0x00053a8c        0x0 ../niosII_simple_socket_server_1_bsp/\libucosii_bsp.a(alt_exception_entry.o)
 .data          0x00053a8c        0x0 ../niosII_simple_socket_server_1_bsp/\libucosii_bsp.a(alt_fcntl.o)
 .data          0x00053a8c        0x0 ../niosII_simple_socket_server_1_bsp/\libucosii_bsp.a(alt_find_file.o)
 .data          0x00053a8c        0x0 ../niosII_simple_socket_server_1_bsp/\libucosii_bsp.a(alt_get_fd.o)
 .data          0x00053a8c        0x0 ../niosII_simple_socket_server_1_bsp/\libucosii_bsp.a(alt_icache_flush.o)
 .data          0x00053a8c       0x18 ../niosII_simple_socket_server_1_bsp/\libucosii_bsp.a(icmp.o)
 .data          0x00053aa4        0x0 c:/altera/12.0/nios2eds/bin/gnu/h-i686-mingw32/bin/../lib/gcc/nios2-elf/4.1.2/../../../../nios2-elf/lib\libc.a(lib_a-atexit.o)
 .data          0x00053aa4        0x0 c:/altera/12.0/nios2eds/bin/gnu/h-i686-mingw32/bin/../lib/gcc/nios2-elf/4.1.2/../../../../nios2-elf/lib\libc.a(lib_a-atoi.o)
 .data          0x00053aa4        0x0 c:/altera/12.0/nios2eds/bin/gnu/h-i686-mingw32/bin/../lib/gcc/nios2-elf/4.1.2/../../../../nios2-elf/lib\libc.a(lib_a-calloc.o)
 .data          0x00053aa4        0x0 c:/altera/12.0/nios2eds/bin/gnu/h-i686-mingw32/bin/../lib/gcc/nios2-elf/4.1.2/../../../../nios2-elf/lib\libc.a(lib_a-exit.o)
 .data          0x00053aa4        0x0 c:/altera/12.0/nios2eds/bin/gnu/h-i686-mingw32/bin/../lib/gcc/nios2-elf/4.1.2/../../../../nios2-elf/lib\libc.a(lib_a-getc.o)
 .data          0x00053aa4        0x0 c:/altera/12.0/nios2eds/bin/gnu/h-i686-mingw32/bin/../lib/gcc/nios2-elf/4.1.2/../../../../nios2-elf/lib\libc.a(lib_a-memcmp.o)
 .data          0x00053aa4        0x0 c:/altera/12.0/nios2eds/bin/gnu/h-i686-mingw32/bin/../lib/gcc/nios2-elf/4.1.2/../../../../nios2-elf/lib\libc.a(lib_a-rget.o)
 .data          0x00053aa4        0x0 c:/altera/12.0/nios2eds/bin/gnu/h-i686-mingw32/bin/../lib/gcc/nios2-elf/4.1.2/../../../../nios2-elf/lib\libc.a(lib_a-strcpy.o)
 .data          0x00053aa4        0x0 c:/altera/12.0/nios2eds/bin/gnu/h-i686-mingw32/bin/../lib/gcc/nios2-elf/4.1.2/../../../../nios2-elf/lib\libc.a(lib_a-strncmp.o)
 .data          0x00053aa4        0x0 c:/altera/12.0/nios2eds/bin/gnu/h-i686-mingw32/bin/../lib/gcc/nios2-elf/4.1.2/../../../../nios2-elf/lib\libc.a(lib_a-strtol.o)
 .data          0x00053aa4        0x0 c:/altera/12.0/nios2eds/bin/gnu/h-i686-mingw32/bin/../lib/gcc/nios2-elf/4.1.2/../../../../nios2-elf/lib\libc.a(lib_a-vprintf.o)
 .data          0x00053aa4        0x0 c:/altera/12.0/nios2eds/bin/gnu/h-i686-mingw32/bin/../lib/gcc/nios2-elf/4.1.2/../../../../nios2-elf/lib\libc.a(lib_a-vsprintf.o)
 .data          0x00053aa4        0x0 c:/altera/12.0/nios2eds/bin/gnu/h-i686-mingw32/bin/../lib/gcc/nios2-elf/4.1.2/../../../../nios2-elf/lib\libc.a(lib_a-__atexit.o)
 .data          0x00053aa4        0x0 c:/altera/12.0/nios2eds/bin/gnu/h-i686-mingw32/bin/../lib/gcc/nios2-elf/4.1.2/../../../../nios2-elf/lib\libc.a(lib_a-__call_atexit.o)
 .data          0x00053aa4        0x0 c:/altera/12.0/nios2eds/bin/gnu/h-i686-mingw32/bin/../lib/gcc/nios2-elf/4.1.2/../../../../nios2-elf/lib\libc.a(lib_a-refill.o)
 .data          0x00053aa4        0x0 ../niosII_simple_socket_server_1_bsp/\libucosii_bsp.a(alt_exit.o)
                0x0005baa4                _gp = ABSOLUTE ((. + 0x8000))
                0x0005baa4                PROVIDE (gp, _gp)
 *(.rwdata .rwdata.*)
 *(.sdata .sdata.* .gnu.linkonce.s.*)
 .sdata         0x00053aa4        0xc obj/alt_eeprom/alt_2_wire.o
                0x00053aa4                alt_2_wireDelay
                0x00053aa8                SDA
                0x00053aac                SCL
 .sdata         0x00053ab0        0x4 obj/iniche_init.o
                0x00053ab0                device
 .sdata         0x00053ab4        0x4 c:/altera/12.0/nios2eds/bin/gnu/h-i686-mingw32/bin/../lib/gcc/nios2-elf/4.1.2/../../../../nios2-elf/lib\libc.a(lib_a-ctype_.o)
                0x00053ab4                __ctype_ptr
 .sdata         0x00053ab8        0x8 c:/altera/12.0/nios2eds/bin/gnu/h-i686-mingw32/bin/../lib/gcc/nios2-elf/4.1.2/../../../../nios2-elf/lib\libc.a(lib_a-impure.o)
                0x00053ab8                _impure_ptr
                0x00053abc                _global_impure_ptr
 .sdata         0x00053ac0        0x8 c:/altera/12.0/nios2eds/bin/gnu/h-i686-mingw32/bin/../lib/gcc/nios2-elf/4.1.2/../../../../nios2-elf/lib\libc.a(lib_a-mallocr.o)
                0x00053ac0                __malloc_trim_threshold
                0x00053ac4                __malloc_sbrk_base
 .sdata         0x00053ac8        0x8 c:/altera/12.0/nios2eds/bin/gnu/h-i686-mingw32/bin/../lib/gcc/nios2-elf/4.1.2/../../../../nios2-elf/lib\libc.a(lib_a-locale.o)
                0x00053ac8                __mb_cur_max
 .sdata         0x00053ad0        0x8 ../niosII_simple_socket_server_1_bsp/\libucosii_bsp.a(alt_flash_dev.o)
                0x00053ad0                alt_flash_dev_list
 .sdata         0x00053ad8        0x4 ../niosII_simple_socket_server_1_bsp/\libucosii_bsp.a(alt_sbrk.o)
 .sdata         0x00053adc        0x4 ../niosII_simple_socket_server_1_bsp/\libucosii_bsp.a(alt_env_lock.o)
 .sdata         0x00053ae0        0x4 ../niosII_simple_socket_server_1_bsp/\libucosii_bsp.a(alt_malloc_lock.o)
 .sdata         0x00053ae4       0x74 ../niosII_simple_socket_server_1_bsp/\libucosii_bsp.a(os_dbg.o)
                0x00053ae4                OSDebugEn
                0x00053ae8                OSEndiannessTest
                0x00053aec                OSEventEn
                0x00053aee                OSEventMax
                0x00053af0                OSEventNameSize
                0x00053af2                OSEventSize
                0x00053af4                OSEventTblSize
                0x00053af6                OSEventMultiEn
                0x00053af8                OSFlagEn
                0x00053afa                OSFlagGrpSize
                0x00053afc                OSFlagNodeSize
                0x00053afe                OSFlagWidth
                0x00053b00                OSFlagMax
                0x00053b02                OSFlagNameSize
                0x00053b04                OSLowestPrio
                0x00053b06                OSMboxEn
                0x00053b08                OSMemEn
                0x00053b0a                OSMemMax
                0x00053b0c                OSMemNameSize
                0x00053b0e                OSMemSize
                0x00053b10                OSMemTblSize
                0x00053b12                OSMutexEn
                0x00053b14                OSPtrSize
                0x00053b16                OSQEn
                0x00053b18                OSQMax
                0x00053b1a                OSQSize
                0x00053b1c                OSRdyTblSize
                0x00053b1e                OSSemEn
                0x00053b20                OSStkWidth
                0x00053b22                OSTaskCreateEn
                0x00053b24                OSTaskCreateExtEn
                0x00053b26                OSTaskDelEn
                0x00053b28                OSTaskIdleStkSize
                0x00053b2a                OSTaskProfileEn
                0x00053b2c                OSTaskMax
                0x00053b2e                OSTaskNameSize
                0x00053b30                OSTaskStatEn
                0x00053b32                OSTaskStatStkSize
                0x00053b34                OSTaskStatStkChkEn
                0x00053b36                OSTaskSwHookEn
                0x00053b38                OSTCBPrioTblMax
                0x00053b3a                OSTCBSize
                0x00053b3c                OSTicksPerSec
                0x00053b3e                OSTimeTickHookEn
                0x00053b40                OSVersionNbr
                0x00053b42                OSTmrEn
                0x00053b44                OSTmrCfgMax
                0x00053b46                OSTmrCfgNameSize
                0x00053b48                OSTmrCfgWheelSize
                0x00053b4a                OSTmrCfgTicksPerSec
                0x00053b4c                OSTmrSize
                0x00053b4e                OSTmrTblSize
                0x00053b50                OSTmrWheelSize
                0x00053b52                OSTmrWheelTblSize
                0x00053b54                OSDataSize
 .sdata         0x00053b58        0x4 ../niosII_simple_socket_server_1_bsp/\libucosii_bsp.a(alt_sys_init.o)
                0x00053b58                tse_mac_name
 .sdata         0x00053b5c        0x4 ../niosII_simple_socket_server_1_bsp/\libucosii_bsp.a(altera_avalon_lcd_16207.o)
 .sdata         0x00053b60        0x8 ../niosII_simple_socket_server_1_bsp/\libucosii_bsp.a(altera_avalon_sgdma.o)
                0x00053b60                alt_sgdma_list
 .sdata         0x00053b68        0x1 ../niosII_simple_socket_server_1_bsp/\libucosii_bsp.a(altera_avalon_tse.o)
                0x00053b68                max_mac_system
 *fill*         0x00053b69        0x3 00
 .sdata         0x00053b6c        0x8 ../niosII_simple_socket_server_1_bsp/\libucosii_bsp.a(alt_iniche_dev.o)
                0x00053b6c                alt_iniche_dev_list
 .sdata         0x00053b74        0x4 ../niosII_simple_socket_server_1_bsp/\libucosii_bsp.a(ipstart.o)
                0x00053b74                ipmcfail_str
 .sdata         0x00053b78        0x4 ../niosII_simple_socket_server_1_bsp/\libucosii_bsp.a(cksum.o)
 .sdata         0x00053b7c        0x4 ../niosII_simple_socket_server_1_bsp/\libucosii_bsp.a(netmain.o)
                0x00053b7c                num_net_tasks
 .sdata         0x00053b80       0x10 ../niosII_simple_socket_server_1_bsp/\libucosii_bsp.a(pktalloc.o)
                0x00053b80                lilbufs
                0x00053b84                lilbufsiz
                0x00053b88                bigbufs
                0x00053b8c                bigbufsiz
 .sdata         0x00053b90        0x4 ../niosII_simple_socket_server_1_bsp/\libucosii_bsp.a(brdutils.o)
                0x00053b90                kb_last
 .sdata         0x00053b94        0x4 ../niosII_simple_socket_server_1_bsp/\libucosii_bsp.a(nptcp.o)
                0x00053b94                TCPTV_MSL
 .sdata         0x00053b98        0x2 ../niosII_simple_socket_server_1_bsp/\libucosii_bsp.a(socket.o)
                0x00053b98                socket_defaults
 .sdata         0x00053b9a        0x1 ../niosII_simple_socket_server_1_bsp/\libucosii_bsp.a(tcp_in.o)
                0x00053b9a                tcprexmtthresh
 *fill*         0x00053b9b        0x1 00
 .sdata         0x00053b9c        0x4 ../niosII_simple_socket_server_1_bsp/\libucosii_bsp.a(tcp_subr.o)
                0x00053b9c                tcp_ttl
 .sdata         0x00053ba0        0x8 ../niosII_simple_socket_server_1_bsp/\libucosii_bsp.a(tcp_timr.o)
                0x00053ba0                tcp_keepidle
                0x00053ba4                tcp_keepintvl
 .sdata         0x00053ba8        0x8 ../niosII_simple_socket_server_1_bsp/\libucosii_bsp.a(tcp_usr.o)
                0x00053ba8                tcp_sendspace
                0x00053bac                tcp_recvspace
 .sdata         0x00053bb0       0x14 ../niosII_simple_socket_server_1_bsp/\libucosii_bsp.a(alt_dev.o)
                0x00053bb0                alt_fs_list
                0x00053bb8                alt_dev_list
                0x00053bc0                alt_max_fd
 .sdata         0x00053bc4        0x4 ../niosII_simple_socket_server_1_bsp/\libucosii_bsp.a(alt_errno.o)
                0x00053bc4                alt_errno
 .sdata         0x00053bc8        0x4 ../niosII_simple_socket_server_1_bsp/\libucosii_bsp.a(alt_irq_vars.o)
                0x00053bc8                alt_priority_mask
 .sdata         0x00053bcc        0x8 ../niosII_simple_socket_server_1_bsp/\libucosii_bsp.a(alt_tick.o)
                0x00053bcc                alt_alarm_list
 .sdata         0x00053bd4       0x10 ../niosII_simple_socket_server_1_bsp/\libucosii_bsp.a(allports.o)
                0x00053bd4                name
                0x00053bd8                prompt
                0x00053bdc                pingdelay
                0x00053be0                deflength
 .sdata         0x00053be4        0x4 ../niosII_simple_socket_server_1_bsp/\libucosii_bsp.a(et_arp.o)
                0x00053be4                arp_ageout
 .sdata         0x00053be8        0x8 ../niosII_simple_socket_server_1_bsp/\libucosii_bsp.a(ip.o)
                0x00053bec                ipRoutes
 .sdata         0x00053bf0        0x4 ../niosII_simple_socket_server_1_bsp/\libucosii_bsp.a(u_mctest.o)
 .sdata         0x00053bf4        0x4 ../niosII_simple_socket_server_1_bsp/\libucosii_bsp.a(memdev.o)
                0x00053bf4                mdlist_size
 .sdata         0x00053bf8        0x4 ../niosII_simple_socket_server_1_bsp/\libucosii_bsp.a(parseip.o)
                0x00053bf8                pton_error
 .sdata         0x00053bfc        0x4 ../niosII_simple_socket_server_1_bsp/\libucosii_bsp.a(vfsfiles.o)
                0x00053bfc                http_root_path
 *(.sdata2 .sdata2.* .gnu.linkonce.s2.*)
                0x00053c00                . = ALIGN (0x4)
                0x00053c00                _edata = ABSOLUTE (.)
                0x00053c00                PROVIDE (edata, ABSOLUTE (.))
                0x00053c00                PROVIDE (__ram_rwdata_end, ABSOLUTE (.))
                0x00053c00                PROVIDE (__flash_rwdata_start, LOADADDR (.rwdata))

.bss            0x00055e68    0x86c6c
                0x00055e68                __bss_start = ABSOLUTE (.)
                0x00055e68                PROVIDE (__sbss_start, ABSOLUTE (.))
                0x00055e68                PROVIDE (___sbss_start, ABSOLUTE (.))
 *(.dynsbss)
 *(.sbss .sbss.* .gnu.linkonce.sb.*)
 .sbss          0x00055e68        0x8 obj/SSS_DE2_115.o
                0x00055e68                last_flash_sector_offset
                0x00055e6c                last_flash_sector
 .sbss          0x00055e70        0x8 obj/alt_eeprom/alt_2_wire.o
                0x00055e70                debug
                0x00055e74                bus
 .sbss          0x00055e78        0x7 obj/iniche_init.o
                0x00055e78                system_dhcp_hostname
                0x00055e7c                to_sssphytask
                0x00055e7d                to_ssspenetask
                0x00055e7e                to_ssstask
 *fill*         0x00055e7f        0x1 00
 .sbss          0x00055e80        0xc obj/niosII_simple_socket_server.o
                0x00055e84                SSSLEDCommandQ
                0x00055e88                SSSLEDFreqMailbox
 .sbss          0x00055e8c        0xc c:/altera/12.0/nios2eds/bin/gnu/h-i686-mingw32/bin/../lib/gcc/nios2-elf/4.1.2/../../../../nios2-elf/lib\libc.a(lib_a-mallocr.o)
                0x00055e8c                __malloc_top_pad
                0x00055e90                __malloc_max_sbrked_mem
                0x00055e94                __malloc_max_total_mem
 .sbss          0x00055e98        0x4 c:/altera/12.0/nios2eds/bin/gnu/h-i686-mingw32/bin/../lib/gcc/nios2-elf/4.1.2/../../../../nios2-elf/lib\libc.a(lib_a-int_errno.o)
                0x00055e98                errno
 .sbss          0x00055e9c        0xc c:/altera/12.0/nios2eds/bin/gnu/h-i686-mingw32/bin/../lib/gcc/nios2-elf/4.1.2/../../../../nios2-elf/lib\libc.a(lib_a-locale.o)
                0x00055e9c                __nlocale_changed
                0x00055ea0                __mlocale_changed
                0x00055ea4                _PathLocale
 .sbss          0x00055ea8        0xc ../niosII_simple_socket_server_1_bsp/\libucosii_bsp.a(alt_main.o)
                0x00055ea8                alt_argc
                0x00055eac                alt_argv
                0x00055eb0                alt_envp
 .sbss          0x00055eb4        0x8 ../niosII_simple_socket_server_1_bsp/\libucosii_bsp.a(alt_env_lock.o)
                0x00055eb8                alt_envsem
 .sbss          0x00055ebc        0x8 ../niosII_simple_socket_server_1_bsp/\libucosii_bsp.a(alt_malloc_lock.o)
                0x00055ec0                alt_heapsem
 .sbss          0x00055ec4       0x50 ../niosII_simple_socket_server_1_bsp/\libucosii_bsp.a(os_core.o)
                0x00055ec4                OSLockNesting
                0x00055ec5                OSRunning
                0x00055ec8                OSIdleCtr
                0x00055ecc                OSPrioHighRdy
                0x00055ecd                OSPrioCur
                0x00055ed0                OSTCBList
                0x00055ed4                OSTickStepState
                0x00055ed8                OSCtxSwCtr
                0x00055edc                OSIdleCtrMax
                0x00055ee0                OSTCBFreeList
                0x00055ee4                OSCPUUsage
                0x00055ee5                OSTaskCtr
                0x00055ee8                OSMemFreeList
                0x00055eec                OSTCBHighRdy
                0x00055ef0                OSQFreeList
                0x00055ef4                OSRdyGrp
                0x00055ef5                OSRdyTbl
                0x00055ef8                OSEventFreeList
                0x00055efc                OSIntNesting
                0x00055f00                OSTCBCur
                0x00055f04                OSTime
                0x00055f08                OSFlagFreeList
                0x00055f0c                OSStatRdy
                0x00055f10                OSIdleCtrRun
 .sbss          0x00055f14        0x4 ../niosII_simple_socket_server_1_bsp/\libucosii_bsp.a(altera_avalon_tse.o)
                0x00055f14                phy_profile_count
                0x00055f15                mac_group_count
 .sbss          0x00055f18        0x1 ../niosII_simple_socket_server_1_bsp/\libucosii_bsp.a(ins_tse_mac.o)
                0x00055f18                number_of_tse_mac
 *fill*         0x00055f19        0x3 00
 .sbss          0x00055f1c        0xc ../niosII_simple_socket_server_1_bsp/\libucosii_bsp.a(ipnet.o)
                0x00055f1c                MaxLnh
                0x00055f20                MaxMtu
                0x00055f24                NDEBUG
 .sbss          0x00055f28        0x8 ../niosII_simple_socket_server_1_bsp/\libucosii_bsp.a(ipstart.o)
                0x00055f28                ifNumber
 .sbss          0x00055f30       0x10 ../niosII_simple_socket_server_1_bsp/\libucosii_bsp.a(igmp_cmn.o)
                0x00055f30                igmp_timers_are_running
                0x00055f34                igmp_cticks
                0x00055f38                igmp_all_hosts_group
                0x00055f3c                igmp_all_rtrs_group
 .sbss          0x00055f40        0xe ../niosII_simple_socket_server_1_bsp/\libucosii_bsp.a(netmain.o)
                0x00055f40                netmain_wakes
                0x00055f44                nettick_wakes
                0x00055f48                iniche_net_ready
                0x00055f4c                to_netmain
                0x00055f4d                to_nettick
 *fill*         0x00055f4e        0x2 00
 .sbss          0x00055f50        0x4 ../niosII_simple_socket_server_1_bsp/\libucosii_bsp.a(tk_crnos.o)
                0x00055f50                tcp_sleep_timeout
 .sbss          0x00055f54       0x18 ../niosII_simple_socket_server_1_bsp/\libucosii_bsp.a(brdutils.o)
                0x00055f58                cticks_initialized
                0x00055f5c                irq_level
                0x00055f64                cticks_factor
                0x00055f68                OS_TPS
 .sbss          0x00055f6c       0x18 ../niosII_simple_socket_server_1_bsp/\libucosii_bsp.a(osportco.o)
                0x00055f6c                tcp_sleep_count
                0x00055f70                tcp_wakeup_count
                0x00055f74                netq_intmask
                0x00055f78                old_mode
                0x00055f7c                global_TCPwakeup_setIndx
                0x00055f80                cticks
 .sbss          0x00055f84        0xc ../niosII_simple_socket_server_1_bsp/\libucosii_bsp.a(targnios.o)
                0x00055f84                memtrapsize
                0x00055f88                mheap_sem_ptr
                0x00055f8c                rcvdq_sem_ptr
 .sbss          0x00055f90       0x12 ../niosII_simple_socket_server_1_bsp/\libucosii_bsp.a(nptcp.o)
                0x00055f90                nextslow
                0x00055f98                mbstat
                0x00055fa0                select_wait
 *fill*         0x00055fa2        0x2 00
 .sbss          0x00055fa4        0x8 ../niosII_simple_socket_server_1_bsp/\libucosii_bsp.a(tcp_in.o)
                0x00055fa4                tcpprintfs
                0x00055fa8                dropline
 .sbss          0x00055fac        0x4 ../niosII_simple_socket_server_1_bsp/\libucosii_bsp.a(tcp_out.o)
                0x00055fac                tcp_optionbuf
 .sbss          0x00055fb0        0x8 ../niosII_simple_socket_server_1_bsp/\libucosii_bsp.a(tcp_timr.o)
                0x00055fb0                tcp_maxidle
                0x00055fb4                tcp_iss
 .sbss          0x00055fb8        0x4 ../niosII_simple_socket_server_1_bsp/\libucosii_bsp.a(alt_dev.o)
                0x00055fb8                alt_fd_list_lock
 .sbss          0x00055fbc        0x4 ../niosII_simple_socket_server_1_bsp/\libucosii_bsp.a(alt_irq_vars.o)
                0x00055fbc                alt_irq_active
 .sbss          0x00055fc0        0x8 ../niosII_simple_socket_server_1_bsp/\libucosii_bsp.a(alt_tick.o)
                0x00055fc0                _alt_tick_rate
                0x00055fc4                _alt_nticks
 .sbss          0x00055fc8        0x8 ../niosII_simple_socket_server_1_bsp/\libucosii_bsp.a(allports.o)
                0x00055fc8                activehost
 .sbss          0x00055fd0        0xc ../niosII_simple_socket_server_1_bsp/\libucosii_bsp.a(timeouts.o)
                0x00055fd0                nextppp
                0x00055fd4                port_1s_callout
 .sbss          0x00055fdc       0x1c ../niosII_simple_socket_server_1_bsp/\libucosii_bsp.a(et_arp.o)
                0x00055fe0                arpcache
                0x00055fe4                arpReqsIn
                0x00055fe8                arpReqsOut
                0x00055fec                arpRepsIn
                0x00055ff0                arpRepsOut
 .sbss          0x00055ff8        0x4 ../niosII_simple_socket_server_1_bsp/\libucosii_bsp.a(ip.o)
                0x00055ff8                rt_mib
 .sbss          0x00055ffc        0xc ../niosII_simple_socket_server_1_bsp/\libucosii_bsp.a(ip_reasm.o)
                0x00055ffc                ipr_curr_mem
                0x00056000                h_ireq
                0x00056004                ire_cticks
 .sbss          0x00056008       0x11 ../niosII_simple_socket_server_1_bsp/\libucosii_bsp.a(ipport.o)
                0x00056008                port_prep
                0x0005600c                net_system_exit
                0x00056010                so_evtmap_create
                0x00056014                so_evtmap_delete
                0x00056018                so_evtmap
 *fill*         0x00056019        0x3 00
 .sbss          0x0005601c        0x4 ../niosII_simple_socket_server_1_bsp/\libucosii_bsp.a(ipraw.o)
                0x0005601c                ipraw_eps
 .sbss          0x00056020        0x4 ../niosII_simple_socket_server_1_bsp/\libucosii_bsp.a(iproute.o)
                0x00056020                cachedRoute
 .sbss          0x00056024        0x2 ../niosII_simple_socket_server_1_bsp/\libucosii_bsp.a(udp.o)
 *fill*         0x00056026        0x2 00
 .sbss          0x00056028        0x4 ../niosII_simple_socket_server_1_bsp/\libucosii_bsp.a(udp_open.o)
                0x00056028                firstudp
 .sbss          0x0005602c        0x8 ../niosII_simple_socket_server_1_bsp/\libucosii_bsp.a(in_pcb.o)
                0x0005602c                inpcb_cachehits
                0x00056030                inpcb_cachemiss
 .sbss          0x00056034       0x20 ../niosII_simple_socket_server_1_bsp/\libucosii_bsp.a(vfsfiles.o)
                0x00056034                vfsystems
                0x00056038                vfiles
                0x0005603c                vfsfiles
                0x00056040                vfopen_error
                0x00056044                vfs_dir_stale
                0x00056048                vfs_open_files
                0x0005604c                vfs_total_rw_space
                0x00056050                vfs_total_dyna_files
 .sbss          0x00056054        0x4 ../niosII_simple_socket_server_1_bsp/\libucosii_bsp.a(icmp.o)
                0x00056054                icmpdu_hook
 *(.sbss2 .sbss2.* .gnu.linkonce.sb2.*)
 *(.scommon)
                0x00056058                PROVIDE (__sbss_end, ABSOLUTE (.))
                0x00056058                PROVIDE (___sbss_end, ABSOLUTE (.))
 *(.dynbss)
 *(.bss .bss.* .gnu.linkonce.b.*)
 .bss           0x00056058        0x0 ../niosII_simple_socket_server_1_bsp//obj/HAL/src/crt0.o
 .bss           0x00056058        0x0 obj/SSS_DE2_115.o
 .bss           0x00056058        0x0 obj/alt_eeprom/alt_2_wire.o
 .bss           0x00056058        0x0 obj/alt_eeprom/alt_eeprom.o
 .bss           0x00056058        0x0 obj/alt_error_handler.o
 .bss           0x00056058        0x0 obj/iniche_init.o
 .bss           0x00056058        0x0 obj/led.o
 .bss           0x00056058     0x2738 obj/niosII_simple_socket_server.o
 .bss           0x00058790        0x0 c:/altera/12.0/nios2eds/bin/gnu/h-i686-mingw32/bin/../lib/gcc/nios2-elf/4.1.2\libgcc.a(lib2-divmod.o)
 .bss           0x00058790        0x0 c:/altera/12.0/nios2eds/bin/gnu/h-i686-mingw32/bin/../lib/gcc/nios2-elf/4.1.2/../../../../nios2-elf/lib\libc.a(lib_a-ctype_.o)
 .bss           0x00058790        0x0 c:/altera/12.0/nios2eds/bin/gnu/h-i686-mingw32/bin/../lib/gcc/nios2-elf/4.1.2/../../../../nios2-elf/lib\libc.a(lib_a-fprintf.o)
 .bss           0x00058790        0x0 c:/altera/12.0/nios2eds/bin/gnu/h-i686-mingw32/bin/../lib/gcc/nios2-elf/4.1.2/../../../../nios2-elf/lib\libc.a(lib_a-fwrite.o)
 .bss           0x00058790        0x0 c:/altera/12.0/nios2eds/bin/gnu/h-i686-mingw32/bin/../lib/gcc/nios2-elf/4.1.2/../../../../nios2-elf/lib\libc.a(lib_a-impure.o)
 .bss           0x00058790        0x0 c:/altera/12.0/nios2eds/bin/gnu/h-i686-mingw32/bin/../lib/gcc/nios2-elf/4.1.2/../../../../nios2-elf/lib\libc.a(lib_a-malloc.o)
 .bss           0x00058790       0x28 c:/altera/12.0/nios2eds/bin/gnu/h-i686-mingw32/bin/../lib/gcc/nios2-elf/4.1.2/../../../../nios2-elf/lib\libc.a(lib_a-mallocr.o)
                0x00058790                __malloc_current_mallinfo
 .bss           0x000587b8        0x0 c:/altera/12.0/nios2eds/bin/gnu/h-i686-mingw32/bin/../lib/gcc/nios2-elf/4.1.2/../../../../nios2-elf/lib\libc.a(lib_a-memcpy.o)
 .bss           0x000587b8        0x0 c:/altera/12.0/nios2eds/bin/gnu/h-i686-mingw32/bin/../lib/gcc/nios2-elf/4.1.2/../../../../nios2-elf/lib\libc.a(lib_a-memmove.o)
 .bss           0x000587b8        0x0 c:/altera/12.0/nios2eds/bin/gnu/h-i686-mingw32/bin/../lib/gcc/nios2-elf/4.1.2/../../../../nios2-elf/lib\libc.a(lib_a-memset.o)
 .bss           0x000587b8        0x0 c:/altera/12.0/nios2eds/bin/gnu/h-i686-mingw32/bin/../lib/gcc/nios2-elf/4.1.2/../../../../nios2-elf/lib\libc.a(lib_a-perror.o)
 .bss           0x000587b8        0x0 c:/altera/12.0/nios2eds/bin/gnu/h-i686-mingw32/bin/../lib/gcc/nios2-elf/4.1.2/../../../../nios2-elf/lib\libc.a(lib_a-printf.o)
 .bss           0x000587b8        0x0 c:/altera/12.0/nios2eds/bin/gnu/h-i686-mingw32/bin/../lib/gcc/nios2-elf/4.1.2/../../../../nios2-elf/lib\libc.a(lib_a-putchar.o)
 .bss           0x000587b8        0x0 c:/altera/12.0/nios2eds/bin/gnu/h-i686-mingw32/bin/../lib/gcc/nios2-elf/4.1.2/../../../../nios2-elf/lib\libc.a(lib_a-puts.o)
 .bss           0x000587b8        0x0 c:/altera/12.0/nios2eds/bin/gnu/h-i686-mingw32/bin/../lib/gcc/nios2-elf/4.1.2/../../../../nios2-elf/lib\libc.a(lib_a-sbrkr.o)
 .bss           0x000587b8        0x0 c:/altera/12.0/nios2eds/bin/gnu/h-i686-mingw32/bin/../lib/gcc/nios2-elf/4.1.2/../../../../nios2-elf/lib\libc.a(lib_a-sprintf.o)
 .bss           0x000587b8        0x0 c:/altera/12.0/nios2eds/bin/gnu/h-i686-mingw32/bin/../lib/gcc/nios2-elf/4.1.2/../../../../nios2-elf/lib\libc.a(lib_a-strchr.o)
 .bss           0x000587b8        0x0 c:/altera/12.0/nios2eds/bin/gnu/h-i686-mingw32/bin/../lib/gcc/nios2-elf/4.1.2/../../../../nios2-elf/lib\libc.a(lib_a-strerror.o)
 .bss           0x000587b8        0x0 c:/altera/12.0/nios2eds/bin/gnu/h-i686-mingw32/bin/../lib/gcc/nios2-elf/4.1.2/../../../../nios2-elf/lib\libc.a(lib_a-strlen.o)
 .bss           0x000587b8        0x0 c:/altera/12.0/nios2eds/bin/gnu/h-i686-mingw32/bin/../lib/gcc/nios2-elf/4.1.2/../../../../nios2-elf/lib\libc.a(lib_a-u_strerr.o)
 .bss           0x000587b8        0x0 c:/altera/12.0/nios2eds/bin/gnu/h-i686-mingw32/bin/../lib/gcc/nios2-elf/4.1.2/../../../../nios2-elf/lib\libc.a(lib_a-vfprintf.o)
 .bss           0x000587b8        0x0 c:/altera/12.0/nios2eds/bin/gnu/h-i686-mingw32/bin/../lib/gcc/nios2-elf/4.1.2/../../../../nios2-elf/lib\libc.a(lib_a-wsetup.o)
 .bss           0x000587b8        0x0 c:/altera/12.0/nios2eds/bin/gnu/h-i686-mingw32/bin/../lib/gcc/nios2-elf/4.1.2/../../../../nios2-elf/lib\libc.a(lib_a-dtoa.o)
 .bss           0x000587b8        0x0 c:/altera/12.0/nios2eds/bin/gnu/h-i686-mingw32/bin/../lib/gcc/nios2-elf/4.1.2/../../../../nios2-elf/lib\libc.a(lib_a-fflush.o)
 .bss           0x000587b8        0x0 c:/altera/12.0/nios2eds/bin/gnu/h-i686-mingw32/bin/../lib/gcc/nios2-elf/4.1.2/../../../../nios2-elf/lib\libc.a(lib_a-findfp.o)
 .bss           0x000587b8        0x0 c:/altera/12.0/nios2eds/bin/gnu/h-i686-mingw32/bin/../lib/gcc/nios2-elf/4.1.2/../../../../nios2-elf/lib\libc.a(lib_a-fputc.o)
 .bss           0x000587b8        0x0 c:/altera/12.0/nios2eds/bin/gnu/h-i686-mingw32/bin/../lib/gcc/nios2-elf/4.1.2/../../../../nios2-elf/lib\libc.a(lib_a-fputs.o)
 .bss           0x000587b8        0x0 c:/altera/12.0/nios2eds/bin/gnu/h-i686-mingw32/bin/../lib/gcc/nios2-elf/4.1.2/../../../../nios2-elf/lib\libc.a(lib_a-freer.o)
 .bss           0x000587b8        0x0 c:/altera/12.0/nios2eds/bin/gnu/h-i686-mingw32/bin/../lib/gcc/nios2-elf/4.1.2/../../../../nios2-elf/lib\libc.a(lib_a-fvwrite.o)
 .bss           0x000587b8        0x0 c:/altera/12.0/nios2eds/bin/gnu/h-i686-mingw32/bin/../lib/gcc/nios2-elf/4.1.2/../../../../nios2-elf/lib\libc.a(lib_a-fwalk.o)
 .bss           0x000587b8        0x0 c:/altera/12.0/nios2eds/bin/gnu/h-i686-mingw32/bin/../lib/gcc/nios2-elf/4.1.2/../../../../nios2-elf/lib\libc.a(lib_a-int_errno.o)
 .bss           0x000587b8        0x0 c:/altera/12.0/nios2eds/bin/gnu/h-i686-mingw32/bin/../lib/gcc/nios2-elf/4.1.2/../../../../nios2-elf/lib\libc.a(lib_a-locale.o)
 .bss           0x000587b8        0x0 c:/altera/12.0/nios2eds/bin/gnu/h-i686-mingw32/bin/../lib/gcc/nios2-elf/4.1.2/../../../../nios2-elf/lib\libc.a(lib_a-makebuf.o)
 .bss           0x000587b8        0x0 c:/altera/12.0/nios2eds/bin/gnu/h-i686-mingw32/bin/../lib/gcc/nios2-elf/4.1.2/../../../../nios2-elf/lib\libc.a(lib_a-memchr.o)
 .bss           0x000587b8        0x0 c:/altera/12.0/nios2eds/bin/gnu/h-i686-mingw32/bin/../lib/gcc/nios2-elf/4.1.2/../../../../nios2-elf/lib\libc.a(lib_a-mprec.o)
 .bss           0x000587b8        0x0 c:/altera/12.0/nios2eds/bin/gnu/h-i686-mingw32/bin/../lib/gcc/nios2-elf/4.1.2/../../../../nios2-elf/lib\libc.a(lib_a-putc.o)
 .bss           0x000587b8        0x0 c:/altera/12.0/nios2eds/bin/gnu/h-i686-mingw32/bin/../lib/gcc/nios2-elf/4.1.2/../../../../nios2-elf/lib\libc.a(lib_a-reallocr.o)
 .bss           0x000587b8        0x0 c:/altera/12.0/nios2eds/bin/gnu/h-i686-mingw32/bin/../lib/gcc/nios2-elf/4.1.2/../../../../nios2-elf/lib\libc.a(lib_a-s_isinfd.o)
 .bss           0x000587b8        0x0 c:/altera/12.0/nios2eds/bin/gnu/h-i686-mingw32/bin/../lib/gcc/nios2-elf/4.1.2/../../../../nios2-elf/lib\libc.a(lib_a-s_isnand.o)
 .bss           0x000587b8        0x0 c:/altera/12.0/nios2eds/bin/gnu/h-i686-mingw32/bin/../lib/gcc/nios2-elf/4.1.2/../../../../nios2-elf/lib\libc.a(lib_a-stdio.o)
 .bss           0x000587b8        0x0 c:/altera/12.0/nios2eds/bin/gnu/h-i686-mingw32/bin/../lib/gcc/nios2-elf/4.1.2/../../../../nios2-elf/lib\libc.a(lib_a-strcmp.o)
 .bss           0x000587b8        0x0 c:/altera/12.0/nios2eds/bin/gnu/h-i686-mingw32/bin/../lib/gcc/nios2-elf/4.1.2/../../../../nios2-elf/lib\libc.a(lib_a-wbuf.o)
 .bss           0x000587b8        0x0 c:/altera/12.0/nios2eds/bin/gnu/h-i686-mingw32/bin/../lib/gcc/nios2-elf/4.1.2/../../../../nios2-elf/lib\libc.a(lib_a-writer.o)
 .bss           0x000587b8        0x0 c:/altera/12.0/nios2eds/bin/gnu/h-i686-mingw32/bin/../lib/gcc/nios2-elf/4.1.2/../../../../nios2-elf/lib\libc.a(lib_a-callocr.o)
 .bss           0x000587b8        0x0 c:/altera/12.0/nios2eds/bin/gnu/h-i686-mingw32/bin/../lib/gcc/nios2-elf/4.1.2/../../../../nios2-elf/lib\libc.a(lib_a-closer.o)
 .bss           0x000587b8        0x0 c:/altera/12.0/nios2eds/bin/gnu/h-i686-mingw32/bin/../lib/gcc/nios2-elf/4.1.2/../../../../nios2-elf/lib\libc.a(lib_a-fclose.o)
 .bss           0x000587b8        0x0 c:/altera/12.0/nios2eds/bin/gnu/h-i686-mingw32/bin/../lib/gcc/nios2-elf/4.1.2/../../../../nios2-elf/lib\libc.a(lib_a-fstatr.o)
 .bss           0x000587b8        0x0 c:/altera/12.0/nios2eds/bin/gnu/h-i686-mingw32/bin/../lib/gcc/nios2-elf/4.1.2/../../../../nios2-elf/lib\libc.a(lib_a-isattyr.o)
 .bss           0x000587b8        0x0 c:/altera/12.0/nios2eds/bin/gnu/h-i686-mingw32/bin/../lib/gcc/nios2-elf/4.1.2/../../../../nios2-elf/lib\libc.a(lib_a-lseekr.o)
 .bss           0x000587b8        0x0 c:/altera/12.0/nios2eds/bin/gnu/h-i686-mingw32/bin/../lib/gcc/nios2-elf/4.1.2/../../../../nios2-elf/lib\libc.a(lib_a-readr.o)
 .bss           0x000587b8        0x0 c:/altera/12.0/nios2eds/bin/gnu/h-i686-mingw32/bin/../lib/gcc/nios2-elf/4.1.2\libgcc.a(_udivdi3.o)
 .bss           0x000587b8        0x0 c:/altera/12.0/nios2eds/bin/gnu/h-i686-mingw32/bin/../lib/gcc/nios2-elf/4.1.2\libgcc.a(_umoddi3.o)
 .bss           0x000587b8        0x0 c:/altera/12.0/nios2eds/bin/gnu/h-i686-mingw32/bin/../lib/gcc/nios2-elf/4.1.2\libgcc.a(_addsub_df.o)
 .bss           0x000587b8        0x0 c:/altera/12.0/nios2eds/bin/gnu/h-i686-mingw32/bin/../lib/gcc/nios2-elf/4.1.2\libgcc.a(_mul_df.o)
 .bss           0x000587b8        0x0 c:/altera/12.0/nios2eds/bin/gnu/h-i686-mingw32/bin/../lib/gcc/nios2-elf/4.1.2\libgcc.a(_div_df.o)
 .bss           0x000587b8        0x0 c:/altera/12.0/nios2eds/bin/gnu/h-i686-mingw32/bin/../lib/gcc/nios2-elf/4.1.2\libgcc.a(_eq_df.o)
 .bss           0x000587b8        0x0 c:/altera/12.0/nios2eds/bin/gnu/h-i686-mingw32/bin/../lib/gcc/nios2-elf/4.1.2\libgcc.a(_ne_df.o)
 .bss           0x000587b8        0x0 c:/altera/12.0/nios2eds/bin/gnu/h-i686-mingw32/bin/../lib/gcc/nios2-elf/4.1.2\libgcc.a(_gt_df.o)
 .bss           0x000587b8        0x0 c:/altera/12.0/nios2eds/bin/gnu/h-i686-mingw32/bin/../lib/gcc/nios2-elf/4.1.2\libgcc.a(_ge_df.o)
 .bss           0x000587b8        0x0 c:/altera/12.0/nios2eds/bin/gnu/h-i686-mingw32/bin/../lib/gcc/nios2-elf/4.1.2\libgcc.a(_lt_df.o)
 .bss           0x000587b8        0x0 c:/altera/12.0/nios2eds/bin/gnu/h-i686-mingw32/bin/../lib/gcc/nios2-elf/4.1.2\libgcc.a(_si_to_df.o)
 .bss           0x000587b8        0x0 c:/altera/12.0/nios2eds/bin/gnu/h-i686-mingw32/bin/../lib/gcc/nios2-elf/4.1.2\libgcc.a(_df_to_si.o)
 .bss           0x000587b8        0x0 c:/altera/12.0/nios2eds/bin/gnu/h-i686-mingw32/bin/../lib/gcc/nios2-elf/4.1.2\libgcc.a(_thenan_df.o)
 .bss           0x000587b8        0x0 c:/altera/12.0/nios2eds/bin/gnu/h-i686-mingw32/bin/../lib/gcc/nios2-elf/4.1.2\libgcc.a(_usi_to_df.o)
 .bss           0x000587b8        0x0 c:/altera/12.0/nios2eds/bin/gnu/h-i686-mingw32/bin/../lib/gcc/nios2-elf/4.1.2\libgcc.a(_muldi3.o)
 .bss           0x000587b8        0x0 c:/altera/12.0/nios2eds/bin/gnu/h-i686-mingw32/bin/../lib/gcc/nios2-elf/4.1.2\libgcc.a(_clz.o)
 .bss           0x000587b8        0x0 c:/altera/12.0/nios2eds/bin/gnu/h-i686-mingw32/bin/../lib/gcc/nios2-elf/4.1.2\libgcc.a(_clzsi2.o)
 .bss           0x000587b8        0x0 c:/altera/12.0/nios2eds/bin/gnu/h-i686-mingw32/bin/../lib/gcc/nios2-elf/4.1.2\libgcc.a(_pack_df.o)
 .bss           0x000587b8        0x0 c:/altera/12.0/nios2eds/bin/gnu/h-i686-mingw32/bin/../lib/gcc/nios2-elf/4.1.2\libgcc.a(_unpack_df.o)
 .bss           0x000587b8        0x0 c:/altera/12.0/nios2eds/bin/gnu/h-i686-mingw32/bin/../lib/gcc/nios2-elf/4.1.2\libgcc.a(_fpcmp_parts_df.o)
 .bss           0x000587b8        0x0 ../niosII_simple_socket_server_1_bsp/\libucosii_bsp.a(alt_flash_dev.o)
 .bss           0x000587b8        0x0 ../niosII_simple_socket_server_1_bsp/\libucosii_bsp.a(alt_fstat.o)
 .bss           0x000587b8        0x0 ../niosII_simple_socket_server_1_bsp/\libucosii_bsp.a(alt_isatty.o)
 .bss           0x000587b8        0x0 ../niosII_simple_socket_server_1_bsp/\libucosii_bsp.a(alt_load.o)
 .bss           0x000587b8        0x0 ../niosII_simple_socket_server_1_bsp/\libucosii_bsp.a(alt_lseek.o)
 .bss           0x000587b8        0x0 ../niosII_simple_socket_server_1_bsp/\libucosii_bsp.a(alt_main.o)
 .bss           0x000587b8        0x0 ../niosII_simple_socket_server_1_bsp/\libucosii_bsp.a(alt_sbrk.o)
 .bss           0x000587b8        0x0 ../niosII_simple_socket_server_1_bsp/\libucosii_bsp.a(alt_usleep.o)
 .bss           0x000587b8        0x0 ../niosII_simple_socket_server_1_bsp/\libucosii_bsp.a(alt_env_lock.o)
 .bss           0x000587b8        0x0 ../niosII_simple_socket_server_1_bsp/\libucosii_bsp.a(alt_malloc_lock.o)
 .bss           0x000587b8        0x0 ../niosII_simple_socket_server_1_bsp/\libucosii_bsp.a(os_core.o)
 .bss           0x000587b8        0x0 ../niosII_simple_socket_server_1_bsp/\libucosii_bsp.a(os_dbg.o)
 .bss           0x000587b8        0x0 ../niosII_simple_socket_server_1_bsp/\libucosii_bsp.a(os_flag.o)
 .bss           0x000587b8        0x0 ../niosII_simple_socket_server_1_bsp/\libucosii_bsp.a(os_mbox.o)
 .bss           0x000587b8        0x0 ../niosII_simple_socket_server_1_bsp/\libucosii_bsp.a(os_mem.o)
 .bss           0x000587b8        0x0 ../niosII_simple_socket_server_1_bsp/\libucosii_bsp.a(os_q.o)
 .bss           0x000587b8        0x0 ../niosII_simple_socket_server_1_bsp/\libucosii_bsp.a(os_sem.o)
 .bss           0x000587b8        0x0 ../niosII_simple_socket_server_1_bsp/\libucosii_bsp.a(os_task.o)
 .bss           0x000587b8        0x0 ../niosII_simple_socket_server_1_bsp/\libucosii_bsp.a(os_time.o)
 .bss           0x000587b8        0x0 ../niosII_simple_socket_server_1_bsp/\libucosii_bsp.a(alt_sys_init.o)
 .bss           0x000587b8        0x0 ../niosII_simple_socket_server_1_bsp/\libucosii_bsp.a(altera_avalon_cfi_flash.o)
 .bss           0x000587b8        0x0 ../niosII_simple_socket_server_1_bsp/\libucosii_bsp.a(altera_avalon_cfi_flash_table.o)
 .bss           0x000587b8        0x0 ../niosII_simple_socket_server_1_bsp/\libucosii_bsp.a(altera_avalon_jtag_uart_fd.o)
 .bss           0x000587b8        0x0 ../niosII_simple_socket_server_1_bsp/\libucosii_bsp.a(altera_avalon_jtag_uart_init.o)
 .bss           0x000587b8        0x0 ../niosII_simple_socket_server_1_bsp/\libucosii_bsp.a(altera_avalon_jtag_uart_ioctl.o)
 .bss           0x000587b8        0x0 ../niosII_simple_socket_server_1_bsp/\libucosii_bsp.a(altera_avalon_jtag_uart_read.o)
 .bss           0x000587b8        0x0 ../niosII_simple_socket_server_1_bsp/\libucosii_bsp.a(altera_avalon_jtag_uart_write.o)
 .bss           0x000587b8        0x0 ../niosII_simple_socket_server_1_bsp/\libucosii_bsp.a(altera_avalon_lcd_16207.o)
 .bss           0x000587b8        0x0 ../niosII_simple_socket_server_1_bsp/\libucosii_bsp.a(altera_avalon_lcd_16207_fd.o)
 .bss           0x000587b8        0x0 ../niosII_simple_socket_server_1_bsp/\libucosii_bsp.a(altera_avalon_sgdma.o)
 .bss           0x000587b8        0x0 ../niosII_simple_socket_server_1_bsp/\libucosii_bsp.a(altera_avalon_timer_sc.o)
 .bss           0x000587b8        0x0 ../niosII_simple_socket_server_1_bsp/\libucosii_bsp.a(altera_avalon_tse.o)
 .bss           0x000587b8        0x0 ../niosII_simple_socket_server_1_bsp/\libucosii_bsp.a(altera_avalon_uart_fd.o)
 .bss           0x000587b8        0x0 ../niosII_simple_socket_server_1_bsp/\libucosii_bsp.a(altera_avalon_uart_init.o)
 .bss           0x000587b8        0x0 ../niosII_simple_socket_server_1_bsp/\libucosii_bsp.a(altera_avalon_uart_read.o)
 .bss           0x000587b8        0x0 ../niosII_simple_socket_server_1_bsp/\libucosii_bsp.a(altera_avalon_uart_write.o)
 .bss           0x000587b8        0x0 ../niosII_simple_socket_server_1_bsp/\libucosii_bsp.a(ins_tse_mac.o)
 .bss           0x000587b8        0x0 ../niosII_simple_socket_server_1_bsp/\libucosii_bsp.a(alt_iniche_close.o)
 .bss           0x000587b8        0x0 ../niosII_simple_socket_server_1_bsp/\libucosii_bsp.a(alt_iniche_dev.o)
 .bss           0x000587b8        0x0 ../niosII_simple_socket_server_1_bsp/\libucosii_bsp.a(alt_iniche_read.o)
 .bss           0x000587b8        0x0 ../niosII_simple_socket_server_1_bsp/\libucosii_bsp.a(alt_iniche_write.o)
 .bss           0x000587b8        0x0 ../niosII_simple_socket_server_1_bsp/\libucosii_bsp.a(ipnet.o)
 .bss           0x000587b8       0x3c ../niosII_simple_socket_server_1_bsp/\libucosii_bsp.a(ipstart.o)
 .bss           0x000587f4        0x0 ../niosII_simple_socket_server_1_bsp/\libucosii_bsp.a(igmp_cmn.o)
 .bss           0x000587f4        0x0 ../niosII_simple_socket_server_1_bsp/\libucosii_bsp.a(bsdsock.o)
 .bss           0x000587f4        0x0 ../niosII_simple_socket_server_1_bsp/\libucosii_bsp.a(cksum.o)
 .bss           0x000587f4       0x18 ../niosII_simple_socket_server_1_bsp/\libucosii_bsp.a(in_utils.o)
 .bss           0x0005880c        0x0 ../niosII_simple_socket_server_1_bsp/\libucosii_bsp.a(netmain.o)
 .bss           0x0005880c        0x0 ../niosII_simple_socket_server_1_bsp/\libucosii_bsp.a(tk_crnos.o)
 .bss           0x0005880c        0x0 ../niosII_simple_socket_server_1_bsp/\libucosii_bsp.a(pktalloc.o)
 .bss           0x0005880c        0x0 ../niosII_simple_socket_server_1_bsp/\libucosii_bsp.a(q.o)
 .bss           0x0005880c        0x0 ../niosII_simple_socket_server_1_bsp/\libucosii_bsp.a(asm_cksum.o)
 .bss           0x0005880c        0x0 ../niosII_simple_socket_server_1_bsp/\libucosii_bsp.a(brdutils.o)
 .bss           0x0005880c        0x0 ../niosII_simple_socket_server_1_bsp/\libucosii_bsp.a(osportco.o)
 .bss           0x0005880c        0x0 ../niosII_simple_socket_server_1_bsp/\libucosii_bsp.a(targnios.o)
 .bss           0x0005880c        0x0 ../niosII_simple_socket_server_1_bsp/\libucosii_bsp.a(nptcp.o)
 .bss           0x0005880c        0x0 ../niosII_simple_socket_server_1_bsp/\libucosii_bsp.a(rawsock.o)
 .bss           0x0005880c        0x0 ../niosII_simple_socket_server_1_bsp/\libucosii_bsp.a(sockcall.o)
 .bss           0x0005880c        0x0 ../niosII_simple_socket_server_1_bsp/\libucosii_bsp.a(socket.o)
 .bss           0x0005880c        0x0 ../niosII_simple_socket_server_1_bsp/\libucosii_bsp.a(socket2.o)
 .bss           0x0005880c        0x0 ../niosII_simple_socket_server_1_bsp/\libucosii_bsp.a(soselect.o)
 .bss           0x0005880c        0x0 ../niosII_simple_socket_server_1_bsp/\libucosii_bsp.a(tcp_in.o)
 .bss           0x0005880c        0x0 ../niosII_simple_socket_server_1_bsp/\libucosii_bsp.a(tcp_out.o)
 .bss           0x0005880c        0x0 ../niosII_simple_socket_server_1_bsp/\libucosii_bsp.a(tcp_subr.o)
 .bss           0x0005880c        0x0 ../niosII_simple_socket_server_1_bsp/\libucosii_bsp.a(tcp_timr.o)
 .bss           0x0005880c        0x0 ../niosII_simple_socket_server_1_bsp/\libucosii_bsp.a(tcp_usr.o)
 .bss           0x0005880c        0x0 ../niosII_simple_socket_server_1_bsp/\libucosii_bsp.a(tcp_zio.o)
 .bss           0x0005880c        0x0 ../niosII_simple_socket_server_1_bsp/\libucosii_bsp.a(tcpport.o)
 .bss           0x0005880c        0x0 ../niosII_simple_socket_server_1_bsp/\libucosii_bsp.a(udpsock.o)
 .bss           0x0005880c        0x0 ../niosII_simple_socket_server_1_bsp/\libucosii_bsp.a(alt_alarm_start.o)
 .bss           0x0005880c        0x0 ../niosII_simple_socket_server_1_bsp/\libucosii_bsp.a(alt_busy_sleep.o)
 .bss           0x0005880c        0x0 ../niosII_simple_socket_server_1_bsp/\libucosii_bsp.a(alt_close.o)
 .bss           0x0005880c        0x0 ../niosII_simple_socket_server_1_bsp/\libucosii_bsp.a(alt_dcache_flush.o)
 .bss           0x0005880c        0x0 ../niosII_simple_socket_server_1_bsp/\libucosii_bsp.a(alt_dcache_flush_all.o)
 .bss           0x0005880c        0x0 ../niosII_simple_socket_server_1_bsp/\libucosii_bsp.a(alt_dev.o)
 .bss           0x0005880c        0x0 ../niosII_simple_socket_server_1_bsp/\libucosii_bsp.a(alt_dev_llist_insert.o)
 .bss           0x0005880c        0x0 ../niosII_simple_socket_server_1_bsp/\libucosii_bsp.a(alt_do_ctors.o)
 .bss           0x0005880c        0x0 ../niosII_simple_socket_server_1_bsp/\libucosii_bsp.a(alt_do_dtors.o)
 .bss           0x0005880c        0x0 ../niosII_simple_socket_server_1_bsp/\libucosii_bsp.a(alt_errno.o)
 .bss           0x0005880c        0x0 ../niosII_simple_socket_server_1_bsp/\libucosii_bsp.a(alt_find_dev.o)
 .bss           0x0005880c        0x0 ../niosII_simple_socket_server_1_bsp/\libucosii_bsp.a(alt_icache_flush_all.o)
 .bss           0x0005880c        0x0 ../niosII_simple_socket_server_1_bsp/\libucosii_bsp.a(alt_iic.o)
 .bss           0x0005880c        0x0 ../niosII_simple_socket_server_1_bsp/\libucosii_bsp.a(alt_iic_isr_register.o)
 .bss           0x0005880c        0x0 ../niosII_simple_socket_server_1_bsp/\libucosii_bsp.a(alt_io_redirect.o)
 .bss           0x0005880c        0x0 ../niosII_simple_socket_server_1_bsp/\libucosii_bsp.a(alt_irq_entry.o)
 .bss           0x0005880c        0x0 ../niosII_simple_socket_server_1_bsp/\libucosii_bsp.a(alt_irq_handler.o)
 .bss           0x0005880c        0x0 ../niosII_simple_socket_server_1_bsp/\libucosii_bsp.a(alt_irq_vars.o)
 .bss           0x0005880c        0x0 ../niosII_simple_socket_server_1_bsp/\libucosii_bsp.a(alt_open.o)
 .bss           0x0005880c        0x0 ../niosII_simple_socket_server_1_bsp/\libucosii_bsp.a(alt_read.o)
 .bss           0x0005880c        0x0 ../niosII_simple_socket_server_1_bsp/\libucosii_bsp.a(alt_release_fd.o)
 .bss           0x0005880c        0x0 ../niosII_simple_socket_server_1_bsp/\libucosii_bsp.a(alt_remap_cached.o)
 .bss           0x0005880c        0x0 ../niosII_simple_socket_server_1_bsp/\libucosii_bsp.a(alt_remap_uncached.o)
 .bss           0x0005880c        0x0 ../niosII_simple_socket_server_1_bsp/\libucosii_bsp.a(alt_tick.o)
 .bss           0x0005880c        0x0 ../niosII_simple_socket_server_1_bsp/\libucosii_bsp.a(alt_uncached_malloc.o)
 .bss           0x0005880c        0x0 ../niosII_simple_socket_server_1_bsp/\libucosii_bsp.a(alt_write.o)
 .bss           0x0005880c        0x0 ../niosII_simple_socket_server_1_bsp/\libucosii_bsp.a(altera_nios2_irq.o)
 .bss           0x0005880c        0x0 ../niosII_simple_socket_server_1_bsp/\libucosii_bsp.a(os_cpu_a.o)
 .bss           0x0005880c        0x0 ../niosII_simple_socket_server_1_bsp/\libucosii_bsp.a(os_cpu_c.o)
 .bss           0x0005880c        0x0 ../niosII_simple_socket_server_1_bsp/\libucosii_bsp.a(altera_avalon_cfi_flash_amd.o)
 .bss           0x0005880c        0x0 ../niosII_simple_socket_server_1_bsp/\libucosii_bsp.a(altera_avalon_cfi_flash_intel.o)
 .bss           0x0005880c        0x0 ../niosII_simple_socket_server_1_bsp/\libucosii_bsp.a(allports.o)
 .bss           0x0005880c        0x0 ../niosII_simple_socket_server_1_bsp/\libucosii_bsp.a(timeouts.o)
 .bss           0x0005880c        0x0 ../niosII_simple_socket_server_1_bsp/\libucosii_bsp.a(tk_misc.o)
 .bss           0x0005880c        0x0 ../niosII_simple_socket_server_1_bsp/\libucosii_bsp.a(alt_iniche_fcntl.o)
 .bss           0x0005880c        0x0 ../niosII_simple_socket_server_1_bsp/\libucosii_bsp.a(et_arp.o)
 .bss           0x0005880c        0x0 ../niosII_simple_socket_server_1_bsp/\libucosii_bsp.a(iface.o)
 .bss           0x0005880c        0x0 ../niosII_simple_socket_server_1_bsp/\libucosii_bsp.a(ip.o)
 .bss           0x0005880c        0x0 ../niosII_simple_socket_server_1_bsp/\libucosii_bsp.a(ip_reasm.o)
 .bss           0x0005880c        0x0 ../niosII_simple_socket_server_1_bsp/\libucosii_bsp.a(ipdemux.o)
 .bss           0x0005880c        0x0 ../niosII_simple_socket_server_1_bsp/\libucosii_bsp.a(ipmc.o)
 .bss           0x0005880c        0x0 ../niosII_simple_socket_server_1_bsp/\libucosii_bsp.a(ipport.o)
 .bss           0x0005880c        0x0 ../niosII_simple_socket_server_1_bsp/\libucosii_bsp.a(ipraw.o)
 .bss           0x0005880c        0x0 ../niosII_simple_socket_server_1_bsp/\libucosii_bsp.a(iproute.o)
 .bss           0x0005880c        0x0 ../niosII_simple_socket_server_1_bsp/\libucosii_bsp.a(udp.o)
 .bss           0x0005880c        0x0 ../niosII_simple_socket_server_1_bsp/\libucosii_bsp.a(igmp.o)
 .bss           0x0005880c        0x0 ../niosII_simple_socket_server_1_bsp/\libucosii_bsp.a(igmp2.o)
 .bss           0x0005880c        0x0 ../niosII_simple_socket_server_1_bsp/\libucosii_bsp.a(ipopt.o)
 .bss           0x0005880c        0x0 ../niosII_simple_socket_server_1_bsp/\libucosii_bsp.a(u_mctest.o)
 .bss           0x0005880c        0x0 ../niosII_simple_socket_server_1_bsp/\libucosii_bsp.a(memdev.o)
 .bss           0x0005880c       0x1e ../niosII_simple_socket_server_1_bsp/\libucosii_bsp.a(parseip.o)
 .bss           0x0005882a        0x0 ../niosII_simple_socket_server_1_bsp/\libucosii_bsp.a(tcpcksum.o)
 .bss           0x0005882a        0x0 ../niosII_simple_socket_server_1_bsp/\libucosii_bsp.a(udp_open.o)
 .bss           0x0005882a        0x0 ../niosII_simple_socket_server_1_bsp/\libucosii_bsp.a(in_pcb.o)
 .bss           0x0005882a        0x0 ../niosII_simple_socket_server_1_bsp/\libucosii_bsp.a(vfsfiles.o)
 .bss           0x0005882a        0x0 ../niosII_simple_socket_server_1_bsp/\libucosii_bsp.a(vfsport.o)
 .bss           0x0005882a        0x0 ../niosII_simple_socket_server_1_bsp/\libucosii_bsp.a(alt_exception_entry.o)
 .bss           0x0005882a        0x0 ../niosII_simple_socket_server_1_bsp/\libucosii_bsp.a(alt_fcntl.o)
 .bss           0x0005882a        0x0 ../niosII_simple_socket_server_1_bsp/\libucosii_bsp.a(alt_find_file.o)
 .bss           0x0005882a        0x0 ../niosII_simple_socket_server_1_bsp/\libucosii_bsp.a(alt_get_fd.o)
 .bss           0x0005882a        0x0 ../niosII_simple_socket_server_1_bsp/\libucosii_bsp.a(alt_icache_flush.o)
 .bss           0x0005882a        0x0 ../niosII_simple_socket_server_1_bsp/\libucosii_bsp.a(icmp.o)
 .bss           0x0005882a        0x0 c:/altera/12.0/nios2eds/bin/gnu/h-i686-mingw32/bin/../lib/gcc/nios2-elf/4.1.2/../../../../nios2-elf/lib\libc.a(lib_a-atexit.o)
 .bss           0x0005882a        0x0 c:/altera/12.0/nios2eds/bin/gnu/h-i686-mingw32/bin/../lib/gcc/nios2-elf/4.1.2/../../../../nios2-elf/lib\libc.a(lib_a-atoi.o)
 .bss           0x0005882a        0x0 c:/altera/12.0/nios2eds/bin/gnu/h-i686-mingw32/bin/../lib/gcc/nios2-elf/4.1.2/../../../../nios2-elf/lib\libc.a(lib_a-calloc.o)
 .bss           0x0005882a        0x0 c:/altera/12.0/nios2eds/bin/gnu/h-i686-mingw32/bin/../lib/gcc/nios2-elf/4.1.2/../../../../nios2-elf/lib\libc.a(lib_a-exit.o)
 .bss           0x0005882a        0x0 c:/altera/12.0/nios2eds/bin/gnu/h-i686-mingw32/bin/../lib/gcc/nios2-elf/4.1.2/../../../../nios2-elf/lib\libc.a(lib_a-getc.o)
 .bss           0x0005882a        0x0 c:/altera/12.0/nios2eds/bin/gnu/h-i686-mingw32/bin/../lib/gcc/nios2-elf/4.1.2/../../../../nios2-elf/lib\libc.a(lib_a-memcmp.o)
 .bss           0x0005882a        0x0 c:/altera/12.0/nios2eds/bin/gnu/h-i686-mingw32/bin/../lib/gcc/nios2-elf/4.1.2/../../../../nios2-elf/lib\libc.a(lib_a-rget.o)
 .bss           0x0005882a        0x0 c:/altera/12.0/nios2eds/bin/gnu/h-i686-mingw32/bin/../lib/gcc/nios2-elf/4.1.2/../../../../nios2-elf/lib\libc.a(lib_a-strcpy.o)
 .bss           0x0005882a        0x0 c:/altera/12.0/nios2eds/bin/gnu/h-i686-mingw32/bin/../lib/gcc/nios2-elf/4.1.2/../../../../nios2-elf/lib\libc.a(lib_a-strncmp.o)
 .bss           0x0005882a        0x0 c:/altera/12.0/nios2eds/bin/gnu/h-i686-mingw32/bin/../lib/gcc/nios2-elf/4.1.2/../../../../nios2-elf/lib\libc.a(lib_a-strtol.o)
 .bss           0x0005882a        0x0 c:/altera/12.0/nios2eds/bin/gnu/h-i686-mingw32/bin/../lib/gcc/nios2-elf/4.1.2/../../../../nios2-elf/lib\libc.a(lib_a-vprintf.o)
 .bss           0x0005882a        0x0 c:/altera/12.0/nios2eds/bin/gnu/h-i686-mingw32/bin/../lib/gcc/nios2-elf/4.1.2/../../../../nios2-elf/lib\libc.a(lib_a-vsprintf.o)
 .bss           0x0005882a        0x0 c:/altera/12.0/nios2eds/bin/gnu/h-i686-mingw32/bin/../lib/gcc/nios2-elf/4.1.2/../../../../nios2-elf/lib\libc.a(lib_a-__atexit.o)
 .bss           0x0005882a        0x0 c:/altera/12.0/nios2eds/bin/gnu/h-i686-mingw32/bin/../lib/gcc/nios2-elf/4.1.2/../../../../nios2-elf/lib\libc.a(lib_a-__call_atexit.o)
 .bss           0x0005882a        0x0 c:/altera/12.0/nios2eds/bin/gnu/h-i686-mingw32/bin/../lib/gcc/nios2-elf/4.1.2/../../../../nios2-elf/lib\libc.a(lib_a-refill.o)
 .bss           0x0005882a        0x0 ../niosII_simple_socket_server_1_bsp/\libucosii_bsp.a(alt_exit.o)
 *(COMMON)
 *fill*         0x0005882a        0x2 00
 COMMON         0x0005882c    0x40000 obj/iniche_init.o
                0x0005882c                SSSMonitorPhyTaskStk
                0x0007882c                SSSInitialTaskStk
 COMMON         0x0009882c    0x40078 obj/niosII_simple_socket_server.o
                0x0009882c                LEDBlinkTaskStk
                0x000b882c                SSSLEDCommandQTbl
                0x000b88a4                LEDManagementTaskStk
 COMMON         0x000d88a4     0x3224 ../niosII_simple_socket_server_1_bsp/\libucosii_bsp.a(os_core.o)
                0x000d88a4                OSFlagTbl
                0x000d8c14                OSMemTbl
                0x000d9844                OSTaskStatStk
                0x000da044                OSQTbl
                0x000da224                OSTaskIdleStk
                0x000daa24                OSEventTbl
                0x000db564                OSTCBTbl
                0x000dba74                OSTCBPrioTbl
 COMMON         0x000dbac8       0xe0 ../niosII_simple_socket_server_1_bsp/\libucosii_bsp.a(alt_sys_init.o)
                0x000dbac8                tse_mac_if
 COMMON         0x000dbba8       0x20 ../niosII_simple_socket_server_1_bsp/\libucosii_bsp.a(altera_avalon_tse.o)
                0x000dbba8                pmac_groups
                0x000dbbb8                pphy_profiles
 COMMON         0x000dbbc8      0x160 ../niosII_simple_socket_server_1_bsp/\libucosii_bsp.a(ins_tse_mac.o)
                0x000dbbc8                tse_iniche_dev_driver_data
                0x000dbbf8                tse
 COMMON         0x000dbd28       0x14 ../niosII_simple_socket_server_1_bsp/\libucosii_bsp.a(ipnet.o)
                0x000dbd28                rcvdq
 COMMON         0x000dbd3c      0x310 ../niosII_simple_socket_server_1_bsp/\libucosii_bsp.a(ipstart.o)
                0x000dbd3c                netstatic
                0x000dc03c                nets
 COMMON         0x000dc04c       0x64 ../niosII_simple_socket_server_1_bsp/\libucosii_bsp.a(igmp_cmn.o)
                0x000dc04c                igmpstats
 COMMON         0x000dc0b0       0x24 ../niosII_simple_socket_server_1_bsp/\libucosii_bsp.a(in_utils.o)
                0x000dc0b0                eth_prt_buf
                0x000dc0c2                ipreturn
 COMMON         0x000dc0d4      0x128 ../niosII_simple_socket_server_1_bsp/\libucosii_bsp.a(pktalloc.o)
                0x000dc0d4                lilfreeq
                0x000dc0e8                memestats
                0x000dc0f8                pktlog
                0x000dc1e8                bigfreeq
 COMMON         0x000dc1fc      0x1ec ../niosII_simple_socket_server_1_bsp/\libucosii_bsp.a(osportco.o)
                0x000dc1fc                global_tcb_ext
                0x000dc2f8                global_TCPwakeup_set
 COMMON         0x000dc3e8       0x58 ../niosII_simple_socket_server_1_bsp/\libucosii_bsp.a(targnios.o)
                0x000dc3e8                resid_semaphore
                0x000dc428                app_semaphore
 COMMON         0x000dc440       0x78 ../niosII_simple_socket_server_1_bsp/\libucosii_bsp.a(nptcp.o)
                0x000dc440                soq
                0x000dc454                tcpmib
                0x000dc490                mbufq
                0x000dc4a4                mfreeq
 COMMON         0x000dc4b8       0x28 ../niosII_simple_socket_server_1_bsp/\libucosii_bsp.a(tcp_in.o)
                0x000dc4b8                tcp_saveti
 COMMON         0x000dc4e0      0x10c ../niosII_simple_socket_server_1_bsp/\libucosii_bsp.a(tcp_subr.o)
                0x000dc4e0                tcb
                0x000dc50c                tcpstat
 COMMON         0x000dc5ec      0x100 ../niosII_simple_socket_server_1_bsp/\libucosii_bsp.a(alt_irq_handler.o)
                0x000dc5ec                alt_irq
 COMMON         0x000dc6ec       0x64 ../niosII_simple_socket_server_1_bsp/\libucosii_bsp.a(timeouts.o)
                0x000dc6ec                intimers
 COMMON         0x000dc750      0x100 ../niosII_simple_socket_server_1_bsp/\libucosii_bsp.a(et_arp.o)
                0x000dc750                arp_table
 COMMON         0x000dc850       0x14 ../niosII_simple_socket_server_1_bsp/\libucosii_bsp.a(iface.o)
                0x000dc850                netlist
 COMMON         0x000dc864       0x50 ../niosII_simple_socket_server_1_bsp/\libucosii_bsp.a(ip.o)
                0x000dc864                ip_mib
 COMMON         0x000dc8b4       0x18 ../niosII_simple_socket_server_1_bsp/\libucosii_bsp.a(ip_reasm.o)
                0x000dc8b4                ire_stats
 COMMON         0x000dc8cc       0x10 ../niosII_simple_socket_server_1_bsp/\libucosii_bsp.a(udp.o)
                0x000dc8cc                udp_mib
 COMMON         0x000dc8dc       0x68 ../niosII_simple_socket_server_1_bsp/\libucosii_bsp.a(icmp.o)
                0x000dc8dc                icmp_mib
 COMMON         0x000dc944      0x190 c:/altera/12.0/nios2eds/bin/gnu/h-i686-mingw32/bin/../lib/gcc/nios2-elf/4.1.2/../../../../nios2-elf/lib\libc.a(lib_a-atexit.o)
                0x000dc944                _atexit0
                0x000dcad4                . = ALIGN (0x4)
                0x000dcad4                __bss_end = ABSOLUTE (.)

.sdram          0x000dcad4        0x0
                0x000dcad4                PROVIDE (_alt_partition_sdram_start, ABSOLUTE (.))
 *(.sdram. sdram.*)
                0x000dcad4                . = ALIGN (0x4)
                0x000dcad4                PROVIDE (_alt_partition_sdram_end, ABSOLUTE (.))
                0x000dcad4                _end = ABSOLUTE (.)
                0x000dcad4                end = ABSOLUTE (.)
                0x000dcad4                __alt_stack_base = ABSOLUTE (.)
                0x000dcad4                PROVIDE (_alt_partition_sdram_load_addr, LOADADDR (.sdram))

.cfi_flash      0x0a800000        0x0 load address 0x000dcad4
                0x0a800000                PROVIDE (_alt_partition_cfi_flash_start, ABSOLUTE (.))
 *(.cfi_flash. cfi_flash.*)
                0x0a800000                . = ALIGN (0x4)
                0x0a800000                PROVIDE (_alt_partition_cfi_flash_end, ABSOLUTE (.))
                0x000dcad4                PROVIDE (_alt_partition_cfi_flash_load_addr, LOADADDR (.cfi_flash))

.sram           0x0b200000        0x0 load address 0x000dcad4
                0x0b200000                PROVIDE (_alt_partition_sram_start, ABSOLUTE (.))
 *(.sram. sram.*)
                0x0b200000                . = ALIGN (0x4)
                0x0b200000                PROVIDE (_alt_partition_sram_end, ABSOLUTE (.))
                0x000dcad4                PROVIDE (_alt_partition_sram_load_addr, LOADADDR (.sram))

.onchip_memory2
                0x0b420000        0x0 load address 0x000dcad4
                0x0b420000                PROVIDE (_alt_partition_onchip_memory2_start, ABSOLUTE (.))
 *(.onchip_memory2. onchip_memory2.*)
                0x0b420000                . = ALIGN (0x4)
                0x0b420000                PROVIDE (_alt_partition_onchip_memory2_end, ABSOLUTE (.))
                0x000dcad4                PROVIDE (_alt_partition_onchip_memory2_load_addr, LOADADDR (.onchip_memory2))

.descriptor_memory
                0x0b440000        0x0 load address 0x000dcad4
                0x0b440000                PROVIDE (_alt_partition_descriptor_memory_start, ABSOLUTE (.))
 *(.descriptor_memory. descriptor_memory.*)
                0x0b440000                . = ALIGN (0x4)
                0x0b440000                PROVIDE (_alt_partition_descriptor_memory_end, ABSOLUTE (.))
                0x000dcad4                PROVIDE (_alt_partition_descriptor_memory_load_addr, LOADADDR (.descriptor_memory))

.stab
 *(.stab)

.stabstr
 *(.stabstr)

.stab.excl
 *(.stab.excl)

.stab.exclstr
 *(.stab.exclstr)

.stab.index
 *(.stab.index)

.stab.indexstr
 *(.stab.indexstr)

.comment        0x00000000       0x23
 *(.comment)
 .comment       0x00000000       0x23 obj/SSS_DE2_115.o
                                 0x24 (size before relaxing)
 .comment       0x00000000       0x24 obj/alt_eeprom/alt_2_wire.o
 .comment       0x00000000       0x24 obj/alt_eeprom/alt_eeprom.o
 .comment       0x00000000       0x24 obj/alt_error_handler.o
 .comment       0x00000000       0x24 obj/iniche_init.o
 .comment       0x00000000       0x24 obj/led.o
 .comment       0x00000000       0x24 obj/niosII_simple_socket_server.o
 .comment       0x00000000       0x24 c:/altera/12.0/nios2eds/bin/gnu/h-i686-mingw32/bin/../lib/gcc/nios2-elf/4.1.2\libgcc.a(lib2-divmod.o)
 .comment       0x00000000       0x24 c:/altera/12.0/nios2eds/bin/gnu/h-i686-mingw32/bin/../lib/gcc/nios2-elf/4.1.2/../../../../nios2-elf/lib\libc.a(lib_a-ctype_.o)
 .comment       0x00000000       0x24 c:/altera/12.0/nios2eds/bin/gnu/h-i686-mingw32/bin/../lib/gcc/nios2-elf/4.1.2/../../../../nios2-elf/lib\libc.a(lib_a-fprintf.o)
 .comment       0x00000000       0x24 c:/altera/12.0/nios2eds/bin/gnu/h-i686-mingw32/bin/../lib/gcc/nios2-elf/4.1.2/../../../../nios2-elf/lib\libc.a(lib_a-fwrite.o)
 .comment       0x00000000       0x24 c:/altera/12.0/nios2eds/bin/gnu/h-i686-mingw32/bin/../lib/gcc/nios2-elf/4.1.2/../../../../nios2-elf/lib\libc.a(lib_a-impure.o)
 .comment       0x00000000       0x24 c:/altera/12.0/nios2eds/bin/gnu/h-i686-mingw32/bin/../lib/gcc/nios2-elf/4.1.2/../../../../nios2-elf/lib\libc.a(lib_a-malloc.o)
 .comment       0x00000000       0x24 c:/altera/12.0/nios2eds/bin/gnu/h-i686-mingw32/bin/../lib/gcc/nios2-elf/4.1.2/../../../../nios2-elf/lib\libc.a(lib_a-mallocr.o)
 .comment       0x00000000       0x24 c:/altera/12.0/nios2eds/bin/gnu/h-i686-mingw32/bin/../lib/gcc/nios2-elf/4.1.2/../../../../nios2-elf/lib\libc.a(lib_a-memcpy.o)
 .comment       0x00000000       0x24 c:/altera/12.0/nios2eds/bin/gnu/h-i686-mingw32/bin/../lib/gcc/nios2-elf/4.1.2/../../../../nios2-elf/lib\libc.a(lib_a-memmove.o)
 .comment       0x00000000       0x24 c:/altera/12.0/nios2eds/bin/gnu/h-i686-mingw32/bin/../lib/gcc/nios2-elf/4.1.2/../../../../nios2-elf/lib\libc.a(lib_a-memset.o)
 .comment       0x00000000       0x24 c:/altera/12.0/nios2eds/bin/gnu/h-i686-mingw32/bin/../lib/gcc/nios2-elf/4.1.2/../../../../nios2-elf/lib\libc.a(lib_a-perror.o)
 .comment       0x00000000       0x24 c:/altera/12.0/nios2eds/bin/gnu/h-i686-mingw32/bin/../lib/gcc/nios2-elf/4.1.2/../../../../nios2-elf/lib\libc.a(lib_a-printf.o)
 .comment       0x00000000       0x24 c:/altera/12.0/nios2eds/bin/gnu/h-i686-mingw32/bin/../lib/gcc/nios2-elf/4.1.2/../../../../nios2-elf/lib\libc.a(lib_a-putchar.o)
 .comment       0x00000000       0x24 c:/altera/12.0/nios2eds/bin/gnu/h-i686-mingw32/bin/../lib/gcc/nios2-elf/4.1.2/../../../../nios2-elf/lib\libc.a(lib_a-puts.o)
 .comment       0x00000000       0x24 c:/altera/12.0/nios2eds/bin/gnu/h-i686-mingw32/bin/../lib/gcc/nios2-elf/4.1.2/../../../../nios2-elf/lib\libc.a(lib_a-sbrkr.o)
 .comment       0x00000000       0x24 c:/altera/12.0/nios2eds/bin/gnu/h-i686-mingw32/bin/../lib/gcc/nios2-elf/4.1.2/../../../../nios2-elf/lib\libc.a(lib_a-sprintf.o)
 .comment       0x00000000       0x24 c:/altera/12.0/nios2eds/bin/gnu/h-i686-mingw32/bin/../lib/gcc/nios2-elf/4.1.2/../../../../nios2-elf/lib\libc.a(lib_a-strchr.o)
 .comment       0x00000000       0x24 c:/altera/12.0/nios2eds/bin/gnu/h-i686-mingw32/bin/../lib/gcc/nios2-elf/4.1.2/../../../../nios2-elf/lib\libc.a(lib_a-strerror.o)
 .comment       0x00000000       0x24 c:/altera/12.0/nios2eds/bin/gnu/h-i686-mingw32/bin/../lib/gcc/nios2-elf/4.1.2/../../../../nios2-elf/lib\libc.a(lib_a-strlen.o)
 .comment       0x00000000       0x24 c:/altera/12.0/nios2eds/bin/gnu/h-i686-mingw32/bin/../lib/gcc/nios2-elf/4.1.2/../../../../nios2-elf/lib\libc.a(lib_a-u_strerr.o)
 .comment       0x00000000       0x24 c:/altera/12.0/nios2eds/bin/gnu/h-i686-mingw32/bin/../lib/gcc/nios2-elf/4.1.2/../../../../nios2-elf/lib\libc.a(lib_a-vfprintf.o)
 .comment       0x00000000       0x24 c:/altera/12.0/nios2eds/bin/gnu/h-i686-mingw32/bin/../lib/gcc/nios2-elf/4.1.2/../../../../nios2-elf/lib\libc.a(lib_a-wsetup.o)
 .comment       0x00000000       0x24 c:/altera/12.0/nios2eds/bin/gnu/h-i686-mingw32/bin/../lib/gcc/nios2-elf/4.1.2/../../../../nios2-elf/lib\libc.a(lib_a-dtoa.o)
 .comment       0x00000000       0x24 c:/altera/12.0/nios2eds/bin/gnu/h-i686-mingw32/bin/../lib/gcc/nios2-elf/4.1.2/../../../../nios2-elf/lib\libc.a(lib_a-fflush.o)
 .comment       0x00000000       0x24 c:/altera/12.0/nios2eds/bin/gnu/h-i686-mingw32/bin/../lib/gcc/nios2-elf/4.1.2/../../../../nios2-elf/lib\libc.a(lib_a-findfp.o)
 .comment       0x00000000       0x24 c:/altera/12.0/nios2eds/bin/gnu/h-i686-mingw32/bin/../lib/gcc/nios2-elf/4.1.2/../../../../nios2-elf/lib\libc.a(lib_a-fputc.o)
 .comment       0x00000000       0x24 c:/altera/12.0/nios2eds/bin/gnu/h-i686-mingw32/bin/../lib/gcc/nios2-elf/4.1.2/../../../../nios2-elf/lib\libc.a(lib_a-fputs.o)
 .comment       0x00000000       0x24 c:/altera/12.0/nios2eds/bin/gnu/h-i686-mingw32/bin/../lib/gcc/nios2-elf/4.1.2/../../../../nios2-elf/lib\libc.a(lib_a-freer.o)
 .comment       0x00000000       0x24 c:/altera/12.0/nios2eds/bin/gnu/h-i686-mingw32/bin/../lib/gcc/nios2-elf/4.1.2/../../../../nios2-elf/lib\libc.a(lib_a-fvwrite.o)
 .comment       0x00000000       0x24 c:/altera/12.0/nios2eds/bin/gnu/h-i686-mingw32/bin/../lib/gcc/nios2-elf/4.1.2/../../../../nios2-elf/lib\libc.a(lib_a-fwalk.o)
 .comment       0x00000000       0x24 c:/altera/12.0/nios2eds/bin/gnu/h-i686-mingw32/bin/../lib/gcc/nios2-elf/4.1.2/../../../../nios2-elf/lib\libc.a(lib_a-int_errno.o)
 .comment       0x00000000       0x24 c:/altera/12.0/nios2eds/bin/gnu/h-i686-mingw32/bin/../lib/gcc/nios2-elf/4.1.2/../../../../nios2-elf/lib\libc.a(lib_a-locale.o)
 .comment       0x00000000       0x24 c:/altera/12.0/nios2eds/bin/gnu/h-i686-mingw32/bin/../lib/gcc/nios2-elf/4.1.2/../../../../nios2-elf/lib\libc.a(lib_a-makebuf.o)
 .comment       0x00000000       0x24 c:/altera/12.0/nios2eds/bin/gnu/h-i686-mingw32/bin/../lib/gcc/nios2-elf/4.1.2/../../../../nios2-elf/lib\libc.a(lib_a-memchr.o)
 .comment       0x00000000       0x24 c:/altera/12.0/nios2eds/bin/gnu/h-i686-mingw32/bin/../lib/gcc/nios2-elf/4.1.2/../../../../nios2-elf/lib\libc.a(lib_a-mprec.o)
 .comment       0x00000000       0x24 c:/altera/12.0/nios2eds/bin/gnu/h-i686-mingw32/bin/../lib/gcc/nios2-elf/4.1.2/../../../../nios2-elf/lib\libc.a(lib_a-putc.o)
 .comment       0x00000000       0x24 c:/altera/12.0/nios2eds/bin/gnu/h-i686-mingw32/bin/../lib/gcc/nios2-elf/4.1.2/../../../../nios2-elf/lib\libc.a(lib_a-reallocr.o)
 .comment       0x00000000       0x24 c:/altera/12.0/nios2eds/bin/gnu/h-i686-mingw32/bin/../lib/gcc/nios2-elf/4.1.2/../../../../nios2-elf/lib\libc.a(lib_a-s_isinfd.o)
 .comment       0x00000000       0x24 c:/altera/12.0/nios2eds/bin/gnu/h-i686-mingw32/bin/../lib/gcc/nios2-elf/4.1.2/../../../../nios2-elf/lib\libc.a(lib_a-s_isnand.o)
 .comment       0x00000000       0x24 c:/altera/12.0/nios2eds/bin/gnu/h-i686-mingw32/bin/../lib/gcc/nios2-elf/4.1.2/../../../../nios2-elf/lib\libc.a(lib_a-stdio.o)
 .comment       0x00000000       0x24 c:/altera/12.0/nios2eds/bin/gnu/h-i686-mingw32/bin/../lib/gcc/nios2-elf/4.1.2/../../../../nios2-elf/lib\libc.a(lib_a-strcmp.o)
 .comment       0x00000000       0x24 c:/altera/12.0/nios2eds/bin/gnu/h-i686-mingw32/bin/../lib/gcc/nios2-elf/4.1.2/../../../../nios2-elf/lib\libc.a(lib_a-wbuf.o)
 .comment       0x00000000       0x24 c:/altera/12.0/nios2eds/bin/gnu/h-i686-mingw32/bin/../lib/gcc/nios2-elf/4.1.2/../../../../nios2-elf/lib\libc.a(lib_a-writer.o)
 .comment       0x00000000       0x24 c:/altera/12.0/nios2eds/bin/gnu/h-i686-mingw32/bin/../lib/gcc/nios2-elf/4.1.2/../../../../nios2-elf/lib\libc.a(lib_a-callocr.o)
 .comment       0x00000000       0x24 c:/altera/12.0/nios2eds/bin/gnu/h-i686-mingw32/bin/../lib/gcc/nios2-elf/4.1.2/../../../../nios2-elf/lib\libc.a(lib_a-closer.o)
 .comment       0x00000000       0x24 c:/altera/12.0/nios2eds/bin/gnu/h-i686-mingw32/bin/../lib/gcc/nios2-elf/4.1.2/../../../../nios2-elf/lib\libc.a(lib_a-fclose.o)
 .comment       0x00000000       0x24 c:/altera/12.0/nios2eds/bin/gnu/h-i686-mingw32/bin/../lib/gcc/nios2-elf/4.1.2/../../../../nios2-elf/lib\libc.a(lib_a-fstatr.o)
 .comment       0x00000000       0x24 c:/altera/12.0/nios2eds/bin/gnu/h-i686-mingw32/bin/../lib/gcc/nios2-elf/4.1.2/../../../../nios2-elf/lib\libc.a(lib_a-isattyr.o)
 .comment       0x00000000       0x24 c:/altera/12.0/nios2eds/bin/gnu/h-i686-mingw32/bin/../lib/gcc/nios2-elf/4.1.2/../../../../nios2-elf/lib\libc.a(lib_a-lseekr.o)
 .comment       0x00000000       0x24 c:/altera/12.0/nios2eds/bin/gnu/h-i686-mingw32/bin/../lib/gcc/nios2-elf/4.1.2/../../../../nios2-elf/lib\libc.a(lib_a-readr.o)
 .comment       0x00000000       0x24 c:/altera/12.0/nios2eds/bin/gnu/h-i686-mingw32/bin/../lib/gcc/nios2-elf/4.1.2\libgcc.a(_udivdi3.o)
 .comment       0x00000000       0x24 c:/altera/12.0/nios2eds/bin/gnu/h-i686-mingw32/bin/../lib/gcc/nios2-elf/4.1.2\libgcc.a(_umoddi3.o)
 .comment       0x00000000       0x24 c:/altera/12.0/nios2eds/bin/gnu/h-i686-mingw32/bin/../lib/gcc/nios2-elf/4.1.2\libgcc.a(_addsub_df.o)
 .comment       0x00000000       0x24 c:/altera/12.0/nios2eds/bin/gnu/h-i686-mingw32/bin/../lib/gcc/nios2-elf/4.1.2\libgcc.a(_mul_df.o)
 .comment       0x00000000       0x24 c:/altera/12.0/nios2eds/bin/gnu/h-i686-mingw32/bin/../lib/gcc/nios2-elf/4.1.2\libgcc.a(_div_df.o)
 .comment       0x00000000       0x24 c:/altera/12.0/nios2eds/bin/gnu/h-i686-mingw32/bin/../lib/gcc/nios2-elf/4.1.2\libgcc.a(_eq_df.o)
 .comment       0x00000000       0x24 c:/altera/12.0/nios2eds/bin/gnu/h-i686-mingw32/bin/../lib/gcc/nios2-elf/4.1.2\libgcc.a(_ne_df.o)
 .comment       0x00000000       0x24 c:/altera/12.0/nios2eds/bin/gnu/h-i686-mingw32/bin/../lib/gcc/nios2-elf/4.1.2\libgcc.a(_gt_df.o)
 .comment       0x00000000       0x24 c:/altera/12.0/nios2eds/bin/gnu/h-i686-mingw32/bin/../lib/gcc/nios2-elf/4.1.2\libgcc.a(_ge_df.o)
 .comment       0x00000000       0x24 c:/altera/12.0/nios2eds/bin/gnu/h-i686-mingw32/bin/../lib/gcc/nios2-elf/4.1.2\libgcc.a(_lt_df.o)
 .comment       0x00000000       0x24 c:/altera/12.0/nios2eds/bin/gnu/h-i686-mingw32/bin/../lib/gcc/nios2-elf/4.1.2\libgcc.a(_si_to_df.o)
 .comment       0x00000000       0x24 c:/altera/12.0/nios2eds/bin/gnu/h-i686-mingw32/bin/../lib/gcc/nios2-elf/4.1.2\libgcc.a(_df_to_si.o)
 .comment       0x00000000       0x24 c:/altera/12.0/nios2eds/bin/gnu/h-i686-mingw32/bin/../lib/gcc/nios2-elf/4.1.2\libgcc.a(_thenan_df.o)
 .comment       0x00000000       0x24 c:/altera/12.0/nios2eds/bin/gnu/h-i686-mingw32/bin/../lib/gcc/nios2-elf/4.1.2\libgcc.a(_usi_to_df.o)
 .comment       0x00000000       0x24 c:/altera/12.0/nios2eds/bin/gnu/h-i686-mingw32/bin/../lib/gcc/nios2-elf/4.1.2\libgcc.a(_muldi3.o)
 .comment       0x00000000       0x24 c:/altera/12.0/nios2eds/bin/gnu/h-i686-mingw32/bin/../lib/gcc/nios2-elf/4.1.2\libgcc.a(_clz.o)
 .comment       0x00000000       0x24 c:/altera/12.0/nios2eds/bin/gnu/h-i686-mingw32/bin/../lib/gcc/nios2-elf/4.1.2\libgcc.a(_clzsi2.o)
 .comment       0x00000000       0x24 c:/altera/12.0/nios2eds/bin/gnu/h-i686-mingw32/bin/../lib/gcc/nios2-elf/4.1.2\libgcc.a(_pack_df.o)
 .comment       0x00000000       0x24 c:/altera/12.0/nios2eds/bin/gnu/h-i686-mingw32/bin/../lib/gcc/nios2-elf/4.1.2\libgcc.a(_unpack_df.o)
 .comment       0x00000000       0x24 c:/altera/12.0/nios2eds/bin/gnu/h-i686-mingw32/bin/../lib/gcc/nios2-elf/4.1.2\libgcc.a(_fpcmp_parts_df.o)
 .comment       0x00000000       0x24 ../niosII_simple_socket_server_1_bsp/\libucosii_bsp.a(alt_flash_dev.o)
 .comment       0x00000000       0x24 ../niosII_simple_socket_server_1_bsp/\libucosii_bsp.a(alt_fstat.o)
 .comment       0x00000000       0x24 ../niosII_simple_socket_server_1_bsp/\libucosii_bsp.a(alt_isatty.o)
 .comment       0x00000000       0x24 ../niosII_simple_socket_server_1_bsp/\libucosii_bsp.a(alt_load.o)
 .comment       0x00000000       0x24 ../niosII_simple_socket_server_1_bsp/\libucosii_bsp.a(alt_lseek.o)
 .comment       0x00000000       0x24 ../niosII_simple_socket_server_1_bsp/\libucosii_bsp.a(alt_main.o)
 .comment       0x00000000       0x24 ../niosII_simple_socket_server_1_bsp/\libucosii_bsp.a(alt_sbrk.o)
 .comment       0x00000000       0x24 ../niosII_simple_socket_server_1_bsp/\libucosii_bsp.a(alt_usleep.o)
 .comment       0x00000000       0x24 ../niosII_simple_socket_server_1_bsp/\libucosii_bsp.a(alt_env_lock.o)
 .comment       0x00000000       0x24 ../niosII_simple_socket_server_1_bsp/\libucosii_bsp.a(alt_malloc_lock.o)
 .comment       0x00000000       0x24 ../niosII_simple_socket_server_1_bsp/\libucosii_bsp.a(os_core.o)
 .comment       0x00000000       0x24 ../niosII_simple_socket_server_1_bsp/\libucosii_bsp.a(os_dbg.o)
 .comment       0x00000000       0x24 ../niosII_simple_socket_server_1_bsp/\libucosii_bsp.a(os_flag.o)
 .comment       0x00000000       0x24 ../niosII_simple_socket_server_1_bsp/\libucosii_bsp.a(os_mbox.o)
 .comment       0x00000000       0x24 ../niosII_simple_socket_server_1_bsp/\libucosii_bsp.a(os_mem.o)
 .comment       0x00000000       0x24 ../niosII_simple_socket_server_1_bsp/\libucosii_bsp.a(os_q.o)
 .comment       0x00000000       0x24 ../niosII_simple_socket_server_1_bsp/\libucosii_bsp.a(os_sem.o)
 .comment       0x00000000       0x24 ../niosII_simple_socket_server_1_bsp/\libucosii_bsp.a(os_task.o)
 .comment       0x00000000       0x24 ../niosII_simple_socket_server_1_bsp/\libucosii_bsp.a(os_time.o)
 .comment       0x00000000       0x24 ../niosII_simple_socket_server_1_bsp/\libucosii_bsp.a(alt_sys_init.o)
 .comment       0x00000000       0x24 ../niosII_simple_socket_server_1_bsp/\libucosii_bsp.a(altera_avalon_cfi_flash.o)
 .comment       0x00000000       0x24 ../niosII_simple_socket_server_1_bsp/\libucosii_bsp.a(altera_avalon_cfi_flash_table.o)
 .comment       0x00000000       0x24 ../niosII_simple_socket_server_1_bsp/\libucosii_bsp.a(altera_avalon_jtag_uart_fd.o)
 .comment       0x00000000       0x24 ../niosII_simple_socket_server_1_bsp/\libucosii_bsp.a(altera_avalon_jtag_uart_init.o)
 .comment       0x00000000       0x24 ../niosII_simple_socket_server_1_bsp/\libucosii_bsp.a(altera_avalon_jtag_uart_ioctl.o)
 .comment       0x00000000       0x24 ../niosII_simple_socket_server_1_bsp/\libucosii_bsp.a(altera_avalon_jtag_uart_read.o)
 .comment       0x00000000       0x24 ../niosII_simple_socket_server_1_bsp/\libucosii_bsp.a(altera_avalon_jtag_uart_write.o)
 .comment       0x00000000       0x24 ../niosII_simple_socket_server_1_bsp/\libucosii_bsp.a(altera_avalon_lcd_16207.o)
 .comment       0x00000000       0x24 ../niosII_simple_socket_server_1_bsp/\libucosii_bsp.a(altera_avalon_lcd_16207_fd.o)
 .comment       0x00000000       0x24 ../niosII_simple_socket_server_1_bsp/\libucosii_bsp.a(altera_avalon_sgdma.o)
 .comment       0x00000000       0x24 ../niosII_simple_socket_server_1_bsp/\libucosii_bsp.a(altera_avalon_timer_sc.o)
 .comment       0x00000000       0x24 ../niosII_simple_socket_server_1_bsp/\libucosii_bsp.a(altera_avalon_tse.o)
 .comment       0x00000000       0x24 ../niosII_simple_socket_server_1_bsp/\libucosii_bsp.a(altera_avalon_uart_fd.o)
 .comment       0x00000000       0x24 ../niosII_simple_socket_server_1_bsp/\libucosii_bsp.a(altera_avalon_uart_init.o)
 .comment       0x00000000       0x24 ../niosII_simple_socket_server_1_bsp/\libucosii_bsp.a(altera_avalon_uart_read.o)
 .comment       0x00000000       0x24 ../niosII_simple_socket_server_1_bsp/\libucosii_bsp.a(altera_avalon_uart_write.o)
 .comment       0x00000000       0x24 ../niosII_simple_socket_server_1_bsp/\libucosii_bsp.a(ins_tse_mac.o)
 .comment       0x00000000       0x24 ../niosII_simple_socket_server_1_bsp/\libucosii_bsp.a(alt_iniche_close.o)
 .comment       0x00000000       0x24 ../niosII_simple_socket_server_1_bsp/\libucosii_bsp.a(alt_iniche_dev.o)
 .comment       0x00000000       0x24 ../niosII_simple_socket_server_1_bsp/\libucosii_bsp.a(alt_iniche_read.o)
 .comment       0x00000000       0x24 ../niosII_simple_socket_server_1_bsp/\libucosii_bsp.a(alt_iniche_write.o)
 .comment       0x00000000       0x24 ../niosII_simple_socket_server_1_bsp/\libucosii_bsp.a(ipnet.o)
 .comment       0x00000000       0x24 ../niosII_simple_socket_server_1_bsp/\libucosii_bsp.a(ipstart.o)
 .comment       0x00000000       0x24 ../niosII_simple_socket_server_1_bsp/\libucosii_bsp.a(igmp_cmn.o)
 .comment       0x00000000       0x24 ../niosII_simple_socket_server_1_bsp/\libucosii_bsp.a(bsdsock.o)
 .comment       0x00000000       0x24 ../niosII_simple_socket_server_1_bsp/\libucosii_bsp.a(cksum.o)
 .comment       0x00000000       0x24 ../niosII_simple_socket_server_1_bsp/\libucosii_bsp.a(in_utils.o)
 .comment       0x00000000       0x24 ../niosII_simple_socket_server_1_bsp/\libucosii_bsp.a(netmain.o)
 .comment       0x00000000       0x24 ../niosII_simple_socket_server_1_bsp/\libucosii_bsp.a(tk_crnos.o)
 .comment       0x00000000       0x24 ../niosII_simple_socket_server_1_bsp/\libucosii_bsp.a(pktalloc.o)
 .comment       0x00000000       0x24 ../niosII_simple_socket_server_1_bsp/\libucosii_bsp.a(q.o)
 .comment       0x00000000       0x24 ../niosII_simple_socket_server_1_bsp/\libucosii_bsp.a(brdutils.o)
 .comment       0x00000000       0x24 ../niosII_simple_socket_server_1_bsp/\libucosii_bsp.a(osportco.o)
 .comment       0x00000000       0x24 ../niosII_simple_socket_server_1_bsp/\libucosii_bsp.a(targnios.o)
 .comment       0x00000000       0x24 ../niosII_simple_socket_server_1_bsp/\libucosii_bsp.a(nptcp.o)
 .comment       0x00000000       0x24 ../niosII_simple_socket_server_1_bsp/\libucosii_bsp.a(rawsock.o)
 .comment       0x00000000       0x24 ../niosII_simple_socket_server_1_bsp/\libucosii_bsp.a(sockcall.o)
 .comment       0x00000000       0x24 ../niosII_simple_socket_server_1_bsp/\libucosii_bsp.a(socket.o)
 .comment       0x00000000       0x24 ../niosII_simple_socket_server_1_bsp/\libucosii_bsp.a(socket2.o)
 .comment       0x00000000       0x24 ../niosII_simple_socket_server_1_bsp/\libucosii_bsp.a(soselect.o)
 .comment       0x00000000       0x24 ../niosII_simple_socket_server_1_bsp/\libucosii_bsp.a(tcp_in.o)
 .comment       0x00000000       0x24 ../niosII_simple_socket_server_1_bsp/\libucosii_bsp.a(tcp_out.o)
 .comment       0x00000000       0x24 ../niosII_simple_socket_server_1_bsp/\libucosii_bsp.a(tcp_subr.o)
 .comment       0x00000000       0x24 ../niosII_simple_socket_server_1_bsp/\libucosii_bsp.a(tcp_timr.o)
 .comment       0x00000000       0x24 ../niosII_simple_socket_server_1_bsp/\libucosii_bsp.a(tcp_usr.o)
 .comment       0x00000000       0x24 ../niosII_simple_socket_server_1_bsp/\libucosii_bsp.a(tcp_zio.o)
 .comment       0x00000000       0x24 ../niosII_simple_socket_server_1_bsp/\libucosii_bsp.a(tcpport.o)
 .comment       0x00000000       0x24 ../niosII_simple_socket_server_1_bsp/\libucosii_bsp.a(udpsock.o)
 .comment       0x00000000       0x24 ../niosII_simple_socket_server_1_bsp/\libucosii_bsp.a(alt_alarm_start.o)
 .comment       0x00000000       0x24 ../niosII_simple_socket_server_1_bsp/\libucosii_bsp.a(alt_busy_sleep.o)
 .comment       0x00000000       0x24 ../niosII_simple_socket_server_1_bsp/\libucosii_bsp.a(alt_close.o)
 .comment       0x00000000       0x24 ../niosII_simple_socket_server_1_bsp/\libucosii_bsp.a(alt_dcache_flush.o)
 .comment       0x00000000       0x24 ../niosII_simple_socket_server_1_bsp/\libucosii_bsp.a(alt_dcache_flush_all.o)
 .comment       0x00000000       0x24 ../niosII_simple_socket_server_1_bsp/\libucosii_bsp.a(alt_dev.o)
 .comment       0x00000000       0x24 ../niosII_simple_socket_server_1_bsp/\libucosii_bsp.a(alt_dev_llist_insert.o)
 .comment       0x00000000       0x24 ../niosII_simple_socket_server_1_bsp/\libucosii_bsp.a(alt_do_ctors.o)
 .comment       0x00000000       0x24 ../niosII_simple_socket_server_1_bsp/\libucosii_bsp.a(alt_do_dtors.o)
 .comment       0x00000000       0x24 ../niosII_simple_socket_server_1_bsp/\libucosii_bsp.a(alt_errno.o)
 .comment       0x00000000       0x24 ../niosII_simple_socket_server_1_bsp/\libucosii_bsp.a(alt_find_dev.o)
 .comment       0x00000000       0x24 ../niosII_simple_socket_server_1_bsp/\libucosii_bsp.a(alt_icache_flush_all.o)
 .comment       0x00000000       0x24 ../niosII_simple_socket_server_1_bsp/\libucosii_bsp.a(alt_iic.o)
 .comment       0x00000000       0x24 ../niosII_simple_socket_server_1_bsp/\libucosii_bsp.a(alt_iic_isr_register.o)
 .comment       0x00000000       0x24 ../niosII_simple_socket_server_1_bsp/\libucosii_bsp.a(alt_io_redirect.o)
 .comment       0x00000000       0x24 ../niosII_simple_socket_server_1_bsp/\libucosii_bsp.a(alt_irq_handler.o)
 .comment       0x00000000       0x24 ../niosII_simple_socket_server_1_bsp/\libucosii_bsp.a(alt_irq_vars.o)
 .comment       0x00000000       0x24 ../niosII_simple_socket_server_1_bsp/\libucosii_bsp.a(alt_open.o)
 .comment       0x00000000       0x24 ../niosII_simple_socket_server_1_bsp/\libucosii_bsp.a(alt_read.o)
 .comment       0x00000000       0x24 ../niosII_simple_socket_server_1_bsp/\libucosii_bsp.a(alt_release_fd.o)
 .comment       0x00000000       0x24 ../niosII_simple_socket_server_1_bsp/\libucosii_bsp.a(alt_remap_cached.o)
 .comment       0x00000000       0x24 ../niosII_simple_socket_server_1_bsp/\libucosii_bsp.a(alt_remap_uncached.o)
 .comment       0x00000000       0x24 ../niosII_simple_socket_server_1_bsp/\libucosii_bsp.a(alt_tick.o)
 .comment       0x00000000       0x24 ../niosII_simple_socket_server_1_bsp/\libucosii_bsp.a(alt_uncached_malloc.o)
 .comment       0x00000000       0x24 ../niosII_simple_socket_server_1_bsp/\libucosii_bsp.a(alt_write.o)
 .comment       0x00000000       0x24 ../niosII_simple_socket_server_1_bsp/\libucosii_bsp.a(altera_nios2_irq.o)
 .comment       0x00000000       0x24 ../niosII_simple_socket_server_1_bsp/\libucosii_bsp.a(os_cpu_c.o)
 .comment       0x00000000       0x24 ../niosII_simple_socket_server_1_bsp/\libucosii_bsp.a(altera_avalon_cfi_flash_amd.o)
 .comment       0x00000000       0x24 ../niosII_simple_socket_server_1_bsp/\libucosii_bsp.a(altera_avalon_cfi_flash_intel.o)
 .comment       0x00000000       0x24 ../niosII_simple_socket_server_1_bsp/\libucosii_bsp.a(allports.o)
 .comment       0x00000000       0x24 ../niosII_simple_socket_server_1_bsp/\libucosii_bsp.a(timeouts.o)
 .comment       0x00000000       0x24 ../niosII_simple_socket_server_1_bsp/\libucosii_bsp.a(tk_misc.o)
 .comment       0x00000000       0x24 ../niosII_simple_socket_server_1_bsp/\libucosii_bsp.a(alt_iniche_fcntl.o)
 .comment       0x00000000       0x24 ../niosII_simple_socket_server_1_bsp/\libucosii_bsp.a(et_arp.o)
 .comment       0x00000000       0x24 ../niosII_simple_socket_server_1_bsp/\libucosii_bsp.a(iface.o)
 .comment       0x00000000       0x24 ../niosII_simple_socket_server_1_bsp/\libucosii_bsp.a(ip.o)
 .comment       0x00000000       0x24 ../niosII_simple_socket_server_1_bsp/\libucosii_bsp.a(ip_reasm.o)
 .comment       0x00000000       0x24 ../niosII_simple_socket_server_1_bsp/\libucosii_bsp.a(ipdemux.o)
 .comment       0x00000000       0x24 ../niosII_simple_socket_server_1_bsp/\libucosii_bsp.a(ipmc.o)
 .comment       0x00000000       0x24 ../niosII_simple_socket_server_1_bsp/\libucosii_bsp.a(ipport.o)
 .comment       0x00000000       0x24 ../niosII_simple_socket_server_1_bsp/\libucosii_bsp.a(ipraw.o)
 .comment       0x00000000       0x24 ../niosII_simple_socket_server_1_bsp/\libucosii_bsp.a(iproute.o)
 .comment       0x00000000       0x24 ../niosII_simple_socket_server_1_bsp/\libucosii_bsp.a(udp.o)
 .comment       0x00000000       0x24 ../niosII_simple_socket_server_1_bsp/\libucosii_bsp.a(igmp.o)
 .comment       0x00000000       0x24 ../niosII_simple_socket_server_1_bsp/\libucosii_bsp.a(igmp2.o)
 .comment       0x00000000       0x24 ../niosII_simple_socket_server_1_bsp/\libucosii_bsp.a(ipopt.o)
 .comment       0x00000000       0x24 ../niosII_simple_socket_server_1_bsp/\libucosii_bsp.a(u_mctest.o)
 .comment       0x00000000       0x24 ../niosII_simple_socket_server_1_bsp/\libucosii_bsp.a(memdev.o)
 .comment       0x00000000       0x24 ../niosII_simple_socket_server_1_bsp/\libucosii_bsp.a(parseip.o)
 .comment       0x00000000       0x24 ../niosII_simple_socket_server_1_bsp/\libucosii_bsp.a(tcpcksum.o)
 .comment       0x00000000       0x24 ../niosII_simple_socket_server_1_bsp/\libucosii_bsp.a(udp_open.o)
 .comment       0x00000000       0x24 ../niosII_simple_socket_server_1_bsp/\libucosii_bsp.a(in_pcb.o)
 .comment       0x00000000       0x24 ../niosII_simple_socket_server_1_bsp/\libucosii_bsp.a(vfsfiles.o)
 .comment       0x00000000       0x24 ../niosII_simple_socket_server_1_bsp/\libucosii_bsp.a(vfsport.o)
 .comment       0x00000000       0x24 ../niosII_simple_socket_server_1_bsp/\libucosii_bsp.a(alt_fcntl.o)
 .comment       0x00000000       0x24 ../niosII_simple_socket_server_1_bsp/\libucosii_bsp.a(alt_find_file.o)
 .comment       0x00000000       0x24 ../niosII_simple_socket_server_1_bsp/\libucosii_bsp.a(alt_get_fd.o)
 .comment       0x00000000       0x24 ../niosII_simple_socket_server_1_bsp/\libucosii_bsp.a(alt_icache_flush.o)
 .comment       0x00000000       0x24 ../niosII_simple_socket_server_1_bsp/\libucosii_bsp.a(icmp.o)
 .comment       0x00000000       0x24 c:/altera/12.0/nios2eds/bin/gnu/h-i686-mingw32/bin/../lib/gcc/nios2-elf/4.1.2/../../../../nios2-elf/lib\libc.a(lib_a-atexit.o)
 .comment       0x00000000       0x24 c:/altera/12.0/nios2eds/bin/gnu/h-i686-mingw32/bin/../lib/gcc/nios2-elf/4.1.2/../../../../nios2-elf/lib\libc.a(lib_a-atoi.o)
 .comment       0x00000000       0x24 c:/altera/12.0/nios2eds/bin/gnu/h-i686-mingw32/bin/../lib/gcc/nios2-elf/4.1.2/../../../../nios2-elf/lib\libc.a(lib_a-calloc.o)
 .comment       0x00000000       0x24 c:/altera/12.0/nios2eds/bin/gnu/h-i686-mingw32/bin/../lib/gcc/nios2-elf/4.1.2/../../../../nios2-elf/lib\libc.a(lib_a-exit.o)
 .comment       0x00000000       0x24 c:/altera/12.0/nios2eds/bin/gnu/h-i686-mingw32/bin/../lib/gcc/nios2-elf/4.1.2/../../../../nios2-elf/lib\libc.a(lib_a-getc.o)
 .comment       0x00000000       0x24 c:/altera/12.0/nios2eds/bin/gnu/h-i686-mingw32/bin/../lib/gcc/nios2-elf/4.1.2/../../../../nios2-elf/lib\libc.a(lib_a-memcmp.o)
 .comment       0x00000000       0x24 c:/altera/12.0/nios2eds/bin/gnu/h-i686-mingw32/bin/../lib/gcc/nios2-elf/4.1.2/../../../../nios2-elf/lib\libc.a(lib_a-rget.o)
 .comment       0x00000000       0x24 c:/altera/12.0/nios2eds/bin/gnu/h-i686-mingw32/bin/../lib/gcc/nios2-elf/4.1.2/../../../../nios2-elf/lib\libc.a(lib_a-strcpy.o)
 .comment       0x00000000       0x24 c:/altera/12.0/nios2eds/bin/gnu/h-i686-mingw32/bin/../lib/gcc/nios2-elf/4.1.2/../../../../nios2-elf/lib\libc.a(lib_a-strncmp.o)
 .comment       0x00000000       0x24 c:/altera/12.0/nios2eds/bin/gnu/h-i686-mingw32/bin/../lib/gcc/nios2-elf/4.1.2/../../../../nios2-elf/lib\libc.a(lib_a-strtol.o)
 .comment       0x00000000       0x24 c:/altera/12.0/nios2eds/bin/gnu/h-i686-mingw32/bin/../lib/gcc/nios2-elf/4.1.2/../../../../nios2-elf/lib\libc.a(lib_a-vprintf.o)
 .comment       0x00000000       0x24 c:/altera/12.0/nios2eds/bin/gnu/h-i686-mingw32/bin/../lib/gcc/nios2-elf/4.1.2/../../../../nios2-elf/lib\libc.a(lib_a-vsprintf.o)
 .comment       0x00000000       0x24 c:/altera/12.0/nios2eds/bin/gnu/h-i686-mingw32/bin/../lib/gcc/nios2-elf/4.1.2/../../../../nios2-elf/lib\libc.a(lib_a-__atexit.o)
 .comment       0x00000000       0x24 c:/altera/12.0/nios2eds/bin/gnu/h-i686-mingw32/bin/../lib/gcc/nios2-elf/4.1.2/../../../../nios2-elf/lib\libc.a(lib_a-__call_atexit.o)
 .comment       0x00000000       0x24 c:/altera/12.0/nios2eds/bin/gnu/h-i686-mingw32/bin/../lib/gcc/nios2-elf/4.1.2/../../../../nios2-elf/lib\libc.a(lib_a-refill.o)
 .comment       0x00000000       0x24 ../niosII_simple_socket_server_1_bsp/\libucosii_bsp.a(alt_exit.o)

.debug
 *(.debug)

.line
 *(.line)

.debug_srcinfo
 *(.debug_srcinfo)

.debug_sfnames
 *(.debug_sfnames)

.debug_aranges  0x00000000     0x1b78
 *(.debug_aranges)
 .debug_aranges
                0x00000000       0x28 ../niosII_simple_socket_server_1_bsp//obj/HAL/src/crt0.o
 .debug_aranges
                0x00000028       0x20 obj/SSS_DE2_115.o
 .debug_aranges
                0x00000048       0x20 obj/alt_eeprom/alt_2_wire.o
 .debug_aranges
                0x00000068       0x20 obj/alt_eeprom/alt_eeprom.o
 .debug_aranges
                0x00000088       0x20 obj/alt_error_handler.o
 .debug_aranges
                0x000000a8       0x20 obj/iniche_init.o
 .debug_aranges
                0x000000c8       0x20 obj/led.o
 .debug_aranges
                0x000000e8       0x20 obj/niosII_simple_socket_server.o
 .debug_aranges
                0x00000108       0x20 c:/altera/12.0/nios2eds/bin/gnu/h-i686-mingw32/bin/../lib/gcc/nios2-elf/4.1.2\libgcc.a(lib2-divmod.o)
 .debug_aranges
                0x00000128       0x20 c:/altera/12.0/nios2eds/bin/gnu/h-i686-mingw32/bin/../lib/gcc/nios2-elf/4.1.2/../../../../nios2-elf/lib\libc.a(lib_a-fprintf.o)
 .debug_aranges
                0x00000148       0x20 c:/altera/12.0/nios2eds/bin/gnu/h-i686-mingw32/bin/../lib/gcc/nios2-elf/4.1.2/../../../../nios2-elf/lib\libc.a(lib_a-fwrite.o)
 .debug_aranges
                0x00000168       0x20 c:/altera/12.0/nios2eds/bin/gnu/h-i686-mingw32/bin/../lib/gcc/nios2-elf/4.1.2/../../../../nios2-elf/lib\libc.a(lib_a-malloc.o)
 .debug_aranges
                0x00000188       0x20 c:/altera/12.0/nios2eds/bin/gnu/h-i686-mingw32/bin/../lib/gcc/nios2-elf/4.1.2/../../../../nios2-elf/lib\libc.a(lib_a-mallocr.o)
 .debug_aranges
                0x000001a8       0x20 c:/altera/12.0/nios2eds/bin/gnu/h-i686-mingw32/bin/../lib/gcc/nios2-elf/4.1.2/../../../../nios2-elf/lib\libc.a(lib_a-memcpy.o)
 .debug_aranges
                0x000001c8       0x20 c:/altera/12.0/nios2eds/bin/gnu/h-i686-mingw32/bin/../lib/gcc/nios2-elf/4.1.2/../../../../nios2-elf/lib\libc.a(lib_a-memmove.o)
 .debug_aranges
                0x000001e8       0x20 c:/altera/12.0/nios2eds/bin/gnu/h-i686-mingw32/bin/../lib/gcc/nios2-elf/4.1.2/../../../../nios2-elf/lib\libc.a(lib_a-memset.o)
 .debug_aranges
                0x00000208       0x20 c:/altera/12.0/nios2eds/bin/gnu/h-i686-mingw32/bin/../lib/gcc/nios2-elf/4.1.2/../../../../nios2-elf/lib\libc.a(lib_a-perror.o)
 .debug_aranges
                0x00000228       0x20 c:/altera/12.0/nios2eds/bin/gnu/h-i686-mingw32/bin/../lib/gcc/nios2-elf/4.1.2/../../../../nios2-elf/lib\libc.a(lib_a-printf.o)
 .debug_aranges
                0x00000248       0x20 c:/altera/12.0/nios2eds/bin/gnu/h-i686-mingw32/bin/../lib/gcc/nios2-elf/4.1.2/../../../../nios2-elf/lib\libc.a(lib_a-putchar.o)
 .debug_aranges
                0x00000268       0x20 c:/altera/12.0/nios2eds/bin/gnu/h-i686-mingw32/bin/../lib/gcc/nios2-elf/4.1.2/../../../../nios2-elf/lib\libc.a(lib_a-puts.o)
 .debug_aranges
                0x00000288       0x20 c:/altera/12.0/nios2eds/bin/gnu/h-i686-mingw32/bin/../lib/gcc/nios2-elf/4.1.2/../../../../nios2-elf/lib\libc.a(lib_a-sbrkr.o)
 .debug_aranges
                0x000002a8       0x20 c:/altera/12.0/nios2eds/bin/gnu/h-i686-mingw32/bin/../lib/gcc/nios2-elf/4.1.2/../../../../nios2-elf/lib\libc.a(lib_a-sprintf.o)
 .debug_aranges
                0x000002c8       0x20 c:/altera/12.0/nios2eds/bin/gnu/h-i686-mingw32/bin/../lib/gcc/nios2-elf/4.1.2/../../../../nios2-elf/lib\libc.a(lib_a-strchr.o)
 .debug_aranges
                0x000002e8       0x20 c:/altera/12.0/nios2eds/bin/gnu/h-i686-mingw32/bin/../lib/gcc/nios2-elf/4.1.2/../../../../nios2-elf/lib\libc.a(lib_a-strerror.o)
 .debug_aranges
                0x00000308       0x20 c:/altera/12.0/nios2eds/bin/gnu/h-i686-mingw32/bin/../lib/gcc/nios2-elf/4.1.2/../../../../nios2-elf/lib\libc.a(lib_a-strlen.o)
 .debug_aranges
                0x00000328       0x20 c:/altera/12.0/nios2eds/bin/gnu/h-i686-mingw32/bin/../lib/gcc/nios2-elf/4.1.2/../../../../nios2-elf/lib\libc.a(lib_a-u_strerr.o)
 .debug_aranges
                0x00000348       0x20 c:/altera/12.0/nios2eds/bin/gnu/h-i686-mingw32/bin/../lib/gcc/nios2-elf/4.1.2/../../../../nios2-elf/lib\libc.a(lib_a-vfprintf.o)
 .debug_aranges
                0x00000368       0x20 c:/altera/12.0/nios2eds/bin/gnu/h-i686-mingw32/bin/../lib/gcc/nios2-elf/4.1.2/../../../../nios2-elf/lib\libc.a(lib_a-wsetup.o)
 .debug_aranges
                0x00000388       0x20 c:/altera/12.0/nios2eds/bin/gnu/h-i686-mingw32/bin/../lib/gcc/nios2-elf/4.1.2/../../../../nios2-elf/lib\libc.a(lib_a-dtoa.o)
 .debug_aranges
                0x000003a8       0x20 c:/altera/12.0/nios2eds/bin/gnu/h-i686-mingw32/bin/../lib/gcc/nios2-elf/4.1.2/../../../../nios2-elf/lib\libc.a(lib_a-fflush.o)
 .debug_aranges
                0x000003c8       0x20 c:/altera/12.0/nios2eds/bin/gnu/h-i686-mingw32/bin/../lib/gcc/nios2-elf/4.1.2/../../../../nios2-elf/lib\libc.a(lib_a-findfp.o)
 .debug_aranges
                0x000003e8       0x20 c:/altera/12.0/nios2eds/bin/gnu/h-i686-mingw32/bin/../lib/gcc/nios2-elf/4.1.2/../../../../nios2-elf/lib\libc.a(lib_a-fputc.o)
 .debug_aranges
                0x00000408       0x20 c:/altera/12.0/nios2eds/bin/gnu/h-i686-mingw32/bin/../lib/gcc/nios2-elf/4.1.2/../../../../nios2-elf/lib\libc.a(lib_a-fputs.o)
 .debug_aranges
                0x00000428       0x20 c:/altera/12.0/nios2eds/bin/gnu/h-i686-mingw32/bin/../lib/gcc/nios2-elf/4.1.2/../../../../nios2-elf/lib\libc.a(lib_a-freer.o)
 .debug_aranges
                0x00000448       0x20 c:/altera/12.0/nios2eds/bin/gnu/h-i686-mingw32/bin/../lib/gcc/nios2-elf/4.1.2/../../../../nios2-elf/lib\libc.a(lib_a-fvwrite.o)
 .debug_aranges
                0x00000468       0x20 c:/altera/12.0/nios2eds/bin/gnu/h-i686-mingw32/bin/../lib/gcc/nios2-elf/4.1.2/../../../../nios2-elf/lib\libc.a(lib_a-fwalk.o)
 .debug_aranges
                0x00000488       0x20 c:/altera/12.0/nios2eds/bin/gnu/h-i686-mingw32/bin/../lib/gcc/nios2-elf/4.1.2/../../../../nios2-elf/lib\libc.a(lib_a-locale.o)
 .debug_aranges
                0x000004a8       0x20 c:/altera/12.0/nios2eds/bin/gnu/h-i686-mingw32/bin/../lib/gcc/nios2-elf/4.1.2/../../../../nios2-elf/lib\libc.a(lib_a-makebuf.o)
 .debug_aranges
                0x000004c8       0x20 c:/altera/12.0/nios2eds/bin/gnu/h-i686-mingw32/bin/../lib/gcc/nios2-elf/4.1.2/../../../../nios2-elf/lib\libc.a(lib_a-memchr.o)
 .debug_aranges
                0x000004e8       0x20 c:/altera/12.0/nios2eds/bin/gnu/h-i686-mingw32/bin/../lib/gcc/nios2-elf/4.1.2/../../../../nios2-elf/lib\libc.a(lib_a-mprec.o)
 .debug_aranges
                0x00000508       0x20 c:/altera/12.0/nios2eds/bin/gnu/h-i686-mingw32/bin/../lib/gcc/nios2-elf/4.1.2/../../../../nios2-elf/lib\libc.a(lib_a-putc.o)
 .debug_aranges
                0x00000528       0x20 c:/altera/12.0/nios2eds/bin/gnu/h-i686-mingw32/bin/../lib/gcc/nios2-elf/4.1.2/../../../../nios2-elf/lib\libc.a(lib_a-reallocr.o)
 .debug_aranges
                0x00000548       0x20 c:/altera/12.0/nios2eds/bin/gnu/h-i686-mingw32/bin/../lib/gcc/nios2-elf/4.1.2/../../../../nios2-elf/lib\libc.a(lib_a-s_isinfd.o)
 .debug_aranges
                0x00000568       0x20 c:/altera/12.0/nios2eds/bin/gnu/h-i686-mingw32/bin/../lib/gcc/nios2-elf/4.1.2/../../../../nios2-elf/lib\libc.a(lib_a-s_isnand.o)
 .debug_aranges
                0x00000588       0x20 c:/altera/12.0/nios2eds/bin/gnu/h-i686-mingw32/bin/../lib/gcc/nios2-elf/4.1.2/../../../../nios2-elf/lib\libc.a(lib_a-stdio.o)
 .debug_aranges
                0x000005a8       0x20 c:/altera/12.0/nios2eds/bin/gnu/h-i686-mingw32/bin/../lib/gcc/nios2-elf/4.1.2/../../../../nios2-elf/lib\libc.a(lib_a-strcmp.o)
 .debug_aranges
                0x000005c8       0x20 c:/altera/12.0/nios2eds/bin/gnu/h-i686-mingw32/bin/../lib/gcc/nios2-elf/4.1.2/../../../../nios2-elf/lib\libc.a(lib_a-wbuf.o)
 .debug_aranges
                0x000005e8       0x20 c:/altera/12.0/nios2eds/bin/gnu/h-i686-mingw32/bin/../lib/gcc/nios2-elf/4.1.2/../../../../nios2-elf/lib\libc.a(lib_a-writer.o)
 .debug_aranges
                0x00000608       0x20 c:/altera/12.0/nios2eds/bin/gnu/h-i686-mingw32/bin/../lib/gcc/nios2-elf/4.1.2/../../../../nios2-elf/lib\libc.a(lib_a-callocr.o)
 .debug_aranges
                0x00000628       0x20 c:/altera/12.0/nios2eds/bin/gnu/h-i686-mingw32/bin/../lib/gcc/nios2-elf/4.1.2/../../../../nios2-elf/lib\libc.a(lib_a-closer.o)
 .debug_aranges
                0x00000648       0x20 c:/altera/12.0/nios2eds/bin/gnu/h-i686-mingw32/bin/../lib/gcc/nios2-elf/4.1.2/../../../../nios2-elf/lib\libc.a(lib_a-fclose.o)
 .debug_aranges
                0x00000668       0x20 c:/altera/12.0/nios2eds/bin/gnu/h-i686-mingw32/bin/../lib/gcc/nios2-elf/4.1.2/../../../../nios2-elf/lib\libc.a(lib_a-fstatr.o)
 .debug_aranges
                0x00000688       0x20 c:/altera/12.0/nios2eds/bin/gnu/h-i686-mingw32/bin/../lib/gcc/nios2-elf/4.1.2/../../../../nios2-elf/lib\libc.a(lib_a-isattyr.o)
 .debug_aranges
                0x000006a8       0x20 c:/altera/12.0/nios2eds/bin/gnu/h-i686-mingw32/bin/../lib/gcc/nios2-elf/4.1.2/../../../../nios2-elf/lib\libc.a(lib_a-lseekr.o)
 .debug_aranges
                0x000006c8       0x20 c:/altera/12.0/nios2eds/bin/gnu/h-i686-mingw32/bin/../lib/gcc/nios2-elf/4.1.2/../../../../nios2-elf/lib\libc.a(lib_a-readr.o)
 .debug_aranges
                0x000006e8       0x20 c:/altera/12.0/nios2eds/bin/gnu/h-i686-mingw32/bin/../lib/gcc/nios2-elf/4.1.2\libgcc.a(_udivdi3.o)
 .debug_aranges
                0x00000708       0x20 c:/altera/12.0/nios2eds/bin/gnu/h-i686-mingw32/bin/../lib/gcc/nios2-elf/4.1.2\libgcc.a(_umoddi3.o)
 .debug_aranges
                0x00000728       0x20 c:/altera/12.0/nios2eds/bin/gnu/h-i686-mingw32/bin/../lib/gcc/nios2-elf/4.1.2\libgcc.a(_addsub_df.o)
 .debug_aranges
                0x00000748       0x20 c:/altera/12.0/nios2eds/bin/gnu/h-i686-mingw32/bin/../lib/gcc/nios2-elf/4.1.2\libgcc.a(_mul_df.o)
 .debug_aranges
                0x00000768       0x20 c:/altera/12.0/nios2eds/bin/gnu/h-i686-mingw32/bin/../lib/gcc/nios2-elf/4.1.2\libgcc.a(_div_df.o)
 .debug_aranges
                0x00000788       0x20 c:/altera/12.0/nios2eds/bin/gnu/h-i686-mingw32/bin/../lib/gcc/nios2-elf/4.1.2\libgcc.a(_eq_df.o)
 .debug_aranges
                0x000007a8       0x20 c:/altera/12.0/nios2eds/bin/gnu/h-i686-mingw32/bin/../lib/gcc/nios2-elf/4.1.2\libgcc.a(_ne_df.o)
 .debug_aranges
                0x000007c8       0x20 c:/altera/12.0/nios2eds/bin/gnu/h-i686-mingw32/bin/../lib/gcc/nios2-elf/4.1.2\libgcc.a(_gt_df.o)
 .debug_aranges
                0x000007e8       0x20 c:/altera/12.0/nios2eds/bin/gnu/h-i686-mingw32/bin/../lib/gcc/nios2-elf/4.1.2\libgcc.a(_ge_df.o)
 .debug_aranges
                0x00000808       0x20 c:/altera/12.0/nios2eds/bin/gnu/h-i686-mingw32/bin/../lib/gcc/nios2-elf/4.1.2\libgcc.a(_lt_df.o)
 .debug_aranges
                0x00000828       0x20 c:/altera/12.0/nios2eds/bin/gnu/h-i686-mingw32/bin/../lib/gcc/nios2-elf/4.1.2\libgcc.a(_si_to_df.o)
 .debug_aranges
                0x00000848       0x20 c:/altera/12.0/nios2eds/bin/gnu/h-i686-mingw32/bin/../lib/gcc/nios2-elf/4.1.2\libgcc.a(_df_to_si.o)
 .debug_aranges
                0x00000868       0x20 c:/altera/12.0/nios2eds/bin/gnu/h-i686-mingw32/bin/../lib/gcc/nios2-elf/4.1.2\libgcc.a(_usi_to_df.o)
 .debug_aranges
                0x00000888       0x20 c:/altera/12.0/nios2eds/bin/gnu/h-i686-mingw32/bin/../lib/gcc/nios2-elf/4.1.2\libgcc.a(_muldi3.o)
 .debug_aranges
                0x000008a8       0x20 c:/altera/12.0/nios2eds/bin/gnu/h-i686-mingw32/bin/../lib/gcc/nios2-elf/4.1.2\libgcc.a(_clzsi2.o)
 .debug_aranges
                0x000008c8       0x20 c:/altera/12.0/nios2eds/bin/gnu/h-i686-mingw32/bin/../lib/gcc/nios2-elf/4.1.2\libgcc.a(_pack_df.o)
 .debug_aranges
                0x000008e8       0x20 c:/altera/12.0/nios2eds/bin/gnu/h-i686-mingw32/bin/../lib/gcc/nios2-elf/4.1.2\libgcc.a(_unpack_df.o)
 .debug_aranges
                0x00000908       0x20 c:/altera/12.0/nios2eds/bin/gnu/h-i686-mingw32/bin/../lib/gcc/nios2-elf/4.1.2\libgcc.a(_fpcmp_parts_df.o)
 .debug_aranges
                0x00000928       0x20 ../niosII_simple_socket_server_1_bsp/\libucosii_bsp.a(alt_flash_dev.o)
 .debug_aranges
                0x00000948       0x20 ../niosII_simple_socket_server_1_bsp/\libucosii_bsp.a(alt_fstat.o)
 .debug_aranges
                0x00000968       0x20 ../niosII_simple_socket_server_1_bsp/\libucosii_bsp.a(alt_isatty.o)
 .debug_aranges
                0x00000988       0x20 ../niosII_simple_socket_server_1_bsp/\libucosii_bsp.a(alt_load.o)
 .debug_aranges
                0x000009a8       0x20 ../niosII_simple_socket_server_1_bsp/\libucosii_bsp.a(alt_lseek.o)
 .debug_aranges
                0x000009c8       0x20 ../niosII_simple_socket_server_1_bsp/\libucosii_bsp.a(alt_main.o)
 .debug_aranges
                0x000009e8       0x20 ../niosII_simple_socket_server_1_bsp/\libucosii_bsp.a(alt_sbrk.o)
 .debug_aranges
                0x00000a08       0x20 ../niosII_simple_socket_server_1_bsp/\libucosii_bsp.a(alt_usleep.o)
 .debug_aranges
                0x00000a28       0x20 ../niosII_simple_socket_server_1_bsp/\libucosii_bsp.a(alt_env_lock.o)
 .debug_aranges
                0x00000a48       0x20 ../niosII_simple_socket_server_1_bsp/\libucosii_bsp.a(alt_malloc_lock.o)
 .debug_aranges
                0x00000a68       0x20 ../niosII_simple_socket_server_1_bsp/\libucosii_bsp.a(os_core.o)
 .debug_aranges
                0x00000a88       0x20 ../niosII_simple_socket_server_1_bsp/\libucosii_bsp.a(os_dbg.o)
 .debug_aranges
                0x00000aa8       0x20 ../niosII_simple_socket_server_1_bsp/\libucosii_bsp.a(os_flag.o)
 .debug_aranges
                0x00000ac8       0x20 ../niosII_simple_socket_server_1_bsp/\libucosii_bsp.a(os_mbox.o)
 .debug_aranges
                0x00000ae8       0x20 ../niosII_simple_socket_server_1_bsp/\libucosii_bsp.a(os_mem.o)
 .debug_aranges
                0x00000b08       0x20 ../niosII_simple_socket_server_1_bsp/\libucosii_bsp.a(os_q.o)
 .debug_aranges
                0x00000b28       0x20 ../niosII_simple_socket_server_1_bsp/\libucosii_bsp.a(os_sem.o)
 .debug_aranges
                0x00000b48       0x20 ../niosII_simple_socket_server_1_bsp/\libucosii_bsp.a(os_task.o)
 .debug_aranges
                0x00000b68       0x20 ../niosII_simple_socket_server_1_bsp/\libucosii_bsp.a(os_time.o)
 .debug_aranges
                0x00000b88       0x20 ../niosII_simple_socket_server_1_bsp/\libucosii_bsp.a(alt_sys_init.o)
 .debug_aranges
                0x00000ba8       0x20 ../niosII_simple_socket_server_1_bsp/\libucosii_bsp.a(altera_avalon_cfi_flash.o)
 .debug_aranges
                0x00000bc8       0x20 ../niosII_simple_socket_server_1_bsp/\libucosii_bsp.a(altera_avalon_cfi_flash_table.o)
 .debug_aranges
                0x00000be8       0x20 ../niosII_simple_socket_server_1_bsp/\libucosii_bsp.a(altera_avalon_jtag_uart_fd.o)
 .debug_aranges
                0x00000c08       0x20 ../niosII_simple_socket_server_1_bsp/\libucosii_bsp.a(altera_avalon_jtag_uart_init.o)
 .debug_aranges
                0x00000c28       0x20 ../niosII_simple_socket_server_1_bsp/\libucosii_bsp.a(altera_avalon_jtag_uart_ioctl.o)
 .debug_aranges
                0x00000c48       0x20 ../niosII_simple_socket_server_1_bsp/\libucosii_bsp.a(altera_avalon_jtag_uart_read.o)
 .debug_aranges
                0x00000c68       0x20 ../niosII_simple_socket_server_1_bsp/\libucosii_bsp.a(altera_avalon_jtag_uart_write.o)
 .debug_aranges
                0x00000c88       0x20 ../niosII_simple_socket_server_1_bsp/\libucosii_bsp.a(altera_avalon_lcd_16207.o)
 .debug_aranges
                0x00000ca8       0x20 ../niosII_simple_socket_server_1_bsp/\libucosii_bsp.a(altera_avalon_lcd_16207_fd.o)
 .debug_aranges
                0x00000cc8       0x20 ../niosII_simple_socket_server_1_bsp/\libucosii_bsp.a(altera_avalon_sgdma.o)
 .debug_aranges
                0x00000ce8       0x20 ../niosII_simple_socket_server_1_bsp/\libucosii_bsp.a(altera_avalon_timer_sc.o)
 .debug_aranges
                0x00000d08       0x20 ../niosII_simple_socket_server_1_bsp/\libucosii_bsp.a(altera_avalon_tse.o)
 .debug_aranges
                0x00000d28       0x20 ../niosII_simple_socket_server_1_bsp/\libucosii_bsp.a(altera_avalon_uart_fd.o)
 .debug_aranges
                0x00000d48       0x20 ../niosII_simple_socket_server_1_bsp/\libucosii_bsp.a(altera_avalon_uart_init.o)
 .debug_aranges
                0x00000d68       0x20 ../niosII_simple_socket_server_1_bsp/\libucosii_bsp.a(altera_avalon_uart_read.o)
 .debug_aranges
                0x00000d88       0x20 ../niosII_simple_socket_server_1_bsp/\libucosii_bsp.a(altera_avalon_uart_write.o)
 .debug_aranges
                0x00000da8       0x20 ../niosII_simple_socket_server_1_bsp/\libucosii_bsp.a(ins_tse_mac.o)
 .debug_aranges
                0x00000dc8       0x20 ../niosII_simple_socket_server_1_bsp/\libucosii_bsp.a(alt_iniche_close.o)
 .debug_aranges
                0x00000de8       0x20 ../niosII_simple_socket_server_1_bsp/\libucosii_bsp.a(alt_iniche_dev.o)
 .debug_aranges
                0x00000e08       0x20 ../niosII_simple_socket_server_1_bsp/\libucosii_bsp.a(alt_iniche_read.o)
 .debug_aranges
                0x00000e28       0x20 ../niosII_simple_socket_server_1_bsp/\libucosii_bsp.a(alt_iniche_write.o)
 .debug_aranges
                0x00000e48       0x20 ../niosII_simple_socket_server_1_bsp/\libucosii_bsp.a(ipnet.o)
 .debug_aranges
                0x00000e68       0x20 ../niosII_simple_socket_server_1_bsp/\libucosii_bsp.a(ipstart.o)
 .debug_aranges
                0x00000e88       0x20 ../niosII_simple_socket_server_1_bsp/\libucosii_bsp.a(igmp_cmn.o)
 .debug_aranges
                0x00000ea8       0x20 ../niosII_simple_socket_server_1_bsp/\libucosii_bsp.a(bsdsock.o)
 .debug_aranges
                0x00000ec8       0x20 ../niosII_simple_socket_server_1_bsp/\libucosii_bsp.a(cksum.o)
 .debug_aranges
                0x00000ee8       0x20 ../niosII_simple_socket_server_1_bsp/\libucosii_bsp.a(in_utils.o)
 .debug_aranges
                0x00000f08       0x20 ../niosII_simple_socket_server_1_bsp/\libucosii_bsp.a(netmain.o)
 .debug_aranges
                0x00000f28       0x20 ../niosII_simple_socket_server_1_bsp/\libucosii_bsp.a(tk_crnos.o)
 .debug_aranges
                0x00000f48       0x20 ../niosII_simple_socket_server_1_bsp/\libucosii_bsp.a(pktalloc.o)
 .debug_aranges
                0x00000f68       0x20 ../niosII_simple_socket_server_1_bsp/\libucosii_bsp.a(q.o)
 .debug_aranges
                0x00000f88       0x20 ../niosII_simple_socket_server_1_bsp/\libucosii_bsp.a(asm_cksum.o)
 .debug_aranges
                0x00000fa8       0x20 ../niosII_simple_socket_server_1_bsp/\libucosii_bsp.a(brdutils.o)
 .debug_aranges
                0x00000fc8       0x20 ../niosII_simple_socket_server_1_bsp/\libucosii_bsp.a(osportco.o)
 .debug_aranges
                0x00000fe8       0x20 ../niosII_simple_socket_server_1_bsp/\libucosii_bsp.a(targnios.o)
 .debug_aranges
                0x00001008       0x20 ../niosII_simple_socket_server_1_bsp/\libucosii_bsp.a(nptcp.o)
 .debug_aranges
                0x00001028       0x20 ../niosII_simple_socket_server_1_bsp/\libucosii_bsp.a(rawsock.o)
 .debug_aranges
                0x00001048       0x20 ../niosII_simple_socket_server_1_bsp/\libucosii_bsp.a(sockcall.o)
 .debug_aranges
                0x00001068       0x20 ../niosII_simple_socket_server_1_bsp/\libucosii_bsp.a(socket.o)
 .debug_aranges
                0x00001088       0x20 ../niosII_simple_socket_server_1_bsp/\libucosii_bsp.a(socket2.o)
 .debug_aranges
                0x000010a8       0x20 ../niosII_simple_socket_server_1_bsp/\libucosii_bsp.a(soselect.o)
 .debug_aranges
                0x000010c8       0x20 ../niosII_simple_socket_server_1_bsp/\libucosii_bsp.a(tcp_in.o)
 .debug_aranges
                0x000010e8       0x20 ../niosII_simple_socket_server_1_bsp/\libucosii_bsp.a(tcp_out.o)
 .debug_aranges
                0x00001108       0x20 ../niosII_simple_socket_server_1_bsp/\libucosii_bsp.a(tcp_subr.o)
 .debug_aranges
                0x00001128       0x20 ../niosII_simple_socket_server_1_bsp/\libucosii_bsp.a(tcp_timr.o)
 .debug_aranges
                0x00001148       0x20 ../niosII_simple_socket_server_1_bsp/\libucosii_bsp.a(tcp_usr.o)
 .debug_aranges
                0x00001168       0x20 ../niosII_simple_socket_server_1_bsp/\libucosii_bsp.a(tcp_zio.o)
 .debug_aranges
                0x00001188       0x20 ../niosII_simple_socket_server_1_bsp/\libucosii_bsp.a(tcpport.o)
 .debug_aranges
                0x000011a8       0x20 ../niosII_simple_socket_server_1_bsp/\libucosii_bsp.a(udpsock.o)
 .debug_aranges
                0x000011c8       0x20 ../niosII_simple_socket_server_1_bsp/\libucosii_bsp.a(alt_alarm_start.o)
 .debug_aranges
                0x000011e8       0x20 ../niosII_simple_socket_server_1_bsp/\libucosii_bsp.a(alt_busy_sleep.o)
 .debug_aranges
                0x00001208       0x20 ../niosII_simple_socket_server_1_bsp/\libucosii_bsp.a(alt_close.o)
 .debug_aranges
                0x00001228       0x20 ../niosII_simple_socket_server_1_bsp/\libucosii_bsp.a(alt_dcache_flush.o)
 .debug_aranges
                0x00001248       0x20 ../niosII_simple_socket_server_1_bsp/\libucosii_bsp.a(alt_dcache_flush_all.o)
 .debug_aranges
                0x00001268       0x20 ../niosII_simple_socket_server_1_bsp/\libucosii_bsp.a(alt_dev.o)
 .debug_aranges
                0x00001288       0x20 ../niosII_simple_socket_server_1_bsp/\libucosii_bsp.a(alt_dev_llist_insert.o)
 .debug_aranges
                0x000012a8       0x20 ../niosII_simple_socket_server_1_bsp/\libucosii_bsp.a(alt_do_ctors.o)
 .debug_aranges
                0x000012c8       0x20 ../niosII_simple_socket_server_1_bsp/\libucosii_bsp.a(alt_do_dtors.o)
 .debug_aranges
                0x000012e8       0x20 ../niosII_simple_socket_server_1_bsp/\libucosii_bsp.a(alt_find_dev.o)
 .debug_aranges
                0x00001308       0x20 ../niosII_simple_socket_server_1_bsp/\libucosii_bsp.a(alt_icache_flush_all.o)
 .debug_aranges
                0x00001328       0x20 ../niosII_simple_socket_server_1_bsp/\libucosii_bsp.a(alt_iic.o)
 .debug_aranges
                0x00001348       0x20 ../niosII_simple_socket_server_1_bsp/\libucosii_bsp.a(alt_iic_isr_register.o)
 .debug_aranges
                0x00001368       0x20 ../niosII_simple_socket_server_1_bsp/\libucosii_bsp.a(alt_io_redirect.o)
 .debug_aranges
                0x00001388       0x30 ../niosII_simple_socket_server_1_bsp/\libucosii_bsp.a(alt_irq_entry.o)
 .debug_aranges
                0x000013b8       0x28 ../niosII_simple_socket_server_1_bsp/\libucosii_bsp.a(alt_irq_handler.o)
 .debug_aranges
                0x000013e0       0x20 ../niosII_simple_socket_server_1_bsp/\libucosii_bsp.a(alt_open.o)
 .debug_aranges
                0x00001400       0x20 ../niosII_simple_socket_server_1_bsp/\libucosii_bsp.a(alt_read.o)
 .debug_aranges
                0x00001420       0x20 ../niosII_simple_socket_server_1_bsp/\libucosii_bsp.a(alt_release_fd.o)
 .debug_aranges
                0x00001440       0x20 ../niosII_simple_socket_server_1_bsp/\libucosii_bsp.a(alt_remap_cached.o)
 .debug_aranges
                0x00001460       0x20 ../niosII_simple_socket_server_1_bsp/\libucosii_bsp.a(alt_remap_uncached.o)
 .debug_aranges
                0x00001480       0x20 ../niosII_simple_socket_server_1_bsp/\libucosii_bsp.a(alt_tick.o)
 .debug_aranges
                0x000014a0       0x20 ../niosII_simple_socket_server_1_bsp/\libucosii_bsp.a(alt_uncached_malloc.o)
 .debug_aranges
                0x000014c0       0x20 ../niosII_simple_socket_server_1_bsp/\libucosii_bsp.a(alt_write.o)
 .debug_aranges
                0x000014e0       0x20 ../niosII_simple_socket_server_1_bsp/\libucosii_bsp.a(altera_nios2_irq.o)
 .debug_aranges
                0x00001500       0x20 ../niosII_simple_socket_server_1_bsp/\libucosii_bsp.a(os_cpu_a.o)
 .debug_aranges
                0x00001520       0x20 ../niosII_simple_socket_server_1_bsp/\libucosii_bsp.a(os_cpu_c.o)
 .debug_aranges
                0x00001540       0x20 ../niosII_simple_socket_server_1_bsp/\libucosii_bsp.a(altera_avalon_cfi_flash_amd.o)
 .debug_aranges
                0x00001560       0x20 ../niosII_simple_socket_server_1_bsp/\libucosii_bsp.a(altera_avalon_cfi_flash_intel.o)
 .debug_aranges
                0x00001580       0x20 ../niosII_simple_socket_server_1_bsp/\libucosii_bsp.a(allports.o)
 .debug_aranges
                0x000015a0       0x20 ../niosII_simple_socket_server_1_bsp/\libucosii_bsp.a(timeouts.o)
 .debug_aranges
                0x000015c0       0x20 ../niosII_simple_socket_server_1_bsp/\libucosii_bsp.a(tk_misc.o)
 .debug_aranges
                0x000015e0       0x20 ../niosII_simple_socket_server_1_bsp/\libucosii_bsp.a(alt_iniche_fcntl.o)
 .debug_aranges
                0x00001600       0x20 ../niosII_simple_socket_server_1_bsp/\libucosii_bsp.a(et_arp.o)
 .debug_aranges
                0x00001620       0x20 ../niosII_simple_socket_server_1_bsp/\libucosii_bsp.a(iface.o)
 .debug_aranges
                0x00001640       0x20 ../niosII_simple_socket_server_1_bsp/\libucosii_bsp.a(ip.o)
 .debug_aranges
                0x00001660       0x20 ../niosII_simple_socket_server_1_bsp/\libucosii_bsp.a(ip_reasm.o)
 .debug_aranges
                0x00001680       0x20 ../niosII_simple_socket_server_1_bsp/\libucosii_bsp.a(ipdemux.o)
 .debug_aranges
                0x000016a0       0x20 ../niosII_simple_socket_server_1_bsp/\libucosii_bsp.a(ipmc.o)
 .debug_aranges
                0x000016c0       0x20 ../niosII_simple_socket_server_1_bsp/\libucosii_bsp.a(ipport.o)
 .debug_aranges
                0x000016e0       0x20 ../niosII_simple_socket_server_1_bsp/\libucosii_bsp.a(ipraw.o)
 .debug_aranges
                0x00001700       0x20 ../niosII_simple_socket_server_1_bsp/\libucosii_bsp.a(iproute.o)
 .debug_aranges
                0x00001720       0x20 ../niosII_simple_socket_server_1_bsp/\libucosii_bsp.a(udp.o)
 .debug_aranges
                0x00001740       0x20 ../niosII_simple_socket_server_1_bsp/\libucosii_bsp.a(igmp.o)
 .debug_aranges
                0x00001760       0x20 ../niosII_simple_socket_server_1_bsp/\libucosii_bsp.a(igmp2.o)
 .debug_aranges
                0x00001780       0x20 ../niosII_simple_socket_server_1_bsp/\libucosii_bsp.a(ipopt.o)
 .debug_aranges
                0x000017a0       0x20 ../niosII_simple_socket_server_1_bsp/\libucosii_bsp.a(u_mctest.o)
 .debug_aranges
                0x000017c0       0x20 ../niosII_simple_socket_server_1_bsp/\libucosii_bsp.a(memdev.o)
 .debug_aranges
                0x000017e0       0x20 ../niosII_simple_socket_server_1_bsp/\libucosii_bsp.a(parseip.o)
 .debug_aranges
                0x00001800       0x20 ../niosII_simple_socket_server_1_bsp/\libucosii_bsp.a(tcpcksum.o)
 .debug_aranges
                0x00001820       0x20 ../niosII_simple_socket_server_1_bsp/\libucosii_bsp.a(udp_open.o)
 .debug_aranges
                0x00001840       0x20 ../niosII_simple_socket_server_1_bsp/\libucosii_bsp.a(in_pcb.o)
 .debug_aranges
                0x00001860       0x20 ../niosII_simple_socket_server_1_bsp/\libucosii_bsp.a(vfsfiles.o)
 .debug_aranges
                0x00001880       0x20 ../niosII_simple_socket_server_1_bsp/\libucosii_bsp.a(vfsport.o)
 .debug_aranges
                0x000018a0       0x38 ../niosII_simple_socket_server_1_bsp/\libucosii_bsp.a(alt_exception_entry.o)
 .debug_aranges
                0x000018d8       0x20 ../niosII_simple_socket_server_1_bsp/\libucosii_bsp.a(alt_fcntl.o)
 .debug_aranges
                0x000018f8       0x20 ../niosII_simple_socket_server_1_bsp/\libucosii_bsp.a(alt_find_file.o)
 .debug_aranges
                0x00001918       0x20 ../niosII_simple_socket_server_1_bsp/\libucosii_bsp.a(alt_get_fd.o)
 .debug_aranges
                0x00001938       0x20 ../niosII_simple_socket_server_1_bsp/\libucosii_bsp.a(alt_icache_flush.o)
 .debug_aranges
                0x00001958       0x20 ../niosII_simple_socket_server_1_bsp/\libucosii_bsp.a(icmp.o)
 .debug_aranges
                0x00001978       0x20 c:/altera/12.0/nios2eds/bin/gnu/h-i686-mingw32/bin/../lib/gcc/nios2-elf/4.1.2/../../../../nios2-elf/lib\libc.a(lib_a-atexit.o)
 .debug_aranges
                0x00001998       0x20 c:/altera/12.0/nios2eds/bin/gnu/h-i686-mingw32/bin/../lib/gcc/nios2-elf/4.1.2/../../../../nios2-elf/lib\libc.a(lib_a-atoi.o)
 .debug_aranges
                0x000019b8       0x20 c:/altera/12.0/nios2eds/bin/gnu/h-i686-mingw32/bin/../lib/gcc/nios2-elf/4.1.2/../../../../nios2-elf/lib\libc.a(lib_a-calloc.o)
 .debug_aranges
                0x000019d8       0x20 c:/altera/12.0/nios2eds/bin/gnu/h-i686-mingw32/bin/../lib/gcc/nios2-elf/4.1.2/../../../../nios2-elf/lib\libc.a(lib_a-exit.o)
 .debug_aranges
                0x000019f8       0x20 c:/altera/12.0/nios2eds/bin/gnu/h-i686-mingw32/bin/../lib/gcc/nios2-elf/4.1.2/../../../../nios2-elf/lib\libc.a(lib_a-getc.o)
 .debug_aranges
                0x00001a18       0x20 c:/altera/12.0/nios2eds/bin/gnu/h-i686-mingw32/bin/../lib/gcc/nios2-elf/4.1.2/../../../../nios2-elf/lib\libc.a(lib_a-memcmp.o)
 .debug_aranges
                0x00001a38       0x20 c:/altera/12.0/nios2eds/bin/gnu/h-i686-mingw32/bin/../lib/gcc/nios2-elf/4.1.2/../../../../nios2-elf/lib\libc.a(lib_a-rget.o)
 .debug_aranges
                0x00001a58       0x20 c:/altera/12.0/nios2eds/bin/gnu/h-i686-mingw32/bin/../lib/gcc/nios2-elf/4.1.2/../../../../nios2-elf/lib\libc.a(lib_a-strcpy.o)
 .debug_aranges
                0x00001a78       0x20 c:/altera/12.0/nios2eds/bin/gnu/h-i686-mingw32/bin/../lib/gcc/nios2-elf/4.1.2/../../../../nios2-elf/lib\libc.a(lib_a-strncmp.o)
 .debug_aranges
                0x00001a98       0x20 c:/altera/12.0/nios2eds/bin/gnu/h-i686-mingw32/bin/../lib/gcc/nios2-elf/4.1.2/../../../../nios2-elf/lib\libc.a(lib_a-strtol.o)
 .debug_aranges
                0x00001ab8       0x20 c:/altera/12.0/nios2eds/bin/gnu/h-i686-mingw32/bin/../lib/gcc/nios2-elf/4.1.2/../../../../nios2-elf/lib\libc.a(lib_a-vprintf.o)
 .debug_aranges
                0x00001ad8       0x20 c:/altera/12.0/nios2eds/bin/gnu/h-i686-mingw32/bin/../lib/gcc/nios2-elf/4.1.2/../../../../nios2-elf/lib\libc.a(lib_a-vsprintf.o)
 .debug_aranges
                0x00001af8       0x20 c:/altera/12.0/nios2eds/bin/gnu/h-i686-mingw32/bin/../lib/gcc/nios2-elf/4.1.2/../../../../nios2-elf/lib\libc.a(lib_a-__atexit.o)
 .debug_aranges
                0x00001b18       0x20 c:/altera/12.0/nios2eds/bin/gnu/h-i686-mingw32/bin/../lib/gcc/nios2-elf/4.1.2/../../../../nios2-elf/lib\libc.a(lib_a-__call_atexit.o)
 .debug_aranges
                0x00001b38       0x20 c:/altera/12.0/nios2eds/bin/gnu/h-i686-mingw32/bin/../lib/gcc/nios2-elf/4.1.2/../../../../nios2-elf/lib\libc.a(lib_a-refill.o)
 .debug_aranges
                0x00001b58       0x20 ../niosII_simple_socket_server_1_bsp/\libucosii_bsp.a(alt_exit.o)

.debug_pubnames
                0x00000000     0x5bd7
 *(.debug_pubnames)
 .debug_pubnames
                0x00000000       0x7c obj/SSS_DE2_115.o
 .debug_pubnames
                0x0000007c       0xc7 obj/alt_eeprom/alt_2_wire.o
 .debug_pubnames
                0x00000143       0x54 obj/alt_eeprom/alt_eeprom.o
 .debug_pubnames
                0x00000197       0x61 obj/alt_error_handler.o
 .debug_pubnames
                0x000001f8      0x1bd obj/iniche_init.o
 .debug_pubnames
                0x000003b5       0x39 obj/led.o
 .debug_pubnames
                0x000003ee      0x178 obj/niosII_simple_socket_server.o
 .debug_pubnames
                0x00000566       0x48 c:/altera/12.0/nios2eds/bin/gnu/h-i686-mingw32/bin/../lib/gcc/nios2-elf/4.1.2\libgcc.a(lib2-divmod.o)
 .debug_pubnames
                0x000005ae       0x2e c:/altera/12.0/nios2eds/bin/gnu/h-i686-mingw32/bin/../lib/gcc/nios2-elf/4.1.2/../../../../nios2-elf/lib\libc.a(lib_a-ctype_.o)
 .debug_pubnames
                0x000005dc       0x2d c:/altera/12.0/nios2eds/bin/gnu/h-i686-mingw32/bin/../lib/gcc/nios2-elf/4.1.2/../../../../nios2-elf/lib\libc.a(lib_a-fprintf.o)
 .debug_pubnames
                0x00000609       0x2b c:/altera/12.0/nios2eds/bin/gnu/h-i686-mingw32/bin/../lib/gcc/nios2-elf/4.1.2/../../../../nios2-elf/lib\libc.a(lib_a-fwrite.o)
 .debug_pubnames
                0x00000634       0x39 c:/altera/12.0/nios2eds/bin/gnu/h-i686-mingw32/bin/../lib/gcc/nios2-elf/4.1.2/../../../../nios2-elf/lib\libc.a(lib_a-impure.o)
 .debug_pubnames
                0x0000066d       0x26 c:/altera/12.0/nios2eds/bin/gnu/h-i686-mingw32/bin/../lib/gcc/nios2-elf/4.1.2/../../../../nios2-elf/lib\libc.a(lib_a-malloc.o)
 .debug_pubnames
                0x00000693       0xce c:/altera/12.0/nios2eds/bin/gnu/h-i686-mingw32/bin/../lib/gcc/nios2-elf/4.1.2/../../../../nios2-elf/lib\libc.a(lib_a-mallocr.o)
 .debug_pubnames
                0x00000761       0x1d c:/altera/12.0/nios2eds/bin/gnu/h-i686-mingw32/bin/../lib/gcc/nios2-elf/4.1.2/../../../../nios2-elf/lib\libc.a(lib_a-memcpy.o)
 .debug_pubnames
                0x0000077e       0x1e c:/altera/12.0/nios2eds/bin/gnu/h-i686-mingw32/bin/../lib/gcc/nios2-elf/4.1.2/../../../../nios2-elf/lib\libc.a(lib_a-memmove.o)
 .debug_pubnames
                0x0000079c       0x1d c:/altera/12.0/nios2eds/bin/gnu/h-i686-mingw32/bin/../lib/gcc/nios2-elf/4.1.2/../../../../nios2-elf/lib\libc.a(lib_a-memset.o)
 .debug_pubnames
                0x000007b9       0x2b c:/altera/12.0/nios2eds/bin/gnu/h-i686-mingw32/bin/../lib/gcc/nios2-elf/4.1.2/../../../../nios2-elf/lib\libc.a(lib_a-perror.o)
 .debug_pubnames
                0x000007e4       0x2b c:/altera/12.0/nios2eds/bin/gnu/h-i686-mingw32/bin/../lib/gcc/nios2-elf/4.1.2/../../../../nios2-elf/lib\libc.a(lib_a-printf.o)
 .debug_pubnames
                0x0000080f       0x2d c:/altera/12.0/nios2eds/bin/gnu/h-i686-mingw32/bin/../lib/gcc/nios2-elf/4.1.2/../../../../nios2-elf/lib\libc.a(lib_a-putchar.o)
 .debug_pubnames
                0x0000083c       0x27 c:/altera/12.0/nios2eds/bin/gnu/h-i686-mingw32/bin/../lib/gcc/nios2-elf/4.1.2/../../../../nios2-elf/lib\libc.a(lib_a-puts.o)
 .debug_pubnames
                0x00000863       0x1e c:/altera/12.0/nios2eds/bin/gnu/h-i686-mingw32/bin/../lib/gcc/nios2-elf/4.1.2/../../../../nios2-elf/lib\libc.a(lib_a-sbrkr.o)
 .debug_pubnames
                0x00000881       0x2d c:/altera/12.0/nios2eds/bin/gnu/h-i686-mingw32/bin/../lib/gcc/nios2-elf/4.1.2/../../../../nios2-elf/lib\libc.a(lib_a-sprintf.o)
 .debug_pubnames
                0x000008ae       0x1d c:/altera/12.0/nios2eds/bin/gnu/h-i686-mingw32/bin/../lib/gcc/nios2-elf/4.1.2/../../../../nios2-elf/lib\libc.a(lib_a-strchr.o)
 .debug_pubnames
                0x000008cb       0x1f c:/altera/12.0/nios2eds/bin/gnu/h-i686-mingw32/bin/../lib/gcc/nios2-elf/4.1.2/../../../../nios2-elf/lib\libc.a(lib_a-strerror.o)
 .debug_pubnames
                0x000008ea       0x1d c:/altera/12.0/nios2eds/bin/gnu/h-i686-mingw32/bin/../lib/gcc/nios2-elf/4.1.2/../../../../nios2-elf/lib\libc.a(lib_a-strlen.o)
 .debug_pubnames
                0x00000907       0x25 c:/altera/12.0/nios2eds/bin/gnu/h-i686-mingw32/bin/../lib/gcc/nios2-elf/4.1.2/../../../../nios2-elf/lib\libc.a(lib_a-u_strerr.o)
 .debug_pubnames
                0x0000092c       0x45 c:/altera/12.0/nios2eds/bin/gnu/h-i686-mingw32/bin/../lib/gcc/nios2-elf/4.1.2/../../../../nios2-elf/lib\libc.a(lib_a-vfprintf.o)
 .debug_pubnames
                0x00000971       0x22 c:/altera/12.0/nios2eds/bin/gnu/h-i686-mingw32/bin/../lib/gcc/nios2-elf/4.1.2/../../../../nios2-elf/lib\libc.a(lib_a-wsetup.o)
 .debug_pubnames
                0x00000993       0x1e c:/altera/12.0/nios2eds/bin/gnu/h-i686-mingw32/bin/../lib/gcc/nios2-elf/4.1.2/../../../../nios2-elf/lib\libc.a(lib_a-dtoa.o)
 .debug_pubnames
                0x000009b1       0x2b c:/altera/12.0/nios2eds/bin/gnu/h-i686-mingw32/bin/../lib/gcc/nios2-elf/4.1.2/../../../../nios2-elf/lib\libc.a(lib_a-fflush.o)
 .debug_pubnames
                0x000009dc       0xdb c:/altera/12.0/nios2eds/bin/gnu/h-i686-mingw32/bin/../lib/gcc/nios2-elf/4.1.2/../../../../nios2-elf/lib\libc.a(lib_a-findfp.o)
 .debug_pubnames
                0x00000ab7       0x29 c:/altera/12.0/nios2eds/bin/gnu/h-i686-mingw32/bin/../lib/gcc/nios2-elf/4.1.2/../../../../nios2-elf/lib\libc.a(lib_a-fputc.o)
 .debug_pubnames
                0x00000ae0       0x29 c:/altera/12.0/nios2eds/bin/gnu/h-i686-mingw32/bin/../lib/gcc/nios2-elf/4.1.2/../../../../nios2-elf/lib\libc.a(lib_a-fputs.o)
 .debug_pubnames
                0x00000b09       0x31 c:/altera/12.0/nios2eds/bin/gnu/h-i686-mingw32/bin/../lib/gcc/nios2-elf/4.1.2/../../../../nios2-elf/lib\libc.a(lib_a-freer.o)
 .debug_pubnames
                0x00000b3a       0x23 c:/altera/12.0/nios2eds/bin/gnu/h-i686-mingw32/bin/../lib/gcc/nios2-elf/4.1.2/../../../../nios2-elf/lib\libc.a(lib_a-fvwrite.o)
 .debug_pubnames
                0x00000b5d       0x2e c:/altera/12.0/nios2eds/bin/gnu/h-i686-mingw32/bin/../lib/gcc/nios2-elf/4.1.2/../../../../nios2-elf/lib\libc.a(lib_a-fwalk.o)
 .debug_pubnames
                0x00000b8b       0x1c c:/altera/12.0/nios2eds/bin/gnu/h-i686-mingw32/bin/../lib/gcc/nios2-elf/4.1.2/../../../../nios2-elf/lib\libc.a(lib_a-int_errno.o)
 .debug_pubnames
                0x00000ba7       0xc3 c:/altera/12.0/nios2eds/bin/gnu/h-i686-mingw32/bin/../lib/gcc/nios2-elf/4.1.2/../../../../nios2-elf/lib\libc.a(lib_a-locale.o)
 .debug_pubnames
                0x00000c6a       0x23 c:/altera/12.0/nios2eds/bin/gnu/h-i686-mingw32/bin/../lib/gcc/nios2-elf/4.1.2/../../../../nios2-elf/lib\libc.a(lib_a-makebuf.o)
 .debug_pubnames
                0x00000c8d       0x1d c:/altera/12.0/nios2eds/bin/gnu/h-i686-mingw32/bin/../lib/gcc/nios2-elf/4.1.2/../../../../nios2-elf/lib\libc.a(lib_a-memchr.o)
 .debug_pubnames
                0x00000caa      0x13a c:/altera/12.0/nios2eds/bin/gnu/h-i686-mingw32/bin/../lib/gcc/nios2-elf/4.1.2/../../../../nios2-elf/lib\libc.a(lib_a-mprec.o)
 .debug_pubnames
                0x00000de4       0x27 c:/altera/12.0/nios2eds/bin/gnu/h-i686-mingw32/bin/../lib/gcc/nios2-elf/4.1.2/../../../../nios2-elf/lib\libc.a(lib_a-putc.o)
 .debug_pubnames
                0x00000e0b       0x21 c:/altera/12.0/nios2eds/bin/gnu/h-i686-mingw32/bin/../lib/gcc/nios2-elf/4.1.2/../../../../nios2-elf/lib\libc.a(lib_a-reallocr.o)
 .debug_pubnames
                0x00000e2c       0x1f c:/altera/12.0/nios2eds/bin/gnu/h-i686-mingw32/bin/../lib/gcc/nios2-elf/4.1.2/../../../../nios2-elf/lib\libc.a(lib_a-s_isinfd.o)
 .debug_pubnames
                0x00000e4b       0x1f c:/altera/12.0/nios2eds/bin/gnu/h-i686-mingw32/bin/../lib/gcc/nios2-elf/4.1.2/../../../../nios2-elf/lib\libc.a(lib_a-s_isnand.o)
 .debug_pubnames
                0x00000e6a       0x44 c:/altera/12.0/nios2eds/bin/gnu/h-i686-mingw32/bin/../lib/gcc/nios2-elf/4.1.2/../../../../nios2-elf/lib\libc.a(lib_a-stdio.o)
 .debug_pubnames
                0x00000eae       0x1d c:/altera/12.0/nios2eds/bin/gnu/h-i686-mingw32/bin/../lib/gcc/nios2-elf/4.1.2/../../../../nios2-elf/lib\libc.a(lib_a-strcmp.o)
 .debug_pubnames
                0x00000ecb       0x2c c:/altera/12.0/nios2eds/bin/gnu/h-i686-mingw32/bin/../lib/gcc/nios2-elf/4.1.2/../../../../nios2-elf/lib\libc.a(lib_a-wbuf.o)
 .debug_pubnames
                0x00000ef7       0x1f c:/altera/12.0/nios2eds/bin/gnu/h-i686-mingw32/bin/../lib/gcc/nios2-elf/4.1.2/../../../../nios2-elf/lib\libc.a(lib_a-writer.o)
 .debug_pubnames
                0x00000f16       0x20 c:/altera/12.0/nios2eds/bin/gnu/h-i686-mingw32/bin/../lib/gcc/nios2-elf/4.1.2/../../../../nios2-elf/lib\libc.a(lib_a-callocr.o)
 .debug_pubnames
                0x00000f36       0x1f c:/altera/12.0/nios2eds/bin/gnu/h-i686-mingw32/bin/../lib/gcc/nios2-elf/4.1.2/../../../../nios2-elf/lib\libc.a(lib_a-closer.o)
 .debug_pubnames
                0x00000f55       0x2b c:/altera/12.0/nios2eds/bin/gnu/h-i686-mingw32/bin/../lib/gcc/nios2-elf/4.1.2/../../../../nios2-elf/lib\libc.a(lib_a-fclose.o)
 .debug_pubnames
                0x00000f80       0x1f c:/altera/12.0/nios2eds/bin/gnu/h-i686-mingw32/bin/../lib/gcc/nios2-elf/4.1.2/../../../../nios2-elf/lib\libc.a(lib_a-fstatr.o)
 .debug_pubnames
                0x00000f9f       0x20 c:/altera/12.0/nios2eds/bin/gnu/h-i686-mingw32/bin/../lib/gcc/nios2-elf/4.1.2/../../../../nios2-elf/lib\libc.a(lib_a-isattyr.o)
 .debug_pubnames
                0x00000fbf       0x1f c:/altera/12.0/nios2eds/bin/gnu/h-i686-mingw32/bin/../lib/gcc/nios2-elf/4.1.2/../../../../nios2-elf/lib\libc.a(lib_a-lseekr.o)
 .debug_pubnames
                0x00000fde       0x1e c:/altera/12.0/nios2eds/bin/gnu/h-i686-mingw32/bin/../lib/gcc/nios2-elf/4.1.2/../../../../nios2-elf/lib\libc.a(lib_a-readr.o)
 .debug_pubnames
                0x00000ffc       0x20 c:/altera/12.0/nios2eds/bin/gnu/h-i686-mingw32/bin/../lib/gcc/nios2-elf/4.1.2\libgcc.a(_udivdi3.o)
 .debug_pubnames
                0x0000101c       0x20 c:/altera/12.0/nios2eds/bin/gnu/h-i686-mingw32/bin/../lib/gcc/nios2-elf/4.1.2\libgcc.a(_umoddi3.o)
 .debug_pubnames
                0x0000103c       0x2c c:/altera/12.0/nios2eds/bin/gnu/h-i686-mingw32/bin/../lib/gcc/nios2-elf/4.1.2\libgcc.a(_addsub_df.o)
 .debug_pubnames
                0x00001068       0x1f c:/altera/12.0/nios2eds/bin/gnu/h-i686-mingw32/bin/../lib/gcc/nios2-elf/4.1.2\libgcc.a(_mul_df.o)
 .debug_pubnames
                0x00001087       0x1f c:/altera/12.0/nios2eds/bin/gnu/h-i686-mingw32/bin/../lib/gcc/nios2-elf/4.1.2\libgcc.a(_div_df.o)
 .debug_pubnames
                0x000010a6       0x1e c:/altera/12.0/nios2eds/bin/gnu/h-i686-mingw32/bin/../lib/gcc/nios2-elf/4.1.2\libgcc.a(_eq_df.o)
 .debug_pubnames
                0x000010c4       0x1e c:/altera/12.0/nios2eds/bin/gnu/h-i686-mingw32/bin/../lib/gcc/nios2-elf/4.1.2\libgcc.a(_ne_df.o)
 .debug_pubnames
                0x000010e2       0x1e c:/altera/12.0/nios2eds/bin/gnu/h-i686-mingw32/bin/../lib/gcc/nios2-elf/4.1.2\libgcc.a(_gt_df.o)
 .debug_pubnames
                0x00001100       0x1e c:/altera/12.0/nios2eds/bin/gnu/h-i686-mingw32/bin/../lib/gcc/nios2-elf/4.1.2\libgcc.a(_ge_df.o)
 .debug_pubnames
                0x0000111e       0x1e c:/altera/12.0/nios2eds/bin/gnu/h-i686-mingw32/bin/../lib/gcc/nios2-elf/4.1.2\libgcc.a(_lt_df.o)
 .debug_pubnames
                0x0000113c       0x22 c:/altera/12.0/nios2eds/bin/gnu/h-i686-mingw32/bin/../lib/gcc/nios2-elf/4.1.2\libgcc.a(_si_to_df.o)
 .debug_pubnames
                0x0000115e       0x20 c:/altera/12.0/nios2eds/bin/gnu/h-i686-mingw32/bin/../lib/gcc/nios2-elf/4.1.2\libgcc.a(_df_to_si.o)
 .debug_pubnames
                0x0000117e       0x22 c:/altera/12.0/nios2eds/bin/gnu/h-i686-mingw32/bin/../lib/gcc/nios2-elf/4.1.2\libgcc.a(_thenan_df.o)
 .debug_pubnames
                0x000011a0       0x24 c:/altera/12.0/nios2eds/bin/gnu/h-i686-mingw32/bin/../lib/gcc/nios2-elf/4.1.2\libgcc.a(_usi_to_df.o)
 .debug_pubnames
                0x000011c4       0x1f c:/altera/12.0/nios2eds/bin/gnu/h-i686-mingw32/bin/../lib/gcc/nios2-elf/4.1.2\libgcc.a(_muldi3.o)
 .debug_pubnames
                0x000011e3       0x20 c:/altera/12.0/nios2eds/bin/gnu/h-i686-mingw32/bin/../lib/gcc/nios2-elf/4.1.2\libgcc.a(_clz.o)
 .debug_pubnames
                0x00001203       0x1f c:/altera/12.0/nios2eds/bin/gnu/h-i686-mingw32/bin/../lib/gcc/nios2-elf/4.1.2\libgcc.a(_clzsi2.o)
 .debug_pubnames
                0x00001222       0x1f c:/altera/12.0/nios2eds/bin/gnu/h-i686-mingw32/bin/../lib/gcc/nios2-elf/4.1.2\libgcc.a(_pack_df.o)
 .debug_pubnames
                0x00001241       0x21 c:/altera/12.0/nios2eds/bin/gnu/h-i686-mingw32/bin/../lib/gcc/nios2-elf/4.1.2\libgcc.a(_unpack_df.o)
 .debug_pubnames
                0x00001262       0x26 c:/altera/12.0/nios2eds/bin/gnu/h-i686-mingw32/bin/../lib/gcc/nios2-elf/4.1.2\libgcc.a(_fpcmp_parts_df.o)
 .debug_pubnames
                0x00001288       0x58 ../niosII_simple_socket_server_1_bsp/\libucosii_bsp.a(alt_flash_dev.o)
 .debug_pubnames
                0x000012e0       0x1c ../niosII_simple_socket_server_1_bsp/\libucosii_bsp.a(alt_fstat.o)
 .debug_pubnames
                0x000012fc       0x1d ../niosII_simple_socket_server_1_bsp/\libucosii_bsp.a(alt_isatty.o)
 .debug_pubnames
                0x00001319       0x1f ../niosII_simple_socket_server_1_bsp/\libucosii_bsp.a(alt_load.o)
 .debug_pubnames
                0x00001338       0x1c ../niosII_simple_socket_server_1_bsp/\libucosii_bsp.a(alt_lseek.o)
 .debug_pubnames
                0x00001354       0x46 ../niosII_simple_socket_server_1_bsp/\libucosii_bsp.a(alt_main.o)
 .debug_pubnames
                0x0000139a       0x1b ../niosII_simple_socket_server_1_bsp/\libucosii_bsp.a(alt_sbrk.o)
 .debug_pubnames
                0x000013b5       0x1d ../niosII_simple_socket_server_1_bsp/\libucosii_bsp.a(alt_usleep.o)
 .debug_pubnames
                0x000013d2       0x41 ../niosII_simple_socket_server_1_bsp/\libucosii_bsp.a(alt_env_lock.o)
 .debug_pubnames
                0x00001413       0x48 ../niosII_simple_socket_server_1_bsp/\libucosii_bsp.a(alt_malloc_lock.o)
 .debug_pubnames
                0x0000145b      0x3f8 ../niosII_simple_socket_server_1_bsp/\libucosii_bsp.a(os_core.o)
 .debug_pubnames
                0x00001853      0x3c5 ../niosII_simple_socket_server_1_bsp/\libucosii_bsp.a(os_dbg.o)
 .debug_pubnames
                0x00001c18       0xd0 ../niosII_simple_socket_server_1_bsp/\libucosii_bsp.a(os_flag.o)
 .debug_pubnames
                0x00001ce8       0x96 ../niosII_simple_socket_server_1_bsp/\libucosii_bsp.a(os_mbox.o)
 .debug_pubnames
                0x00001d7e       0x7c ../niosII_simple_socket_server_1_bsp/\libucosii_bsp.a(os_mem.o)
 .debug_pubnames
                0x00001dfa       0xa9 ../niosII_simple_socket_server_1_bsp/\libucosii_bsp.a(os_q.o)
 .debug_pubnames
                0x00001ea3       0x8a ../niosII_simple_socket_server_1_bsp/\libucosii_bsp.a(os_sem.o)
 .debug_pubnames
                0x00001f2d       0xe5 ../niosII_simple_socket_server_1_bsp/\libucosii_bsp.a(os_task.o)
 .debug_pubnames
                0x00002012       0x62 ../niosII_simple_socket_server_1_bsp/\libucosii_bsp.a(os_time.o)
 .debug_pubnames
                0x00002074       0x54 ../niosII_simple_socket_server_1_bsp/\libucosii_bsp.a(alt_sys_init.o)
 .debug_pubnames
                0x000020c8       0xac ../niosII_simple_socket_server_1_bsp/\libucosii_bsp.a(altera_avalon_cfi_flash.o)
 .debug_pubnames
                0x00002174      0x27a ../niosII_simple_socket_server_1_bsp/\libucosii_bsp.a(altera_avalon_cfi_flash_table.o)
 .debug_pubnames
                0x000023ee       0xa5 ../niosII_simple_socket_server_1_bsp/\libucosii_bsp.a(altera_avalon_jtag_uart_fd.o)
 .debug_pubnames
                0x00002493       0x55 ../niosII_simple_socket_server_1_bsp/\libucosii_bsp.a(altera_avalon_jtag_uart_init.o)
 .debug_pubnames
                0x000024e8       0x34 ../niosII_simple_socket_server_1_bsp/\libucosii_bsp.a(altera_avalon_jtag_uart_ioctl.o)
 .debug_pubnames
                0x0000251c       0x33 ../niosII_simple_socket_server_1_bsp/\libucosii_bsp.a(altera_avalon_jtag_uart_read.o)
 .debug_pubnames
                0x0000254f       0x34 ../niosII_simple_socket_server_1_bsp/\libucosii_bsp.a(altera_avalon_jtag_uart_write.o)
 .debug_pubnames
                0x00002583       0x55 ../niosII_simple_socket_server_1_bsp/\libucosii_bsp.a(altera_avalon_lcd_16207.o)
 .debug_pubnames
                0x000025d8       0x37 ../niosII_simple_socket_server_1_bsp/\libucosii_bsp.a(altera_avalon_lcd_16207_fd.o)
 .debug_pubnames
                0x0000260f      0x30e ../niosII_simple_socket_server_1_bsp/\libucosii_bsp.a(altera_avalon_sgdma.o)
 .debug_pubnames
                0x0000291d       0x2f ../niosII_simple_socket_server_1_bsp/\libucosii_bsp.a(altera_avalon_timer_sc.o)
 .debug_pubnames
                0x0000294c      0x4e6 ../niosII_simple_socket_server_1_bsp/\libucosii_bsp.a(altera_avalon_tse.o)
 .debug_pubnames
                0x00002e32       0x71 ../niosII_simple_socket_server_1_bsp/\libucosii_bsp.a(altera_avalon_uart_fd.o)
 .debug_pubnames
                0x00002ea3       0x4b ../niosII_simple_socket_server_1_bsp/\libucosii_bsp.a(altera_avalon_uart_init.o)
 .debug_pubnames
                0x00002eee       0x2e ../niosII_simple_socket_server_1_bsp/\libucosii_bsp.a(altera_avalon_uart_read.o)
 .debug_pubnames
                0x00002f1c       0x2f ../niosII_simple_socket_server_1_bsp/\libucosii_bsp.a(altera_avalon_uart_write.o)
 .debug_pubnames
                0x00002f4b      0x105 ../niosII_simple_socket_server_1_bsp/\libucosii_bsp.a(ins_tse_mac.o)
 .debug_pubnames
                0x00003050       0x1c ../niosII_simple_socket_server_1_bsp/\libucosii_bsp.a(alt_iniche_close.o)
 .debug_pubnames
                0x0000306c       0x42 ../niosII_simple_socket_server_1_bsp/\libucosii_bsp.a(alt_iniche_dev.o)
 .debug_pubnames
                0x000030ae       0x1b ../niosII_simple_socket_server_1_bsp/\libucosii_bsp.a(alt_iniche_read.o)
 .debug_pubnames
                0x000030c9       0x1c ../niosII_simple_socket_server_1_bsp/\libucosii_bsp.a(alt_iniche_write.o)
 .debug_pubnames
                0x000030e5       0x90 ../niosII_simple_socket_server_1_bsp/\libucosii_bsp.a(ipnet.o)
 .debug_pubnames
                0x00003175       0x81 ../niosII_simple_socket_server_1_bsp/\libucosii_bsp.a(ipstart.o)
 .debug_pubnames
                0x000031f6      0x108 ../niosII_simple_socket_server_1_bsp/\libucosii_bsp.a(igmp_cmn.o)
 .debug_pubnames
                0x000032fe       0xc4 ../niosII_simple_socket_server_1_bsp/\libucosii_bsp.a(bsdsock.o)
 .debug_pubnames
                0x000033c2       0x27 ../niosII_simple_socket_server_1_bsp/\libucosii_bsp.a(cksum.o)
 .debug_pubnames
                0x000033e9       0xcc ../niosII_simple_socket_server_1_bsp/\libucosii_bsp.a(in_utils.o)
 .debug_pubnames
                0x000034b5       0xb2 ../niosII_simple_socket_server_1_bsp/\libucosii_bsp.a(netmain.o)
 .debug_pubnames
                0x00003567       0x97 ../niosII_simple_socket_server_1_bsp/\libucosii_bsp.a(tk_crnos.o)
 .debug_pubnames
                0x000035fe       0xe2 ../niosII_simple_socket_server_1_bsp/\libucosii_bsp.a(pktalloc.o)
 .debug_pubnames
                0x000036e0       0x2d ../niosII_simple_socket_server_1_bsp/\libucosii_bsp.a(q.o)
 .debug_pubnames
                0x0000370d       0xc5 ../niosII_simple_socket_server_1_bsp/\libucosii_bsp.a(brdutils.o)
 .debug_pubnames
                0x000037d2      0x10c ../niosII_simple_socket_server_1_bsp/\libucosii_bsp.a(osportco.o)
 .debug_pubnames
                0x000038de       0xf5 ../niosII_simple_socket_server_1_bsp/\libucosii_bsp.a(targnios.o)
 .debug_pubnames
                0x000039d3      0x190 ../niosII_simple_socket_server_1_bsp/\libucosii_bsp.a(nptcp.o)
 .debug_pubnames
                0x00003b63       0x46 ../niosII_simple_socket_server_1_bsp/\libucosii_bsp.a(rawsock.o)
 .debug_pubnames
                0x00003ba9      0x108 ../niosII_simple_socket_server_1_bsp/\libucosii_bsp.a(sockcall.o)
 .debug_pubnames
                0x00003cb1       0xfc ../niosII_simple_socket_server_1_bsp/\libucosii_bsp.a(socket.o)
 .debug_pubnames
                0x00003dad      0x178 ../niosII_simple_socket_server_1_bsp/\libucosii_bsp.a(socket2.o)
 .debug_pubnames
                0x00003f25       0x92 ../niosII_simple_socket_server_1_bsp/\libucosii_bsp.a(soselect.o)
 .debug_pubnames
                0x00003fb7       0xc2 ../niosII_simple_socket_server_1_bsp/\libucosii_bsp.a(tcp_in.o)
 .debug_pubnames
                0x00004079       0x57 ../niosII_simple_socket_server_1_bsp/\libucosii_bsp.a(tcp_out.o)
 .debug_pubnames
                0x000040d0       0xb9 ../niosII_simple_socket_server_1_bsp/\libucosii_bsp.a(tcp_subr.o)
 .debug_pubnames
                0x00004189       0x96 ../niosII_simple_socket_server_1_bsp/\libucosii_bsp.a(tcp_timr.o)
 .debug_pubnames
                0x0000421f       0x79 ../niosII_simple_socket_server_1_bsp/\libucosii_bsp.a(tcp_usr.o)
 .debug_pubnames
                0x00004298       0x54 ../niosII_simple_socket_server_1_bsp/\libucosii_bsp.a(tcp_zio.o)
 .debug_pubnames
                0x000042ec       0x1e ../niosII_simple_socket_server_1_bsp/\libucosii_bsp.a(tcpport.o)
 .debug_pubnames
                0x0000430a       0x76 ../niosII_simple_socket_server_1_bsp/\libucosii_bsp.a(udpsock.o)
 .debug_pubnames
                0x00004380       0x26 ../niosII_simple_socket_server_1_bsp/\libucosii_bsp.a(alt_alarm_start.o)
 .debug_pubnames
                0x000043a6       0x25 ../niosII_simple_socket_server_1_bsp/\libucosii_bsp.a(alt_busy_sleep.o)
 .debug_pubnames
                0x000043cb       0x20 ../niosII_simple_socket_server_1_bsp/\libucosii_bsp.a(alt_close.o)
 .debug_pubnames
                0x000043eb       0x27 ../niosII_simple_socket_server_1_bsp/\libucosii_bsp.a(alt_dcache_flush.o)
 .debug_pubnames
                0x00004412       0x2b ../niosII_simple_socket_server_1_bsp/\libucosii_bsp.a(alt_dcache_flush_all.o)
 .debug_pubnames
                0x0000443d       0x78 ../niosII_simple_socket_server_1_bsp/\libucosii_bsp.a(alt_dev.o)
 .debug_pubnames
                0x000044b5       0x2b ../niosII_simple_socket_server_1_bsp/\libucosii_bsp.a(alt_dev_llist_insert.o)
 .debug_pubnames
                0x000044e0       0x20 ../niosII_simple_socket_server_1_bsp/\libucosii_bsp.a(alt_do_ctors.o)
 .debug_pubnames
                0x00004500       0x20 ../niosII_simple_socket_server_1_bsp/\libucosii_bsp.a(alt_do_dtors.o)
 .debug_pubnames
                0x00004520       0x20 ../niosII_simple_socket_server_1_bsp/\libucosii_bsp.a(alt_errno.o)
 .debug_pubnames
                0x00004540       0x23 ../niosII_simple_socket_server_1_bsp/\libucosii_bsp.a(alt_find_dev.o)
 .debug_pubnames
                0x00004563       0x2b ../niosII_simple_socket_server_1_bsp/\libucosii_bsp.a(alt_icache_flush_all.o)
 .debug_pubnames
                0x0000458e       0x6e ../niosII_simple_socket_server_1_bsp/\libucosii_bsp.a(alt_iic.o)
 .debug_pubnames
                0x000045fc       0x2b ../niosII_simple_socket_server_1_bsp/\libucosii_bsp.a(alt_iic_isr_register.o)
 .debug_pubnames
                0x00004627       0x26 ../niosII_simple_socket_server_1_bsp/\libucosii_bsp.a(alt_io_redirect.o)
 .debug_pubnames
                0x0000464d       0x32 ../niosII_simple_socket_server_1_bsp/\libucosii_bsp.a(alt_irq_handler.o)
 .debug_pubnames
                0x0000467f       0x3b ../niosII_simple_socket_server_1_bsp/\libucosii_bsp.a(alt_irq_vars.o)
 .debug_pubnames
                0x000046ba       0x1b ../niosII_simple_socket_server_1_bsp/\libucosii_bsp.a(alt_open.o)
 .debug_pubnames
                0x000046d5       0x1f ../niosII_simple_socket_server_1_bsp/\libucosii_bsp.a(alt_read.o)
 .debug_pubnames
                0x000046f4       0x25 ../niosII_simple_socket_server_1_bsp/\libucosii_bsp.a(alt_release_fd.o)
 .debug_pubnames
                0x00004719       0x27 ../niosII_simple_socket_server_1_bsp/\libucosii_bsp.a(alt_remap_cached.o)
 .debug_pubnames
                0x00004740       0x29 ../niosII_simple_socket_server_1_bsp/\libucosii_bsp.a(alt_remap_uncached.o)
 .debug_pubnames
                0x00004769       0x68 ../niosII_simple_socket_server_1_bsp/\libucosii_bsp.a(alt_tick.o)
 .debug_pubnames
                0x000047d1       0x2a ../niosII_simple_socket_server_1_bsp/\libucosii_bsp.a(alt_uncached_malloc.o)
 .debug_pubnames
                0x000047fb       0x20 ../niosII_simple_socket_server_1_bsp/\libucosii_bsp.a(alt_write.o)
 .debug_pubnames
                0x0000481b       0x2c ../niosII_simple_socket_server_1_bsp/\libucosii_bsp.a(altera_nios2_irq.o)
 .debug_pubnames
                0x00004847       0xcd ../niosII_simple_socket_server_1_bsp/\libucosii_bsp.a(os_cpu_c.o)
 .debug_pubnames
                0x00004914       0x3e ../niosII_simple_socket_server_1_bsp/\libucosii_bsp.a(altera_avalon_cfi_flash_amd.o)
 .debug_pubnames
                0x00004952       0x42 ../niosII_simple_socket_server_1_bsp/\libucosii_bsp.a(altera_avalon_cfi_flash_intel.o)
 .debug_pubnames
                0x00004994       0xd4 ../niosII_simple_socket_server_1_bsp/\libucosii_bsp.a(allports.o)
 .debug_pubnames
                0x00004a68       0x6f ../niosII_simple_socket_server_1_bsp/\libucosii_bsp.a(timeouts.o)
 .debug_pubnames
                0x00004ad7       0x35 ../niosII_simple_socket_server_1_bsp/\libucosii_bsp.a(tk_misc.o)
 .debug_pubnames
                0x00004b0c       0x1c ../niosII_simple_socket_server_1_bsp/\libucosii_bsp.a(alt_iniche_fcntl.o)
 .debug_pubnames
                0x00004b28      0x134 ../niosII_simple_socket_server_1_bsp/\libucosii_bsp.a(et_arp.o)
 .debug_pubnames
                0x00004c5c       0x58 ../niosII_simple_socket_server_1_bsp/\libucosii_bsp.a(iface.o)
 .debug_pubnames
                0x00004cb4       0xea ../niosII_simple_socket_server_1_bsp/\libucosii_bsp.a(ip.o)
 .debug_pubnames
                0x00004d9e      0x22e ../niosII_simple_socket_server_1_bsp/\libucosii_bsp.a(ip_reasm.o)
 .debug_pubnames
                0x00004fcc       0x3c ../niosII_simple_socket_server_1_bsp/\libucosii_bsp.a(ipdemux.o)
 .debug_pubnames
                0x00005008       0x43 ../niosII_simple_socket_server_1_bsp/\libucosii_bsp.a(ipmc.o)
 .debug_pubnames
                0x0000504b       0x99 ../niosII_simple_socket_server_1_bsp/\libucosii_bsp.a(ipport.o)
 .debug_pubnames
                0x000050e4       0x87 ../niosII_simple_socket_server_1_bsp/\libucosii_bsp.a(ipraw.o)
 .debug_pubnames
                0x0000516b       0x5d ../niosII_simple_socket_server_1_bsp/\libucosii_bsp.a(iproute.o)
 .debug_pubnames
                0x000051c8       0x7f ../niosII_simple_socket_server_1_bsp/\libucosii_bsp.a(udp.o)
 .debug_pubnames
                0x00005247       0x23 ../niosII_simple_socket_server_1_bsp/\libucosii_bsp.a(igmp.o)
 .debug_pubnames
                0x0000526a       0x8d ../niosII_simple_socket_server_1_bsp/\libucosii_bsp.a(igmp2.o)
 .debug_pubnames
                0x000052f7       0x5f ../niosII_simple_socket_server_1_bsp/\libucosii_bsp.a(ipopt.o)
 .debug_pubnames
                0x00005356       0x35 ../niosII_simple_socket_server_1_bsp/\libucosii_bsp.a(u_mctest.o)
 .debug_pubnames
                0x0000538b       0xb1 ../niosII_simple_socket_server_1_bsp/\libucosii_bsp.a(memdev.o)
 .debug_pubnames
                0x0000543c       0xa6 ../niosII_simple_socket_server_1_bsp/\libucosii_bsp.a(parseip.o)
 .debug_pubnames
                0x000054e2       0x20 ../niosII_simple_socket_server_1_bsp/\libucosii_bsp.a(tcpcksum.o)
 .debug_pubnames
                0x00005502       0x3a ../niosII_simple_socket_server_1_bsp/\libucosii_bsp.a(udp_open.o)
 .debug_pubnames
                0x0000553c       0xc8 ../niosII_simple_socket_server_1_bsp/\libucosii_bsp.a(in_pcb.o)
 .debug_pubnames
                0x00005604      0x278 ../niosII_simple_socket_server_1_bsp/\libucosii_bsp.a(vfsfiles.o)
 .debug_pubnames
                0x0000587c       0x1f ../niosII_simple_socket_server_1_bsp/\libucosii_bsp.a(vfsport.o)
 .debug_pubnames
                0x0000589b       0x20 ../niosII_simple_socket_server_1_bsp/\libucosii_bsp.a(alt_fcntl.o)
 .debug_pubnames
                0x000058bb       0x24 ../niosII_simple_socket_server_1_bsp/\libucosii_bsp.a(alt_find_file.o)
 .debug_pubnames
                0x000058df       0x21 ../niosII_simple_socket_server_1_bsp/\libucosii_bsp.a(alt_get_fd.o)
 .debug_pubnames
                0x00005900       0x27 ../niosII_simple_socket_server_1_bsp/\libucosii_bsp.a(alt_icache_flush.o)
 .debug_pubnames
                0x00005927       0x66 ../niosII_simple_socket_server_1_bsp/\libucosii_bsp.a(icmp.o)
 .debug_pubnames
                0x0000598d       0x2a c:/altera/12.0/nios2eds/bin/gnu/h-i686-mingw32/bin/../lib/gcc/nios2-elf/4.1.2/../../../../nios2-elf/lib\libc.a(lib_a-atexit.o)
 .debug_pubnames
                0x000059b7       0x27 c:/altera/12.0/nios2eds/bin/gnu/h-i686-mingw32/bin/../lib/gcc/nios2-elf/4.1.2/../../../../nios2-elf/lib\libc.a(lib_a-atoi.o)
 .debug_pubnames
                0x000059de       0x1d c:/altera/12.0/nios2eds/bin/gnu/h-i686-mingw32/bin/../lib/gcc/nios2-elf/4.1.2/../../../../nios2-elf/lib\libc.a(lib_a-calloc.o)
 .debug_pubnames
                0x000059fb       0x1b c:/altera/12.0/nios2eds/bin/gnu/h-i686-mingw32/bin/../lib/gcc/nios2-elf/4.1.2/../../../../nios2-elf/lib\libc.a(lib_a-exit.o)
 .debug_pubnames
                0x00005a16       0x27 c:/altera/12.0/nios2eds/bin/gnu/h-i686-mingw32/bin/../lib/gcc/nios2-elf/4.1.2/../../../../nios2-elf/lib\libc.a(lib_a-getc.o)
 .debug_pubnames
                0x00005a3d       0x1d c:/altera/12.0/nios2eds/bin/gnu/h-i686-mingw32/bin/../lib/gcc/nios2-elf/4.1.2/../../../../nios2-elf/lib\libc.a(lib_a-memcmp.o)
 .debug_pubnames
                0x00005a5a       0x2c c:/altera/12.0/nios2eds/bin/gnu/h-i686-mingw32/bin/../lib/gcc/nios2-elf/4.1.2/../../../../nios2-elf/lib\libc.a(lib_a-rget.o)
 .debug_pubnames
                0x00005a86       0x1d c:/altera/12.0/nios2eds/bin/gnu/h-i686-mingw32/bin/../lib/gcc/nios2-elf/4.1.2/../../../../nios2-elf/lib\libc.a(lib_a-strcpy.o)
 .debug_pubnames
                0x00005aa3       0x1e c:/altera/12.0/nios2eds/bin/gnu/h-i686-mingw32/bin/../lib/gcc/nios2-elf/4.1.2/../../../../nios2-elf/lib\libc.a(lib_a-strncmp.o)
 .debug_pubnames
                0x00005ac1       0x2b c:/altera/12.0/nios2eds/bin/gnu/h-i686-mingw32/bin/../lib/gcc/nios2-elf/4.1.2/../../../../nios2-elf/lib\libc.a(lib_a-strtol.o)
 .debug_pubnames
                0x00005aec       0x2d c:/altera/12.0/nios2eds/bin/gnu/h-i686-mingw32/bin/../lib/gcc/nios2-elf/4.1.2/../../../../nios2-elf/lib\libc.a(lib_a-vprintf.o)
 .debug_pubnames
                0x00005b19       0x2f c:/altera/12.0/nios2eds/bin/gnu/h-i686-mingw32/bin/../lib/gcc/nios2-elf/4.1.2/../../../../nios2-elf/lib\libc.a(lib_a-vsprintf.o)
 .debug_pubnames
                0x00005b48       0x2a c:/altera/12.0/nios2eds/bin/gnu/h-i686-mingw32/bin/../lib/gcc/nios2-elf/4.1.2/../../../../nios2-elf/lib\libc.a(lib_a-__atexit.o)
 .debug_pubnames
                0x00005b72       0x27 c:/altera/12.0/nios2eds/bin/gnu/h-i686-mingw32/bin/../lib/gcc/nios2-elf/4.1.2/../../../../nios2-elf/lib\libc.a(lib_a-__call_atexit.o)
 .debug_pubnames
                0x00005b99       0x22 c:/altera/12.0/nios2eds/bin/gnu/h-i686-mingw32/bin/../lib/gcc/nios2-elf/4.1.2/../../../../nios2-elf/lib\libc.a(lib_a-refill.o)
 .debug_pubnames
                0x00005bbb       0x1c ../niosII_simple_socket_server_1_bsp/\libucosii_bsp.a(alt_exit.o)

.debug_info     0x00000000    0x84a0f
 *(.debug_info .gnu.linkonce.wi.*)
 .debug_info    0x00000000       0x85 ../niosII_simple_socket_server_1_bsp//obj/HAL/src/crt0.o
 .debug_info    0x00000085      0x733 obj/SSS_DE2_115.o
 .debug_info    0x000007b8      0x422 obj/alt_eeprom/alt_2_wire.o
 .debug_info    0x00000bda      0xe2a obj/alt_eeprom/alt_eeprom.o
 .debug_info    0x00001a04      0xd7a obj/alt_error_handler.o
 .debug_info    0x0000277e     0x1f53 obj/iniche_init.o
 .debug_info    0x000046d1      0x344 obj/led.o
 .debug_info    0x00004a15     0x1800 obj/niosII_simple_socket_server.o
 .debug_info    0x00006215      0x21c c:/altera/12.0/nios2eds/bin/gnu/h-i686-mingw32/bin/../lib/gcc/nios2-elf/4.1.2\libgcc.a(lib2-divmod.o)
 .debug_info    0x00006431       0xa0 c:/altera/12.0/nios2eds/bin/gnu/h-i686-mingw32/bin/../lib/gcc/nios2-elf/4.1.2/../../../../nios2-elf/lib\libc.a(lib_a-ctype_.o)
 .debug_info    0x000064d1      0x9e1 c:/altera/12.0/nios2eds/bin/gnu/h-i686-mingw32/bin/../lib/gcc/nios2-elf/4.1.2/../../../../nios2-elf/lib\libc.a(lib_a-fprintf.o)
 .debug_info    0x00006eb2      0xa83 c:/altera/12.0/nios2eds/bin/gnu/h-i686-mingw32/bin/../lib/gcc/nios2-elf/4.1.2/../../../../nios2-elf/lib\libc.a(lib_a-fwrite.o)
 .debug_info    0x00007935      0x93d c:/altera/12.0/nios2eds/bin/gnu/h-i686-mingw32/bin/../lib/gcc/nios2-elf/4.1.2/../../../../nios2-elf/lib\libc.a(lib_a-impure.o)
 .debug_info    0x00008272      0x96e c:/altera/12.0/nios2eds/bin/gnu/h-i686-mingw32/bin/../lib/gcc/nios2-elf/4.1.2/../../../../nios2-elf/lib\libc.a(lib_a-malloc.o)
 .debug_info    0x00008be0      0xcd0 c:/altera/12.0/nios2eds/bin/gnu/h-i686-mingw32/bin/../lib/gcc/nios2-elf/4.1.2/../../../../nios2-elf/lib\libc.a(lib_a-mallocr.o)
 .debug_info    0x000098b0      0x106 c:/altera/12.0/nios2eds/bin/gnu/h-i686-mingw32/bin/../lib/gcc/nios2-elf/4.1.2/../../../../nios2-elf/lib\libc.a(lib_a-memcpy.o)
 .debug_info    0x000099b6      0x13e c:/altera/12.0/nios2eds/bin/gnu/h-i686-mingw32/bin/../lib/gcc/nios2-elf/4.1.2/../../../../nios2-elf/lib\libc.a(lib_a-memmove.o)
 .debug_info    0x00009af4      0x113 c:/altera/12.0/nios2eds/bin/gnu/h-i686-mingw32/bin/../lib/gcc/nios2-elf/4.1.2/../../../../nios2-elf/lib\libc.a(lib_a-memset.o)
 .debug_info    0x00009c07      0x97b c:/altera/12.0/nios2eds/bin/gnu/h-i686-mingw32/bin/../lib/gcc/nios2-elf/4.1.2/../../../../nios2-elf/lib\libc.a(lib_a-perror.o)
 .debug_info    0x0000a582      0x9d1 c:/altera/12.0/nios2eds/bin/gnu/h-i686-mingw32/bin/../lib/gcc/nios2-elf/4.1.2/../../../../nios2-elf/lib\libc.a(lib_a-printf.o)
 .debug_info    0x0000af53      0x972 c:/altera/12.0/nios2eds/bin/gnu/h-i686-mingw32/bin/../lib/gcc/nios2-elf/4.1.2/../../../../nios2-elf/lib\libc.a(lib_a-putchar.o)
 .debug_info    0x0000b8c5      0xa25 c:/altera/12.0/nios2eds/bin/gnu/h-i686-mingw32/bin/../lib/gcc/nios2-elf/4.1.2/../../../../nios2-elf/lib\libc.a(lib_a-puts.o)
 .debug_info    0x0000c2ea      0x962 c:/altera/12.0/nios2eds/bin/gnu/h-i686-mingw32/bin/../lib/gcc/nios2-elf/4.1.2/../../../../nios2-elf/lib\libc.a(lib_a-sbrkr.o)
 .debug_info    0x0000cc4c      0xa16 c:/altera/12.0/nios2eds/bin/gnu/h-i686-mingw32/bin/../lib/gcc/nios2-elf/4.1.2/../../../../nios2-elf/lib\libc.a(lib_a-sprintf.o)
 .debug_info    0x0000d662      0x118 c:/altera/12.0/nios2eds/bin/gnu/h-i686-mingw32/bin/../lib/gcc/nios2-elf/4.1.2/../../../../nios2-elf/lib\libc.a(lib_a-strchr.o)
 .debug_info    0x0000d77a       0xbb c:/altera/12.0/nios2eds/bin/gnu/h-i686-mingw32/bin/../lib/gcc/nios2-elf/4.1.2/../../../../nios2-elf/lib\libc.a(lib_a-strerror.o)
 .debug_info    0x0000d835       0xdb c:/altera/12.0/nios2eds/bin/gnu/h-i686-mingw32/bin/../lib/gcc/nios2-elf/4.1.2/../../../../nios2-elf/lib\libc.a(lib_a-strlen.o)
 .debug_info    0x0000d910       0x63 c:/altera/12.0/nios2eds/bin/gnu/h-i686-mingw32/bin/../lib/gcc/nios2-elf/4.1.2/../../../../nios2-elf/lib\libc.a(lib_a-u_strerr.o)
 .debug_info    0x0000d973     0x10d5 c:/altera/12.0/nios2eds/bin/gnu/h-i686-mingw32/bin/../lib/gcc/nios2-elf/4.1.2/../../../../nios2-elf/lib\libc.a(lib_a-vfprintf.o)
 .debug_info    0x0000ea48      0x95d c:/altera/12.0/nios2eds/bin/gnu/h-i686-mingw32/bin/../lib/gcc/nios2-elf/4.1.2/../../../../nios2-elf/lib\libc.a(lib_a-wsetup.o)
 .debug_info    0x0000f3a5      0xd6f c:/altera/12.0/nios2eds/bin/gnu/h-i686-mingw32/bin/../lib/gcc/nios2-elf/4.1.2/../../../../nios2-elf/lib\libc.a(lib_a-dtoa.o)
 .debug_info    0x00010114      0x9fe c:/altera/12.0/nios2eds/bin/gnu/h-i686-mingw32/bin/../lib/gcc/nios2-elf/4.1.2/../../../../nios2-elf/lib\libc.a(lib_a-fflush.o)
 .debug_info    0x00010b12      0xb72 c:/altera/12.0/nios2eds/bin/gnu/h-i686-mingw32/bin/../lib/gcc/nios2-elf/4.1.2/../../../../nios2-elf/lib\libc.a(lib_a-findfp.o)
 .debug_info    0x00011684      0x9bd c:/altera/12.0/nios2eds/bin/gnu/h-i686-mingw32/bin/../lib/gcc/nios2-elf/4.1.2/../../../../nios2-elf/lib\libc.a(lib_a-fputc.o)
 .debug_info    0x00012041      0xa40 c:/altera/12.0/nios2eds/bin/gnu/h-i686-mingw32/bin/../lib/gcc/nios2-elf/4.1.2/../../../../nios2-elf/lib\libc.a(lib_a-fputs.o)
 .debug_info    0x00012a81      0xbc9 c:/altera/12.0/nios2eds/bin/gnu/h-i686-mingw32/bin/../lib/gcc/nios2-elf/4.1.2/../../../../nios2-elf/lib\libc.a(lib_a-freer.o)
 .debug_info    0x0001364a      0xa88 c:/altera/12.0/nios2eds/bin/gnu/h-i686-mingw32/bin/../lib/gcc/nios2-elf/4.1.2/../../../../nios2-elf/lib\libc.a(lib_a-fvwrite.o)
 .debug_info    0x000140d2      0xaed c:/altera/12.0/nios2eds/bin/gnu/h-i686-mingw32/bin/../lib/gcc/nios2-elf/4.1.2/../../../../nios2-elf/lib\libc.a(lib_a-fwalk.o)
 .debug_info    0x00014bbf       0x8c c:/altera/12.0/nios2eds/bin/gnu/h-i686-mingw32/bin/../lib/gcc/nios2-elf/4.1.2/../../../../nios2-elf/lib\libc.a(lib_a-int_errno.o)
 .debug_info    0x00014c4b      0xb97 c:/altera/12.0/nios2eds/bin/gnu/h-i686-mingw32/bin/../lib/gcc/nios2-elf/4.1.2/../../../../nios2-elf/lib\libc.a(lib_a-locale.o)
 .debug_info    0x000157e2      0xb1a c:/altera/12.0/nios2eds/bin/gnu/h-i686-mingw32/bin/../lib/gcc/nios2-elf/4.1.2/../../../../nios2-elf/lib\libc.a(lib_a-makebuf.o)
 .debug_info    0x000162fc      0x138 c:/altera/12.0/nios2eds/bin/gnu/h-i686-mingw32/bin/../lib/gcc/nios2-elf/4.1.2/../../../../nios2-elf/lib\libc.a(lib_a-memchr.o)
 .debug_info    0x00016434     0x1437 c:/altera/12.0/nios2eds/bin/gnu/h-i686-mingw32/bin/../lib/gcc/nios2-elf/4.1.2/../../../../nios2-elf/lib\libc.a(lib_a-mprec.o)
 .debug_info    0x0001786b      0x9c1 c:/altera/12.0/nios2eds/bin/gnu/h-i686-mingw32/bin/../lib/gcc/nios2-elf/4.1.2/../../../../nios2-elf/lib\libc.a(lib_a-putc.o)
 .debug_info    0x0001822c      0xbd7 c:/altera/12.0/nios2eds/bin/gnu/h-i686-mingw32/bin/../lib/gcc/nios2-elf/4.1.2/../../../../nios2-elf/lib\libc.a(lib_a-reallocr.o)
 .debug_info    0x00018e03       0xd7 c:/altera/12.0/nios2eds/bin/gnu/h-i686-mingw32/bin/../lib/gcc/nios2-elf/4.1.2/../../../../nios2-elf/lib\libc.a(lib_a-s_isinfd.o)
 .debug_info    0x00018eda       0xd5 c:/altera/12.0/nios2eds/bin/gnu/h-i686-mingw32/bin/../lib/gcc/nios2-elf/4.1.2/../../../../nios2-elf/lib\libc.a(lib_a-s_isnand.o)
 .debug_info    0x00018faf      0xaac c:/altera/12.0/nios2eds/bin/gnu/h-i686-mingw32/bin/../lib/gcc/nios2-elf/4.1.2/../../../../nios2-elf/lib\libc.a(lib_a-stdio.o)
 .debug_info    0x00019a5b       0xdd c:/altera/12.0/nios2eds/bin/gnu/h-i686-mingw32/bin/../lib/gcc/nios2-elf/4.1.2/../../../../nios2-elf/lib\libc.a(lib_a-strcmp.o)
 .debug_info    0x00019b38      0x9ae c:/altera/12.0/nios2eds/bin/gnu/h-i686-mingw32/bin/../lib/gcc/nios2-elf/4.1.2/../../../../nios2-elf/lib\libc.a(lib_a-wbuf.o)
 .debug_info    0x0001a4e6      0x993 c:/altera/12.0/nios2eds/bin/gnu/h-i686-mingw32/bin/../lib/gcc/nios2-elf/4.1.2/../../../../nios2-elf/lib\libc.a(lib_a-writer.o)
 .debug_info    0x0001ae79      0xa1b c:/altera/12.0/nios2eds/bin/gnu/h-i686-mingw32/bin/../lib/gcc/nios2-elf/4.1.2/../../../../nios2-elf/lib\libc.a(lib_a-callocr.o)
 .debug_info    0x0001b894      0x958 c:/altera/12.0/nios2eds/bin/gnu/h-i686-mingw32/bin/../lib/gcc/nios2-elf/4.1.2/../../../../nios2-elf/lib\libc.a(lib_a-closer.o)
 .debug_info    0x0001c1ec      0x994 c:/altera/12.0/nios2eds/bin/gnu/h-i686-mingw32/bin/../lib/gcc/nios2-elf/4.1.2/../../../../nios2-elf/lib\libc.a(lib_a-fclose.o)
 .debug_info    0x0001cb80      0xafc c:/altera/12.0/nios2eds/bin/gnu/h-i686-mingw32/bin/../lib/gcc/nios2-elf/4.1.2/../../../../nios2-elf/lib\libc.a(lib_a-fstatr.o)
 .debug_info    0x0001d67c      0x958 c:/altera/12.0/nios2eds/bin/gnu/h-i686-mingw32/bin/../lib/gcc/nios2-elf/4.1.2/../../../../nios2-elf/lib\libc.a(lib_a-isattyr.o)
 .debug_info    0x0001dfd4      0x981 c:/altera/12.0/nios2eds/bin/gnu/h-i686-mingw32/bin/../lib/gcc/nios2-elf/4.1.2/../../../../nios2-elf/lib\libc.a(lib_a-lseekr.o)
 .debug_info    0x0001e955      0x98c c:/altera/12.0/nios2eds/bin/gnu/h-i686-mingw32/bin/../lib/gcc/nios2-elf/4.1.2/../../../../nios2-elf/lib\libc.a(lib_a-readr.o)
 .debug_info    0x0001f2e1      0x724 c:/altera/12.0/nios2eds/bin/gnu/h-i686-mingw32/bin/../lib/gcc/nios2-elf/4.1.2\libgcc.a(_udivdi3.o)
 .debug_info    0x0001fa05      0x751 c:/altera/12.0/nios2eds/bin/gnu/h-i686-mingw32/bin/../lib/gcc/nios2-elf/4.1.2\libgcc.a(_umoddi3.o)
 .debug_info    0x00020156      0x493 c:/altera/12.0/nios2eds/bin/gnu/h-i686-mingw32/bin/../lib/gcc/nios2-elf/4.1.2\libgcc.a(_addsub_df.o)
 .debug_info    0x000205e9      0x488 c:/altera/12.0/nios2eds/bin/gnu/h-i686-mingw32/bin/../lib/gcc/nios2-elf/4.1.2\libgcc.a(_mul_df.o)
 .debug_info    0x00020a71      0x39b c:/altera/12.0/nios2eds/bin/gnu/h-i686-mingw32/bin/../lib/gcc/nios2-elf/4.1.2\libgcc.a(_div_df.o)
 .debug_info    0x00020e0c      0x29d c:/altera/12.0/nios2eds/bin/gnu/h-i686-mingw32/bin/../lib/gcc/nios2-elf/4.1.2\libgcc.a(_eq_df.o)
 .debug_info    0x000210a9      0x29d c:/altera/12.0/nios2eds/bin/gnu/h-i686-mingw32/bin/../lib/gcc/nios2-elf/4.1.2\libgcc.a(_ne_df.o)
 .debug_info    0x00021346      0x29d c:/altera/12.0/nios2eds/bin/gnu/h-i686-mingw32/bin/../lib/gcc/nios2-elf/4.1.2\libgcc.a(_gt_df.o)
 .debug_info    0x000215e3      0x29d c:/altera/12.0/nios2eds/bin/gnu/h-i686-mingw32/bin/../lib/gcc/nios2-elf/4.1.2\libgcc.a(_ge_df.o)
 .debug_info    0x00021880      0x29d c:/altera/12.0/nios2eds/bin/gnu/h-i686-mingw32/bin/../lib/gcc/nios2-elf/4.1.2\libgcc.a(_lt_df.o)
 .debug_info    0x00021b1d      0x218 c:/altera/12.0/nios2eds/bin/gnu/h-i686-mingw32/bin/../lib/gcc/nios2-elf/4.1.2\libgcc.a(_si_to_df.o)
 .debug_info    0x00021d35      0x2cd c:/altera/12.0/nios2eds/bin/gnu/h-i686-mingw32/bin/../lib/gcc/nios2-elf/4.1.2\libgcc.a(_df_to_si.o)
 .debug_info    0x00022002      0x164 c:/altera/12.0/nios2eds/bin/gnu/h-i686-mingw32/bin/../lib/gcc/nios2-elf/4.1.2\libgcc.a(_thenan_df.o)
 .debug_info    0x00022166      0x213 c:/altera/12.0/nios2eds/bin/gnu/h-i686-mingw32/bin/../lib/gcc/nios2-elf/4.1.2\libgcc.a(_usi_to_df.o)
 .debug_info    0x00022379      0x215 c:/altera/12.0/nios2eds/bin/gnu/h-i686-mingw32/bin/../lib/gcc/nios2-elf/4.1.2\libgcc.a(_muldi3.o)
 .debug_info    0x0002258e       0xc9 c:/altera/12.0/nios2eds/bin/gnu/h-i686-mingw32/bin/../lib/gcc/nios2-elf/4.1.2\libgcc.a(_clz.o)
 .debug_info    0x00022657      0x130 c:/altera/12.0/nios2eds/bin/gnu/h-i686-mingw32/bin/../lib/gcc/nios2-elf/4.1.2\libgcc.a(_clzsi2.o)
 .debug_info    0x00022787      0x2fc c:/altera/12.0/nios2eds/bin/gnu/h-i686-mingw32/bin/../lib/gcc/nios2-elf/4.1.2\libgcc.a(_pack_df.o)
 .debug_info    0x00022a83      0x268 c:/altera/12.0/nios2eds/bin/gnu/h-i686-mingw32/bin/../lib/gcc/nios2-elf/4.1.2\libgcc.a(_unpack_df.o)
 .debug_info    0x00022ceb      0x21b c:/altera/12.0/nios2eds/bin/gnu/h-i686-mingw32/bin/../lib/gcc/nios2-elf/4.1.2\libgcc.a(_fpcmp_parts_df.o)
 .debug_info    0x00022f06      0x5f7 ../niosII_simple_socket_server_1_bsp/\libucosii_bsp.a(alt_flash_dev.o)
 .debug_info    0x000234fd      0x6be ../niosII_simple_socket_server_1_bsp/\libucosii_bsp.a(alt_fstat.o)
 .debug_info    0x00023bbb      0x6c4 ../niosII_simple_socket_server_1_bsp/\libucosii_bsp.a(alt_isatty.o)
 .debug_info    0x0002427f      0x297 ../niosII_simple_socket_server_1_bsp/\libucosii_bsp.a(alt_load.o)
 .debug_info    0x00024516      0x4f8 ../niosII_simple_socket_server_1_bsp/\libucosii_bsp.a(alt_lseek.o)
 .debug_info    0x00024a0e      0x3e7 ../niosII_simple_socket_server_1_bsp/\libucosii_bsp.a(alt_main.o)
 .debug_info    0x00024df5      0x2c1 ../niosII_simple_socket_server_1_bsp/\libucosii_bsp.a(alt_sbrk.o)
 .debug_info    0x000250b6      0x23e ../niosII_simple_socket_server_1_bsp/\libucosii_bsp.a(alt_usleep.o)
 .debug_info    0x000252f4     0x11dd ../niosII_simple_socket_server_1_bsp/\libucosii_bsp.a(alt_env_lock.o)
 .debug_info    0x000264d1     0x1339 ../niosII_simple_socket_server_1_bsp/\libucosii_bsp.a(alt_malloc_lock.o)
 .debug_info    0x0002780a     0x1bf3 ../niosII_simple_socket_server_1_bsp/\libucosii_bsp.a(os_core.o)
 .debug_info    0x000293fd     0x1138 ../niosII_simple_socket_server_1_bsp/\libucosii_bsp.a(os_dbg.o)
 .debug_info    0x0002a535     0x124e ../niosII_simple_socket_server_1_bsp/\libucosii_bsp.a(os_flag.o)
 .debug_info    0x0002b783      0xd4a ../niosII_simple_socket_server_1_bsp/\libucosii_bsp.a(os_mbox.o)
 .debug_info    0x0002c4cd      0x818 ../niosII_simple_socket_server_1_bsp/\libucosii_bsp.a(os_mem.o)
 .debug_info    0x0002cce5     0x1088 ../niosII_simple_socket_server_1_bsp/\libucosii_bsp.a(os_q.o)
 .debug_info    0x0002dd6d      0xcf0 ../niosII_simple_socket_server_1_bsp/\libucosii_bsp.a(os_sem.o)
 .debug_info    0x0002ea5d     0x1366 ../niosII_simple_socket_server_1_bsp/\libucosii_bsp.a(os_task.o)
 .debug_info    0x0002fdc3      0x9ea ../niosII_simple_socket_server_1_bsp/\libucosii_bsp.a(os_time.o)
 .debug_info    0x000307ad     0x1ef6 ../niosII_simple_socket_server_1_bsp/\libucosii_bsp.a(alt_sys_init.o)
 .debug_info    0x000326a3      0xb53 ../niosII_simple_socket_server_1_bsp/\libucosii_bsp.a(altera_avalon_cfi_flash.o)
 .debug_info    0x000331f6      0xe3f ../niosII_simple_socket_server_1_bsp/\libucosii_bsp.a(altera_avalon_cfi_flash_table.o)
 .debug_info    0x00034035      0x9dc ../niosII_simple_socket_server_1_bsp/\libucosii_bsp.a(altera_avalon_jtag_uart_fd.o)
 .debug_info    0x00034a11      0x95a ../niosII_simple_socket_server_1_bsp/\libucosii_bsp.a(altera_avalon_jtag_uart_init.o)
 .debug_info    0x0003536b      0x646 ../niosII_simple_socket_server_1_bsp/\libucosii_bsp.a(altera_avalon_jtag_uart_ioctl.o)
 .debug_info    0x000359b1      0x802 ../niosII_simple_socket_server_1_bsp/\libucosii_bsp.a(altera_avalon_jtag_uart_read.o)
 .debug_info    0x000361b3      0x7f9 ../niosII_simple_socket_server_1_bsp/\libucosii_bsp.a(altera_avalon_jtag_uart_write.o)
 .debug_info    0x000369ac      0xaa8 ../niosII_simple_socket_server_1_bsp/\libucosii_bsp.a(altera_avalon_lcd_16207.o)
 .debug_info    0x00037454      0x840 ../niosII_simple_socket_server_1_bsp/\libucosii_bsp.a(altera_avalon_lcd_16207_fd.o)
 .debug_info    0x00037c94      0xf29 ../niosII_simple_socket_server_1_bsp/\libucosii_bsp.a(altera_avalon_sgdma.o)
 .debug_info    0x00038bbd      0x395 ../niosII_simple_socket_server_1_bsp/\libucosii_bsp.a(altera_avalon_timer_sc.o)
 .debug_info    0x00038f52     0x3118 ../niosII_simple_socket_server_1_bsp/\libucosii_bsp.a(altera_avalon_tse.o)
 .debug_info    0x0003c06a      0x87c ../niosII_simple_socket_server_1_bsp/\libucosii_bsp.a(altera_avalon_uart_fd.o)
 .debug_info    0x0003c8e6      0x848 ../niosII_simple_socket_server_1_bsp/\libucosii_bsp.a(altera_avalon_uart_init.o)
 .debug_info    0x0003d12e      0x7ca ../niosII_simple_socket_server_1_bsp/\libucosii_bsp.a(altera_avalon_uart_read.o)
 .debug_info    0x0003d8f8      0x7b9 ../niosII_simple_socket_server_1_bsp/\libucosii_bsp.a(altera_avalon_uart_write.o)
 .debug_info    0x0003e0b1     0x2b46 ../niosII_simple_socket_server_1_bsp/\libucosii_bsp.a(ins_tse_mac.o)
 .debug_info    0x00040bf7      0x1c0 ../niosII_simple_socket_server_1_bsp/\libucosii_bsp.a(alt_iniche_close.o)
 .debug_info    0x00040db7      0xb67 ../niosII_simple_socket_server_1_bsp/\libucosii_bsp.a(alt_iniche_dev.o)
 .debug_info    0x0004191e      0x1ea ../niosII_simple_socket_server_1_bsp/\libucosii_bsp.a(alt_iniche_read.o)
 .debug_info    0x00041b08      0x1f1 ../niosII_simple_socket_server_1_bsp/\libucosii_bsp.a(alt_iniche_write.o)
 .debug_info    0x00041cf9      0xc53 ../niosII_simple_socket_server_1_bsp/\libucosii_bsp.a(ipnet.o)
 .debug_info    0x0004294c      0xba6 ../niosII_simple_socket_server_1_bsp/\libucosii_bsp.a(ipstart.o)
 .debug_info    0x000434f2     0x153a ../niosII_simple_socket_server_1_bsp/\libucosii_bsp.a(igmp_cmn.o)
 .debug_info    0x00044a2c     0x149f ../niosII_simple_socket_server_1_bsp/\libucosii_bsp.a(bsdsock.o)
 .debug_info    0x00045ecb      0x25c ../niosII_simple_socket_server_1_bsp/\libucosii_bsp.a(cksum.o)
 .debug_info    0x00046127      0x74e ../niosII_simple_socket_server_1_bsp/\libucosii_bsp.a(in_utils.o)
 .debug_info    0x00046875      0x568 ../niosII_simple_socket_server_1_bsp/\libucosii_bsp.a(netmain.o)
 .debug_info    0x00046ddd      0x975 ../niosII_simple_socket_server_1_bsp/\libucosii_bsp.a(tk_crnos.o)
 .debug_info    0x00047752      0xcb2 ../niosII_simple_socket_server_1_bsp/\libucosii_bsp.a(pktalloc.o)
 .debug_info    0x00048404      0x2f6 ../niosII_simple_socket_server_1_bsp/\libucosii_bsp.a(q.o)
 .debug_info    0x000486fa       0x97 ../niosII_simple_socket_server_1_bsp/\libucosii_bsp.a(asm_cksum.o)
 .debug_info    0x00048791      0xeb7 ../niosII_simple_socket_server_1_bsp/\libucosii_bsp.a(brdutils.o)
 .debug_info    0x00049648      0x6e9 ../niosII_simple_socket_server_1_bsp/\libucosii_bsp.a(osportco.o)
 .debug_info    0x00049d31      0x666 ../niosII_simple_socket_server_1_bsp/\libucosii_bsp.a(targnios.o)
 .debug_info    0x0004a397     0x2562 ../niosII_simple_socket_server_1_bsp/\libucosii_bsp.a(nptcp.o)
 .debug_info    0x0004c8f9     0x121a ../niosII_simple_socket_server_1_bsp/\libucosii_bsp.a(rawsock.o)
 .debug_info    0x0004db13     0x1cd8 ../niosII_simple_socket_server_1_bsp/\libucosii_bsp.a(sockcall.o)
 .debug_info    0x0004f7eb     0x1ade ../niosII_simple_socket_server_1_bsp/\libucosii_bsp.a(socket.o)
 .debug_info    0x000512c9     0x15a4 ../niosII_simple_socket_server_1_bsp/\libucosii_bsp.a(socket2.o)
 .debug_info    0x0005286d     0x12bd ../niosII_simple_socket_server_1_bsp/\libucosii_bsp.a(soselect.o)
 .debug_info    0x00053b2a     0x2233 ../niosII_simple_socket_server_1_bsp/\libucosii_bsp.a(tcp_in.o)
 .debug_info    0x00055d5d     0x1e5e ../niosII_simple_socket_server_1_bsp/\libucosii_bsp.a(tcp_out.o)
 .debug_info    0x00057bbb     0x1ec6 ../niosII_simple_socket_server_1_bsp/\libucosii_bsp.a(tcp_subr.o)
 .debug_info    0x00059a81     0x1cfb ../niosII_simple_socket_server_1_bsp/\libucosii_bsp.a(tcp_timr.o)
 .debug_info    0x0005b77c     0x1c9e ../niosII_simple_socket_server_1_bsp/\libucosii_bsp.a(tcp_usr.o)
 .debug_info    0x0005d41a     0x166c ../niosII_simple_socket_server_1_bsp/\libucosii_bsp.a(tcp_zio.o)
 .debug_info    0x0005ea86      0x1bc ../niosII_simple_socket_server_1_bsp/\libucosii_bsp.a(tcpport.o)
 .debug_info    0x0005ec42     0x1374 ../niosII_simple_socket_server_1_bsp/\libucosii_bsp.a(udpsock.o)
 .debug_info    0x0005ffb6      0x44c ../niosII_simple_socket_server_1_bsp/\libucosii_bsp.a(alt_alarm_start.o)
 .debug_info    0x00060402      0x1b5 ../niosII_simple_socket_server_1_bsp/\libucosii_bsp.a(alt_busy_sleep.o)
 .debug_info    0x000605b7      0x4c9 ../niosII_simple_socket_server_1_bsp/\libucosii_bsp.a(alt_close.o)
 .debug_info    0x00060a80      0x1ae ../niosII_simple_socket_server_1_bsp/\libucosii_bsp.a(alt_dcache_flush.o)
 .debug_info    0x00060c2e      0x179 ../niosII_simple_socket_server_1_bsp/\libucosii_bsp.a(alt_dcache_flush_all.o)
 .debug_info    0x00060da7      0x7e7 ../niosII_simple_socket_server_1_bsp/\libucosii_bsp.a(alt_dev.o)
 .debug_info    0x0006158e      0x2c1 ../niosII_simple_socket_server_1_bsp/\libucosii_bsp.a(alt_dev_llist_insert.o)
 .debug_info    0x0006184f      0x119 ../niosII_simple_socket_server_1_bsp/\libucosii_bsp.a(alt_do_ctors.o)
 .debug_info    0x00061968      0x118 ../niosII_simple_socket_server_1_bsp/\libucosii_bsp.a(alt_do_dtors.o)
 .debug_info    0x00061a80      0x16e ../niosII_simple_socket_server_1_bsp/\libucosii_bsp.a(alt_errno.o)
 .debug_info    0x00061bee      0x476 ../niosII_simple_socket_server_1_bsp/\libucosii_bsp.a(alt_find_dev.o)
 .debug_info    0x00062064      0x166 ../niosII_simple_socket_server_1_bsp/\libucosii_bsp.a(alt_icache_flush_all.o)
 .debug_info    0x000621ca      0x49d ../niosII_simple_socket_server_1_bsp/\libucosii_bsp.a(alt_iic.o)
 .debug_info    0x00062667      0x31e ../niosII_simple_socket_server_1_bsp/\libucosii_bsp.a(alt_iic_isr_register.o)
 .debug_info    0x00062985      0x6f3 ../niosII_simple_socket_server_1_bsp/\libucosii_bsp.a(alt_io_redirect.o)
 .debug_info    0x00063078       0x8e ../niosII_simple_socket_server_1_bsp/\libucosii_bsp.a(alt_irq_entry.o)
 .debug_info    0x00063106      0x2c4 ../niosII_simple_socket_server_1_bsp/\libucosii_bsp.a(alt_irq_handler.o)
 .debug_info    0x000633ca      0x171 ../niosII_simple_socket_server_1_bsp/\libucosii_bsp.a(alt_irq_vars.o)
 .debug_info    0x0006353b      0x574 ../niosII_simple_socket_server_1_bsp/\libucosii_bsp.a(alt_open.o)
 .debug_info    0x00063aaf      0x6ec ../niosII_simple_socket_server_1_bsp/\libucosii_bsp.a(alt_read.o)
 .debug_info    0x0006419b      0x459 ../niosII_simple_socket_server_1_bsp/\libucosii_bsp.a(alt_release_fd.o)
 .debug_info    0x000645f4      0x19b ../niosII_simple_socket_server_1_bsp/\libucosii_bsp.a(alt_remap_cached.o)
 .debug_info    0x0006478f      0x19f ../niosII_simple_socket_server_1_bsp/\libucosii_bsp.a(alt_remap_uncached.o)
 .debug_info    0x0006492e      0x41b ../niosII_simple_socket_server_1_bsp/\libucosii_bsp.a(alt_tick.o)
 .debug_info    0x00064d49      0x1a1 ../niosII_simple_socket_server_1_bsp/\libucosii_bsp.a(alt_uncached_malloc.o)
 .debug_info    0x00064eea      0x6f5 ../niosII_simple_socket_server_1_bsp/\libucosii_bsp.a(alt_write.o)
 .debug_info    0x000655df      0x163 ../niosII_simple_socket_server_1_bsp/\libucosii_bsp.a(altera_nios2_irq.o)
 .debug_info    0x00065742       0x8d ../niosII_simple_socket_server_1_bsp/\libucosii_bsp.a(os_cpu_a.o)
 .debug_info    0x000657cf     0x12dd ../niosII_simple_socket_server_1_bsp/\libucosii_bsp.a(os_cpu_c.o)
 .debug_info    0x00066aac      0x8f3 ../niosII_simple_socket_server_1_bsp/\libucosii_bsp.a(altera_avalon_cfi_flash_amd.o)
 .debug_info    0x0006739f      0x8e9 ../niosII_simple_socket_server_1_bsp/\libucosii_bsp.a(altera_avalon_cfi_flash_intel.o)
 .debug_info    0x00067c88      0xda9 ../niosII_simple_socket_server_1_bsp/\libucosii_bsp.a(allports.o)
 .debug_info    0x00068a31      0x3cb ../niosII_simple_socket_server_1_bsp/\libucosii_bsp.a(timeouts.o)
 .debug_info    0x00068dfc      0x22a ../niosII_simple_socket_server_1_bsp/\libucosii_bsp.a(tk_misc.o)
 .debug_info    0x00069026      0x217 ../niosII_simple_socket_server_1_bsp/\libucosii_bsp.a(alt_iniche_fcntl.o)
 .debug_info    0x0006923d     0x1283 ../niosII_simple_socket_server_1_bsp/\libucosii_bsp.a(et_arp.o)
 .debug_info    0x0006a4c0      0xfd6 ../niosII_simple_socket_server_1_bsp/\libucosii_bsp.a(iface.o)
 .debug_info    0x0006b496     0x170e ../niosII_simple_socket_server_1_bsp/\libucosii_bsp.a(ip.o)
 .debug_info    0x0006cba4     0x1872 ../niosII_simple_socket_server_1_bsp/\libucosii_bsp.a(ip_reasm.o)
 .debug_info    0x0006e416      0xdf3 ../niosII_simple_socket_server_1_bsp/\libucosii_bsp.a(ipdemux.o)
 .debug_info    0x0006f209      0xa4f ../niosII_simple_socket_server_1_bsp/\libucosii_bsp.a(ipmc.o)
 .debug_info    0x0006fc58      0x2ed ../niosII_simple_socket_server_1_bsp/\libucosii_bsp.a(ipport.o)
 .debug_info    0x0006ff45      0xf60 ../niosII_simple_socket_server_1_bsp/\libucosii_bsp.a(ipraw.o)
 .debug_info    0x00070ea5      0xf0b ../niosII_simple_socket_server_1_bsp/\libucosii_bsp.a(iproute.o)
 .debug_info    0x00071db0     0x12d7 ../niosII_simple_socket_server_1_bsp/\libucosii_bsp.a(udp.o)
 .debug_info    0x00073087     0x113c ../niosII_simple_socket_server_1_bsp/\libucosii_bsp.a(igmp.o)
 .debug_info    0x000741c3     0x1370 ../niosII_simple_socket_server_1_bsp/\libucosii_bsp.a(igmp2.o)
 .debug_info    0x00075533     0x1120 ../niosII_simple_socket_server_1_bsp/\libucosii_bsp.a(ipopt.o)
 .debug_info    0x00076653      0xbc3 ../niosII_simple_socket_server_1_bsp/\libucosii_bsp.a(u_mctest.o)
 .debug_info    0x00077216      0x749 ../niosII_simple_socket_server_1_bsp/\libucosii_bsp.a(memdev.o)
 .debug_info    0x0007795f      0x6f4 ../niosII_simple_socket_server_1_bsp/\libucosii_bsp.a(parseip.o)
 .debug_info    0x00078053      0x3ee ../niosII_simple_socket_server_1_bsp/\libucosii_bsp.a(tcpcksum.o)
 .debug_info    0x00078441      0xb31 ../niosII_simple_socket_server_1_bsp/\libucosii_bsp.a(udp_open.o)
 .debug_info    0x00078f72     0x12f2 ../niosII_simple_socket_server_1_bsp/\libucosii_bsp.a(in_pcb.o)
 .debug_info    0x0007a264      0xfee ../niosII_simple_socket_server_1_bsp/\libucosii_bsp.a(vfsfiles.o)
 .debug_info    0x0007b252      0x1bd ../niosII_simple_socket_server_1_bsp/\libucosii_bsp.a(vfsport.o)
 .debug_info    0x0007b40f       0x94 ../niosII_simple_socket_server_1_bsp/\libucosii_bsp.a(alt_exception_entry.o)
 .debug_info    0x0007b4a3      0x70a ../niosII_simple_socket_server_1_bsp/\libucosii_bsp.a(alt_fcntl.o)
 .debug_info    0x0007bbad      0x47d ../niosII_simple_socket_server_1_bsp/\libucosii_bsp.a(alt_find_file.o)
 .debug_info    0x0007c02a      0x60f ../niosII_simple_socket_server_1_bsp/\libucosii_bsp.a(alt_get_fd.o)
 .debug_info    0x0007c639      0x1ae ../niosII_simple_socket_server_1_bsp/\libucosii_bsp.a(alt_icache_flush.o)
 .debug_info    0x0007c7e7     0x1190 ../niosII_simple_socket_server_1_bsp/\libucosii_bsp.a(icmp.o)
 .debug_info    0x0007d977      0x181 c:/altera/12.0/nios2eds/bin/gnu/h-i686-mingw32/bin/../lib/gcc/nios2-elf/4.1.2/../../../../nios2-elf/lib\libc.a(lib_a-atexit.o)
 .debug_info    0x0007daf8      0x960 c:/altera/12.0/nios2eds/bin/gnu/h-i686-mingw32/bin/../lib/gcc/nios2-elf/4.1.2/../../../../nios2-elf/lib\libc.a(lib_a-atoi.o)
 .debug_info    0x0007e458      0x954 c:/altera/12.0/nios2eds/bin/gnu/h-i686-mingw32/bin/../lib/gcc/nios2-elf/4.1.2/../../../../nios2-elf/lib\libc.a(lib_a-calloc.o)
 .debug_info    0x0007edac      0x93f c:/altera/12.0/nios2eds/bin/gnu/h-i686-mingw32/bin/../lib/gcc/nios2-elf/4.1.2/../../../../nios2-elf/lib\libc.a(lib_a-exit.o)
 .debug_info    0x0007f6eb      0x9a7 c:/altera/12.0/nios2eds/bin/gnu/h-i686-mingw32/bin/../lib/gcc/nios2-elf/4.1.2/../../../../nios2-elf/lib\libc.a(lib_a-getc.o)
 .debug_info    0x00080092      0x115 c:/altera/12.0/nios2eds/bin/gnu/h-i686-mingw32/bin/../lib/gcc/nios2-elf/4.1.2/../../../../nios2-elf/lib\libc.a(lib_a-memcmp.o)
 .debug_info    0x000801a7      0x987 c:/altera/12.0/nios2eds/bin/gnu/h-i686-mingw32/bin/../lib/gcc/nios2-elf/4.1.2/../../../../nios2-elf/lib\libc.a(lib_a-rget.o)
 .debug_info    0x00080b2e      0x110 c:/altera/12.0/nios2eds/bin/gnu/h-i686-mingw32/bin/../lib/gcc/nios2-elf/4.1.2/../../../../nios2-elf/lib\libc.a(lib_a-strcpy.o)
 .debug_info    0x00080c3e       0xf5 c:/altera/12.0/nios2eds/bin/gnu/h-i686-mingw32/bin/../lib/gcc/nios2-elf/4.1.2/../../../../nios2-elf/lib\libc.a(lib_a-strncmp.o)
 .debug_info    0x00080d33      0xa2a c:/altera/12.0/nios2eds/bin/gnu/h-i686-mingw32/bin/../lib/gcc/nios2-elf/4.1.2/../../../../nios2-elf/lib\libc.a(lib_a-strtol.o)
 .debug_info    0x0008175d      0x9aa c:/altera/12.0/nios2eds/bin/gnu/h-i686-mingw32/bin/../lib/gcc/nios2-elf/4.1.2/../../../../nios2-elf/lib\libc.a(lib_a-vprintf.o)
 .debug_info    0x00082107      0x9ed c:/altera/12.0/nios2eds/bin/gnu/h-i686-mingw32/bin/../lib/gcc/nios2-elf/4.1.2/../../../../nios2-elf/lib\libc.a(lib_a-vsprintf.o)
 .debug_info    0x00082af4      0x99c c:/altera/12.0/nios2eds/bin/gnu/h-i686-mingw32/bin/../lib/gcc/nios2-elf/4.1.2/../../../../nios2-elf/lib\libc.a(lib_a-__atexit.o)
 .debug_info    0x00083490      0x9e2 c:/altera/12.0/nios2eds/bin/gnu/h-i686-mingw32/bin/../lib/gcc/nios2-elf/4.1.2/../../../../nios2-elf/lib\libc.a(lib_a-__call_atexit.o)
 .debug_info    0x00083e72      0x98b c:/altera/12.0/nios2eds/bin/gnu/h-i686-mingw32/bin/../lib/gcc/nios2-elf/4.1.2/../../../../nios2-elf/lib\libc.a(lib_a-refill.o)
 .debug_info    0x000847fd      0x212 ../niosII_simple_socket_server_1_bsp/\libucosii_bsp.a(alt_exit.o)

.debug_abbrev   0x00000000    0x12689
 *(.debug_abbrev)
 .debug_abbrev  0x00000000       0x12 ../niosII_simple_socket_server_1_bsp//obj/HAL/src/crt0.o
 .debug_abbrev  0x00000012      0x15c obj/SSS_DE2_115.o
 .debug_abbrev  0x0000016e      0x116 obj/alt_eeprom/alt_2_wire.o
 .debug_abbrev  0x00000284      0x1c3 obj/alt_eeprom/alt_eeprom.o
 .debug_abbrev  0x00000447      0x1f1 obj/alt_error_handler.o
 .debug_abbrev  0x00000638      0x24e obj/iniche_init.o
 .debug_abbrev  0x00000886       0xc0 obj/led.o
 .debug_abbrev  0x00000946      0x1fa obj/niosII_simple_socket_server.o
 .debug_abbrev  0x00000b40       0xe0 c:/altera/12.0/nios2eds/bin/gnu/h-i686-mingw32/bin/../lib/gcc/nios2-elf/4.1.2\libgcc.a(lib2-divmod.o)
 .debug_abbrev  0x00000c20       0x61 c:/altera/12.0/nios2eds/bin/gnu/h-i686-mingw32/bin/../lib/gcc/nios2-elf/4.1.2/../../../../nios2-elf/lib\libc.a(lib_a-ctype_.o)
 .debug_abbrev  0x00000c81      0x197 c:/altera/12.0/nios2eds/bin/gnu/h-i686-mingw32/bin/../lib/gcc/nios2-elf/4.1.2/../../../../nios2-elf/lib\libc.a(lib_a-fprintf.o)
 .debug_abbrev  0x00000e18      0x1b1 c:/altera/12.0/nios2eds/bin/gnu/h-i686-mingw32/bin/../lib/gcc/nios2-elf/4.1.2/../../../../nios2-elf/lib\libc.a(lib_a-fwrite.o)
 .debug_abbrev  0x00000fc9      0x157 c:/altera/12.0/nios2eds/bin/gnu/h-i686-mingw32/bin/../lib/gcc/nios2-elf/4.1.2/../../../../nios2-elf/lib\libc.a(lib_a-impure.o)
 .debug_abbrev  0x00001120      0x187 c:/altera/12.0/nios2eds/bin/gnu/h-i686-mingw32/bin/../lib/gcc/nios2-elf/4.1.2/../../../../nios2-elf/lib\libc.a(lib_a-malloc.o)
 .debug_abbrev  0x000012a7      0x216 c:/altera/12.0/nios2eds/bin/gnu/h-i686-mingw32/bin/../lib/gcc/nios2-elf/4.1.2/../../../../nios2-elf/lib\libc.a(lib_a-mallocr.o)
 .debug_abbrev  0x000014bd       0xb5 c:/altera/12.0/nios2eds/bin/gnu/h-i686-mingw32/bin/../lib/gcc/nios2-elf/4.1.2/../../../../nios2-elf/lib\libc.a(lib_a-memcpy.o)
 .debug_abbrev  0x00001572       0xb5 c:/altera/12.0/nios2eds/bin/gnu/h-i686-mingw32/bin/../lib/gcc/nios2-elf/4.1.2/../../../../nios2-elf/lib\libc.a(lib_a-memmove.o)
 .debug_abbrev  0x00001627       0xb8 c:/altera/12.0/nios2eds/bin/gnu/h-i686-mingw32/bin/../lib/gcc/nios2-elf/4.1.2/../../../../nios2-elf/lib\libc.a(lib_a-memset.o)
 .debug_abbrev  0x000016df      0x194 c:/altera/12.0/nios2eds/bin/gnu/h-i686-mingw32/bin/../lib/gcc/nios2-elf/4.1.2/../../../../nios2-elf/lib\libc.a(lib_a-perror.o)
 .debug_abbrev  0x00001873      0x191 c:/altera/12.0/nios2eds/bin/gnu/h-i686-mingw32/bin/../lib/gcc/nios2-elf/4.1.2/../../../../nios2-elf/lib\libc.a(lib_a-printf.o)
 .debug_abbrev  0x00001a04      0x170 c:/altera/12.0/nios2eds/bin/gnu/h-i686-mingw32/bin/../lib/gcc/nios2-elf/4.1.2/../../../../nios2-elf/lib\libc.a(lib_a-putchar.o)
 .debug_abbrev  0x00001b74      0x1ac c:/altera/12.0/nios2eds/bin/gnu/h-i686-mingw32/bin/../lib/gcc/nios2-elf/4.1.2/../../../../nios2-elf/lib\libc.a(lib_a-puts.o)
 .debug_abbrev  0x00001d20      0x18c c:/altera/12.0/nios2eds/bin/gnu/h-i686-mingw32/bin/../lib/gcc/nios2-elf/4.1.2/../../../../nios2-elf/lib\libc.a(lib_a-sbrkr.o)
 .debug_abbrev  0x00001eac      0x191 c:/altera/12.0/nios2eds/bin/gnu/h-i686-mingw32/bin/../lib/gcc/nios2-elf/4.1.2/../../../../nios2-elf/lib\libc.a(lib_a-sprintf.o)
 .debug_abbrev  0x0000203d       0x80 c:/altera/12.0/nios2eds/bin/gnu/h-i686-mingw32/bin/../lib/gcc/nios2-elf/4.1.2/../../../../nios2-elf/lib\libc.a(lib_a-strchr.o)
 .debug_abbrev  0x000020bd       0x68 c:/altera/12.0/nios2eds/bin/gnu/h-i686-mingw32/bin/../lib/gcc/nios2-elf/4.1.2/../../../../nios2-elf/lib\libc.a(lib_a-strerror.o)
 .debug_abbrev  0x00002125       0x8b c:/altera/12.0/nios2eds/bin/gnu/h-i686-mingw32/bin/../lib/gcc/nios2-elf/4.1.2/../../../../nios2-elf/lib\libc.a(lib_a-strlen.o)
 .debug_abbrev  0x000021b0       0x5b c:/altera/12.0/nios2eds/bin/gnu/h-i686-mingw32/bin/../lib/gcc/nios2-elf/4.1.2/../../../../nios2-elf/lib\libc.a(lib_a-u_strerr.o)
 .debug_abbrev  0x0000220b      0x30a c:/altera/12.0/nios2eds/bin/gnu/h-i686-mingw32/bin/../lib/gcc/nios2-elf/4.1.2/../../../../nios2-elf/lib\libc.a(lib_a-vfprintf.o)
 .debug_abbrev  0x00002515      0x170 c:/altera/12.0/nios2eds/bin/gnu/h-i686-mingw32/bin/../lib/gcc/nios2-elf/4.1.2/../../../../nios2-elf/lib\libc.a(lib_a-wsetup.o)
 .debug_abbrev  0x00002685      0x232 c:/altera/12.0/nios2eds/bin/gnu/h-i686-mingw32/bin/../lib/gcc/nios2-elf/4.1.2/../../../../nios2-elf/lib\libc.a(lib_a-dtoa.o)
 .debug_abbrev  0x000028b7      0x1c6 c:/altera/12.0/nios2eds/bin/gnu/h-i686-mingw32/bin/../lib/gcc/nios2-elf/4.1.2/../../../../nios2-elf/lib\libc.a(lib_a-fflush.o)
 .debug_abbrev  0x00002a7d      0x24c c:/altera/12.0/nios2eds/bin/gnu/h-i686-mingw32/bin/../lib/gcc/nios2-elf/4.1.2/../../../../nios2-elf/lib\libc.a(lib_a-findfp.o)
 .debug_abbrev  0x00002cc9      0x18c c:/altera/12.0/nios2eds/bin/gnu/h-i686-mingw32/bin/../lib/gcc/nios2-elf/4.1.2/../../../../nios2-elf/lib\libc.a(lib_a-fputc.o)
 .debug_abbrev  0x00002e55      0x1aa c:/altera/12.0/nios2eds/bin/gnu/h-i686-mingw32/bin/../lib/gcc/nios2-elf/4.1.2/../../../../nios2-elf/lib\libc.a(lib_a-fputs.o)
 .debug_abbrev  0x00002fff      0x1d9 c:/altera/12.0/nios2eds/bin/gnu/h-i686-mingw32/bin/../lib/gcc/nios2-elf/4.1.2/../../../../nios2-elf/lib\libc.a(lib_a-freer.o)
 .debug_abbrev  0x000031d8      0x1a3 c:/altera/12.0/nios2eds/bin/gnu/h-i686-mingw32/bin/../lib/gcc/nios2-elf/4.1.2/../../../../nios2-elf/lib\libc.a(lib_a-fvwrite.o)
 .debug_abbrev  0x0000337b      0x1e3 c:/altera/12.0/nios2eds/bin/gnu/h-i686-mingw32/bin/../lib/gcc/nios2-elf/4.1.2/../../../../nios2-elf/lib\libc.a(lib_a-fwalk.o)
 .debug_abbrev  0x0000355e       0x3b c:/altera/12.0/nios2eds/bin/gnu/h-i686-mingw32/bin/../lib/gcc/nios2-elf/4.1.2/../../../../nios2-elf/lib\libc.a(lib_a-int_errno.o)
 .debug_abbrev  0x00003599      0x1ed c:/altera/12.0/nios2eds/bin/gnu/h-i686-mingw32/bin/../lib/gcc/nios2-elf/4.1.2/../../../../nios2-elf/lib\libc.a(lib_a-locale.o)
 .debug_abbrev  0x00003786      0x197 c:/altera/12.0/nios2eds/bin/gnu/h-i686-mingw32/bin/../lib/gcc/nios2-elf/4.1.2/../../../../nios2-elf/lib\libc.a(lib_a-makebuf.o)
 .debug_abbrev  0x0000391d       0xb5 c:/altera/12.0/nios2eds/bin/gnu/h-i686-mingw32/bin/../lib/gcc/nios2-elf/4.1.2/../../../../nios2-elf/lib\libc.a(lib_a-memchr.o)
 .debug_abbrev  0x000039d2      0x297 c:/altera/12.0/nios2eds/bin/gnu/h-i686-mingw32/bin/../lib/gcc/nios2-elf/4.1.2/../../../../nios2-elf/lib\libc.a(lib_a-mprec.o)
 .debug_abbrev  0x00003c69      0x17f c:/altera/12.0/nios2eds/bin/gnu/h-i686-mingw32/bin/../lib/gcc/nios2-elf/4.1.2/../../../../nios2-elf/lib\libc.a(lib_a-putc.o)
 .debug_abbrev  0x00003de8      0x1c3 c:/altera/12.0/nios2eds/bin/gnu/h-i686-mingw32/bin/../lib/gcc/nios2-elf/4.1.2/../../../../nios2-elf/lib\libc.a(lib_a-reallocr.o)
 .debug_abbrev  0x00003fab       0x79 c:/altera/12.0/nios2eds/bin/gnu/h-i686-mingw32/bin/../lib/gcc/nios2-elf/4.1.2/../../../../nios2-elf/lib\libc.a(lib_a-s_isinfd.o)
 .debug_abbrev  0x00004024       0x79 c:/altera/12.0/nios2eds/bin/gnu/h-i686-mingw32/bin/../lib/gcc/nios2-elf/4.1.2/../../../../nios2-elf/lib\libc.a(lib_a-s_isnand.o)
 .debug_abbrev  0x0000409d      0x1c9 c:/altera/12.0/nios2eds/bin/gnu/h-i686-mingw32/bin/../lib/gcc/nios2-elf/4.1.2/../../../../nios2-elf/lib\libc.a(lib_a-stdio.o)
 .debug_abbrev  0x00004266       0x80 c:/altera/12.0/nios2eds/bin/gnu/h-i686-mingw32/bin/../lib/gcc/nios2-elf/4.1.2/../../../../nios2-elf/lib\libc.a(lib_a-strcmp.o)
 .debug_abbrev  0x000042e6      0x198 c:/altera/12.0/nios2eds/bin/gnu/h-i686-mingw32/bin/../lib/gcc/nios2-elf/4.1.2/../../../../nios2-elf/lib\libc.a(lib_a-wbuf.o)
 .debug_abbrev  0x0000447e      0x184 c:/altera/12.0/nios2eds/bin/gnu/h-i686-mingw32/bin/../lib/gcc/nios2-elf/4.1.2/../../../../nios2-elf/lib\libc.a(lib_a-writer.o)
 .debug_abbrev  0x00004602      0x1b8 c:/altera/12.0/nios2eds/bin/gnu/h-i686-mingw32/bin/../lib/gcc/nios2-elf/4.1.2/../../../../nios2-elf/lib\libc.a(lib_a-callocr.o)
 .debug_abbrev  0x000047ba      0x17f c:/altera/12.0/nios2eds/bin/gnu/h-i686-mingw32/bin/../lib/gcc/nios2-elf/4.1.2/../../../../nios2-elf/lib\libc.a(lib_a-closer.o)
 .debug_abbrev  0x00004939      0x1a7 c:/altera/12.0/nios2eds/bin/gnu/h-i686-mingw32/bin/../lib/gcc/nios2-elf/4.1.2/../../../../nios2-elf/lib\libc.a(lib_a-fclose.o)
 .debug_abbrev  0x00004ae0      0x18e c:/altera/12.0/nios2eds/bin/gnu/h-i686-mingw32/bin/../lib/gcc/nios2-elf/4.1.2/../../../../nios2-elf/lib\libc.a(lib_a-fstatr.o)
 .debug_abbrev  0x00004c6e      0x17f c:/altera/12.0/nios2eds/bin/gnu/h-i686-mingw32/bin/../lib/gcc/nios2-elf/4.1.2/../../../../nios2-elf/lib\libc.a(lib_a-isattyr.o)
 .debug_abbrev  0x00004ded      0x18e c:/altera/12.0/nios2eds/bin/gnu/h-i686-mingw32/bin/../lib/gcc/nios2-elf/4.1.2/../../../../nios2-elf/lib\libc.a(lib_a-lseekr.o)
 .debug_abbrev  0x00004f7b      0x17f c:/altera/12.0/nios2eds/bin/gnu/h-i686-mingw32/bin/../lib/gcc/nios2-elf/4.1.2/../../../../nios2-elf/lib\libc.a(lib_a-readr.o)
 .debug_abbrev  0x000050fa      0x16b c:/altera/12.0/nios2eds/bin/gnu/h-i686-mingw32/bin/../lib/gcc/nios2-elf/4.1.2\libgcc.a(_udivdi3.o)
 .debug_abbrev  0x00005265      0x18e c:/altera/12.0/nios2eds/bin/gnu/h-i686-mingw32/bin/../lib/gcc/nios2-elf/4.1.2\libgcc.a(_umoddi3.o)
 .debug_abbrev  0x000053f3      0x1d2 c:/altera/12.0/nios2eds/bin/gnu/h-i686-mingw32/bin/../lib/gcc/nios2-elf/4.1.2\libgcc.a(_addsub_df.o)
 .debug_abbrev  0x000055c5      0x204 c:/altera/12.0/nios2eds/bin/gnu/h-i686-mingw32/bin/../lib/gcc/nios2-elf/4.1.2\libgcc.a(_mul_df.o)
 .debug_abbrev  0x000057c9      0x1e3 c:/altera/12.0/nios2eds/bin/gnu/h-i686-mingw32/bin/../lib/gcc/nios2-elf/4.1.2\libgcc.a(_div_df.o)
 .debug_abbrev  0x000059ac      0x151 c:/altera/12.0/nios2eds/bin/gnu/h-i686-mingw32/bin/../lib/gcc/nios2-elf/4.1.2\libgcc.a(_eq_df.o)
 .debug_abbrev  0x00005afd      0x151 c:/altera/12.0/nios2eds/bin/gnu/h-i686-mingw32/bin/../lib/gcc/nios2-elf/4.1.2\libgcc.a(_ne_df.o)
 .debug_abbrev  0x00005c4e      0x151 c:/altera/12.0/nios2eds/bin/gnu/h-i686-mingw32/bin/../lib/gcc/nios2-elf/4.1.2\libgcc.a(_gt_df.o)
 .debug_abbrev  0x00005d9f      0x151 c:/altera/12.0/nios2eds/bin/gnu/h-i686-mingw32/bin/../lib/gcc/nios2-elf/4.1.2\libgcc.a(_ge_df.o)
 .debug_abbrev  0x00005ef0      0x151 c:/altera/12.0/nios2eds/bin/gnu/h-i686-mingw32/bin/../lib/gcc/nios2-elf/4.1.2\libgcc.a(_lt_df.o)
 .debug_abbrev  0x00006041      0x13f c:/altera/12.0/nios2eds/bin/gnu/h-i686-mingw32/bin/../lib/gcc/nios2-elf/4.1.2\libgcc.a(_si_to_df.o)
 .debug_abbrev  0x00006180      0x176 c:/altera/12.0/nios2eds/bin/gnu/h-i686-mingw32/bin/../lib/gcc/nios2-elf/4.1.2\libgcc.a(_df_to_si.o)
 .debug_abbrev  0x000062f6       0xba c:/altera/12.0/nios2eds/bin/gnu/h-i686-mingw32/bin/../lib/gcc/nios2-elf/4.1.2\libgcc.a(_thenan_df.o)
 .debug_abbrev  0x000063b0      0x155 c:/altera/12.0/nios2eds/bin/gnu/h-i686-mingw32/bin/../lib/gcc/nios2-elf/4.1.2\libgcc.a(_usi_to_df.o)
 .debug_abbrev  0x00006505       0xee c:/altera/12.0/nios2eds/bin/gnu/h-i686-mingw32/bin/../lib/gcc/nios2-elf/4.1.2\libgcc.a(_muldi3.o)
 .debug_abbrev  0x000065f3       0x61 c:/altera/12.0/nios2eds/bin/gnu/h-i686-mingw32/bin/../lib/gcc/nios2-elf/4.1.2\libgcc.a(_clz.o)
 .debug_abbrev  0x00006654       0xb9 c:/altera/12.0/nios2eds/bin/gnu/h-i686-mingw32/bin/../lib/gcc/nios2-elf/4.1.2\libgcc.a(_clzsi2.o)
 .debug_abbrev  0x0000670d      0x1b1 c:/altera/12.0/nios2eds/bin/gnu/h-i686-mingw32/bin/../lib/gcc/nios2-elf/4.1.2\libgcc.a(_pack_df.o)
 .debug_abbrev  0x000068be      0x149 c:/altera/12.0/nios2eds/bin/gnu/h-i686-mingw32/bin/../lib/gcc/nios2-elf/4.1.2\libgcc.a(_unpack_df.o)
 .debug_abbrev  0x00006a07      0x132 c:/altera/12.0/nios2eds/bin/gnu/h-i686-mingw32/bin/../lib/gcc/nios2-elf/4.1.2\libgcc.a(_fpcmp_parts_df.o)
 .debug_abbrev  0x00006b39      0x128 ../niosII_simple_socket_server_1_bsp/\libucosii_bsp.a(alt_flash_dev.o)
 .debug_abbrev  0x00006c61      0x102 ../niosII_simple_socket_server_1_bsp/\libucosii_bsp.a(alt_fstat.o)
 .debug_abbrev  0x00006d63      0x102 ../niosII_simple_socket_server_1_bsp/\libucosii_bsp.a(alt_isatty.o)
 .debug_abbrev  0x00006e65       0x88 ../niosII_simple_socket_server_1_bsp/\libucosii_bsp.a(alt_load.o)
 .debug_abbrev  0x00006eed      0x102 ../niosII_simple_socket_server_1_bsp/\libucosii_bsp.a(alt_lseek.o)
 .debug_abbrev  0x00006fef      0x120 ../niosII_simple_socket_server_1_bsp/\libucosii_bsp.a(alt_main.o)
 .debug_abbrev  0x0000710f      0x115 ../niosII_simple_socket_server_1_bsp/\libucosii_bsp.a(alt_sbrk.o)
 .debug_abbrev  0x00007224       0xb7 ../niosII_simple_socket_server_1_bsp/\libucosii_bsp.a(alt_usleep.o)
 .debug_abbrev  0x000072db      0x1b3 ../niosII_simple_socket_server_1_bsp/\libucosii_bsp.a(alt_env_lock.o)
 .debug_abbrev  0x0000748e      0x234 ../niosII_simple_socket_server_1_bsp/\libucosii_bsp.a(alt_malloc_lock.o)
 .debug_abbrev  0x000076c2      0x2aa ../niosII_simple_socket_server_1_bsp/\libucosii_bsp.a(os_core.o)
 .debug_abbrev  0x0000796c      0x114 ../niosII_simple_socket_server_1_bsp/\libucosii_bsp.a(os_dbg.o)
 .debug_abbrev  0x00007a80      0x21b ../niosII_simple_socket_server_1_bsp/\libucosii_bsp.a(os_flag.o)
 .debug_abbrev  0x00007c9b      0x1f6 ../niosII_simple_socket_server_1_bsp/\libucosii_bsp.a(os_mbox.o)
 .debug_abbrev  0x00007e91      0x235 ../niosII_simple_socket_server_1_bsp/\libucosii_bsp.a(os_mem.o)
 .debug_abbrev  0x000080c6      0x20d ../niosII_simple_socket_server_1_bsp/\libucosii_bsp.a(os_q.o)
 .debug_abbrev  0x000082d3      0x20d ../niosII_simple_socket_server_1_bsp/\libucosii_bsp.a(os_sem.o)
 .debug_abbrev  0x000084e0      0x20e ../niosII_simple_socket_server_1_bsp/\libucosii_bsp.a(os_task.o)
 .debug_abbrev  0x000086ee      0x1de ../niosII_simple_socket_server_1_bsp/\libucosii_bsp.a(os_time.o)
 .debug_abbrev  0x000088cc      0x1eb ../niosII_simple_socket_server_1_bsp/\libucosii_bsp.a(alt_sys_init.o)
 .debug_abbrev  0x00008ab7      0x1bf ../niosII_simple_socket_server_1_bsp/\libucosii_bsp.a(altera_avalon_cfi_flash.o)
 .debug_abbrev  0x00008c76      0x185 ../niosII_simple_socket_server_1_bsp/\libucosii_bsp.a(altera_avalon_cfi_flash_table.o)
 .debug_abbrev  0x00008dfb      0x13c ../niosII_simple_socket_server_1_bsp/\libucosii_bsp.a(altera_avalon_jtag_uart_fd.o)
 .debug_abbrev  0x00008f37      0x21e ../niosII_simple_socket_server_1_bsp/\libucosii_bsp.a(altera_avalon_jtag_uart_init.o)
 .debug_abbrev  0x00009155      0x135 ../niosII_simple_socket_server_1_bsp/\libucosii_bsp.a(altera_avalon_jtag_uart_ioctl.o)
 .debug_abbrev  0x0000928a      0x1ee ../niosII_simple_socket_server_1_bsp/\libucosii_bsp.a(altera_avalon_jtag_uart_read.o)
 .debug_abbrev  0x00009478      0x1ea ../niosII_simple_socket_server_1_bsp/\libucosii_bsp.a(altera_avalon_jtag_uart_write.o)
 .debug_abbrev  0x00009662      0x235 ../niosII_simple_socket_server_1_bsp/\libucosii_bsp.a(altera_avalon_lcd_16207.o)
 .debug_abbrev  0x00009897      0x12f ../niosII_simple_socket_server_1_bsp/\libucosii_bsp.a(altera_avalon_lcd_16207_fd.o)
 .debug_abbrev  0x000099c6      0x23a ../niosII_simple_socket_server_1_bsp/\libucosii_bsp.a(altera_avalon_sgdma.o)
 .debug_abbrev  0x00009c00      0x137 ../niosII_simple_socket_server_1_bsp/\libucosii_bsp.a(altera_avalon_timer_sc.o)
 .debug_abbrev  0x00009d37      0x229 ../niosII_simple_socket_server_1_bsp/\libucosii_bsp.a(altera_avalon_tse.o)
 .debug_abbrev  0x00009f60      0x124 ../niosII_simple_socket_server_1_bsp/\libucosii_bsp.a(altera_avalon_uart_fd.o)
 .debug_abbrev  0x0000a084      0x204 ../niosII_simple_socket_server_1_bsp/\libucosii_bsp.a(altera_avalon_uart_init.o)
 .debug_abbrev  0x0000a288      0x1b9 ../niosII_simple_socket_server_1_bsp/\libucosii_bsp.a(altera_avalon_uart_read.o)
 .debug_abbrev  0x0000a441      0x1c0 ../niosII_simple_socket_server_1_bsp/\libucosii_bsp.a(altera_avalon_uart_write.o)
 .debug_abbrev  0x0000a601      0x299 ../niosII_simple_socket_server_1_bsp/\libucosii_bsp.a(ins_tse_mac.o)
 .debug_abbrev  0x0000a89a       0x77 ../niosII_simple_socket_server_1_bsp/\libucosii_bsp.a(alt_iniche_close.o)
 .debug_abbrev  0x0000a911      0x11f ../niosII_simple_socket_server_1_bsp/\libucosii_bsp.a(alt_iniche_dev.o)
 .debug_abbrev  0x0000aa30       0x7e ../niosII_simple_socket_server_1_bsp/\libucosii_bsp.a(alt_iniche_read.o)
 .debug_abbrev  0x0000aaae       0x85 ../niosII_simple_socket_server_1_bsp/\libucosii_bsp.a(alt_iniche_write.o)
 .debug_abbrev  0x0000ab33      0x184 ../niosII_simple_socket_server_1_bsp/\libucosii_bsp.a(ipnet.o)
 .debug_abbrev  0x0000acb7      0x18b ../niosII_simple_socket_server_1_bsp/\libucosii_bsp.a(ipstart.o)
 .debug_abbrev  0x0000ae42      0x191 ../niosII_simple_socket_server_1_bsp/\libucosii_bsp.a(igmp_cmn.o)
 .debug_abbrev  0x0000afd3      0x1a3 ../niosII_simple_socket_server_1_bsp/\libucosii_bsp.a(bsdsock.o)
 .debug_abbrev  0x0000b176       0x96 ../niosII_simple_socket_server_1_bsp/\libucosii_bsp.a(cksum.o)
 .debug_abbrev  0x0000b20c      0x18b ../niosII_simple_socket_server_1_bsp/\libucosii_bsp.a(in_utils.o)
 .debug_abbrev  0x0000b397      0x152 ../niosII_simple_socket_server_1_bsp/\libucosii_bsp.a(netmain.o)
 .debug_abbrev  0x0000b4e9      0x144 ../niosII_simple_socket_server_1_bsp/\libucosii_bsp.a(tk_crnos.o)
 .debug_abbrev  0x0000b62d      0x196 ../niosII_simple_socket_server_1_bsp/\libucosii_bsp.a(pktalloc.o)
 .debug_abbrev  0x0000b7c3       0xcb ../niosII_simple_socket_server_1_bsp/\libucosii_bsp.a(q.o)
 .debug_abbrev  0x0000b88e       0x14 ../niosII_simple_socket_server_1_bsp/\libucosii_bsp.a(asm_cksum.o)
 .debug_abbrev  0x0000b8a2      0x242 ../niosII_simple_socket_server_1_bsp/\libucosii_bsp.a(brdutils.o)
 .debug_abbrev  0x0000bae4      0x194 ../niosII_simple_socket_server_1_bsp/\libucosii_bsp.a(osportco.o)
 .debug_abbrev  0x0000bc78      0x199 ../niosII_simple_socket_server_1_bsp/\libucosii_bsp.a(targnios.o)
 .debug_abbrev  0x0000be11      0x1dc ../niosII_simple_socket_server_1_bsp/\libucosii_bsp.a(nptcp.o)
 .debug_abbrev  0x0000bfed      0x136 ../niosII_simple_socket_server_1_bsp/\libucosii_bsp.a(rawsock.o)
 .debug_abbrev  0x0000c123      0x1de ../niosII_simple_socket_server_1_bsp/\libucosii_bsp.a(sockcall.o)
 .debug_abbrev  0x0000c301      0x1ef ../niosII_simple_socket_server_1_bsp/\libucosii_bsp.a(socket.o)
 .debug_abbrev  0x0000c4f0      0x1ac ../niosII_simple_socket_server_1_bsp/\libucosii_bsp.a(socket2.o)
 .debug_abbrev  0x0000c69c      0x17f ../niosII_simple_socket_server_1_bsp/\libucosii_bsp.a(soselect.o)
 .debug_abbrev  0x0000c81b      0x1ca ../niosII_simple_socket_server_1_bsp/\libucosii_bsp.a(tcp_in.o)
 .debug_abbrev  0x0000c9e5      0x1a4 ../niosII_simple_socket_server_1_bsp/\libucosii_bsp.a(tcp_out.o)
 .debug_abbrev  0x0000cb89      0x1c3 ../niosII_simple_socket_server_1_bsp/\libucosii_bsp.a(tcp_subr.o)
 .debug_abbrev  0x0000cd4c      0x19e ../niosII_simple_socket_server_1_bsp/\libucosii_bsp.a(tcp_timr.o)
 .debug_abbrev  0x0000ceea      0x175 ../niosII_simple_socket_server_1_bsp/\libucosii_bsp.a(tcp_usr.o)
 .debug_abbrev  0x0000d05f      0x148 ../niosII_simple_socket_server_1_bsp/\libucosii_bsp.a(tcp_zio.o)
 .debug_abbrev  0x0000d1a7       0x77 ../niosII_simple_socket_server_1_bsp/\libucosii_bsp.a(tcpport.o)
 .debug_abbrev  0x0000d21e      0x190 ../niosII_simple_socket_server_1_bsp/\libucosii_bsp.a(udpsock.o)
 .debug_abbrev  0x0000d3ae      0x172 ../niosII_simple_socket_server_1_bsp/\libucosii_bsp.a(alt_alarm_start.o)
 .debug_abbrev  0x0000d520       0x6c ../niosII_simple_socket_server_1_bsp/\libucosii_bsp.a(alt_busy_sleep.o)
 .debug_abbrev  0x0000d58c      0x102 ../niosII_simple_socket_server_1_bsp/\libucosii_bsp.a(alt_close.o)
 .debug_abbrev  0x0000d68e       0x7a ../niosII_simple_socket_server_1_bsp/\libucosii_bsp.a(alt_dcache_flush.o)
 .debug_abbrev  0x0000d708       0x57 ../niosII_simple_socket_server_1_bsp/\libucosii_bsp.a(alt_dcache_flush_all.o)
 .debug_abbrev  0x0000d75f      0x10a ../niosII_simple_socket_server_1_bsp/\libucosii_bsp.a(alt_dev.o)
 .debug_abbrev  0x0000d869       0xf6 ../niosII_simple_socket_server_1_bsp/\libucosii_bsp.a(alt_dev_llist_insert.o)
 .debug_abbrev  0x0000d95f       0x76 ../niosII_simple_socket_server_1_bsp/\libucosii_bsp.a(alt_do_ctors.o)
 .debug_abbrev  0x0000d9d5       0x76 ../niosII_simple_socket_server_1_bsp/\libucosii_bsp.a(alt_do_dtors.o)
 .debug_abbrev  0x0000da4b       0x5e ../niosII_simple_socket_server_1_bsp/\libucosii_bsp.a(alt_errno.o)
 .debug_abbrev  0x0000daa9       0xd6 ../niosII_simple_socket_server_1_bsp/\libucosii_bsp.a(alt_find_dev.o)
 .debug_abbrev  0x0000db7f       0x3f ../niosII_simple_socket_server_1_bsp/\libucosii_bsp.a(alt_icache_flush_all.o)
 .debug_abbrev  0x0000dbbe      0x134 ../niosII_simple_socket_server_1_bsp/\libucosii_bsp.a(alt_iic.o)
 .debug_abbrev  0x0000dcf2      0x14e ../niosII_simple_socket_server_1_bsp/\libucosii_bsp.a(alt_iic_isr_register.o)
 .debug_abbrev  0x0000de40       0xf7 ../niosII_simple_socket_server_1_bsp/\libucosii_bsp.a(alt_io_redirect.o)
 .debug_abbrev  0x0000df37       0x12 ../niosII_simple_socket_server_1_bsp/\libucosii_bsp.a(alt_irq_entry.o)
 .debug_abbrev  0x0000df49      0x124 ../niosII_simple_socket_server_1_bsp/\libucosii_bsp.a(alt_irq_handler.o)
 .debug_abbrev  0x0000e06d       0x44 ../niosII_simple_socket_server_1_bsp/\libucosii_bsp.a(alt_irq_vars.o)
 .debug_abbrev  0x0000e0b1      0x119 ../niosII_simple_socket_server_1_bsp/\libucosii_bsp.a(alt_open.o)
 .debug_abbrev  0x0000e1ca      0x102 ../niosII_simple_socket_server_1_bsp/\libucosii_bsp.a(alt_read.o)
 .debug_abbrev  0x0000e2cc       0xd3 ../niosII_simple_socket_server_1_bsp/\libucosii_bsp.a(alt_release_fd.o)
 .debug_abbrev  0x0000e39f       0x74 ../niosII_simple_socket_server_1_bsp/\libucosii_bsp.a(alt_remap_cached.o)
 .debug_abbrev  0x0000e413       0x74 ../niosII_simple_socket_server_1_bsp/\libucosii_bsp.a(alt_remap_uncached.o)
 .debug_abbrev  0x0000e487      0x150 ../niosII_simple_socket_server_1_bsp/\libucosii_bsp.a(alt_tick.o)
 .debug_abbrev  0x0000e5d7       0x83 ../niosII_simple_socket_server_1_bsp/\libucosii_bsp.a(alt_uncached_malloc.o)
 .debug_abbrev  0x0000e65a      0x107 ../niosII_simple_socket_server_1_bsp/\libucosii_bsp.a(alt_write.o)
 .debug_abbrev  0x0000e761       0x3f ../niosII_simple_socket_server_1_bsp/\libucosii_bsp.a(altera_nios2_irq.o)
 .debug_abbrev  0x0000e7a0       0x14 ../niosII_simple_socket_server_1_bsp/\libucosii_bsp.a(os_cpu_a.o)
 .debug_abbrev  0x0000e7b4      0x1d0 ../niosII_simple_socket_server_1_bsp/\libucosii_bsp.a(os_cpu_c.o)
 .debug_abbrev  0x0000e984      0x14d ../niosII_simple_socket_server_1_bsp/\libucosii_bsp.a(altera_avalon_cfi_flash_amd.o)
 .debug_abbrev  0x0000ead1      0x14d ../niosII_simple_socket_server_1_bsp/\libucosii_bsp.a(altera_avalon_cfi_flash_intel.o)
 .debug_abbrev  0x0000ec1e      0x173 ../niosII_simple_socket_server_1_bsp/\libucosii_bsp.a(allports.o)
 .debug_abbrev  0x0000ed91      0x151 ../niosII_simple_socket_server_1_bsp/\libucosii_bsp.a(timeouts.o)
 .debug_abbrev  0x0000eee2       0xa4 ../niosII_simple_socket_server_1_bsp/\libucosii_bsp.a(tk_misc.o)
 .debug_abbrev  0x0000ef86       0x92 ../niosII_simple_socket_server_1_bsp/\libucosii_bsp.a(alt_iniche_fcntl.o)
 .debug_abbrev  0x0000f018      0x1eb ../niosII_simple_socket_server_1_bsp/\libucosii_bsp.a(et_arp.o)
 .debug_abbrev  0x0000f203      0x13d ../niosII_simple_socket_server_1_bsp/\libucosii_bsp.a(iface.o)
 .debug_abbrev  0x0000f340      0x1ed ../niosII_simple_socket_server_1_bsp/\libucosii_bsp.a(ip.o)
 .debug_abbrev  0x0000f52d      0x1ca ../niosII_simple_socket_server_1_bsp/\libucosii_bsp.a(ip_reasm.o)
 .debug_abbrev  0x0000f6f7      0x166 ../niosII_simple_socket_server_1_bsp/\libucosii_bsp.a(ipdemux.o)
 .debug_abbrev  0x0000f85d      0x114 ../niosII_simple_socket_server_1_bsp/\libucosii_bsp.a(ipmc.o)
 .debug_abbrev  0x0000f971       0xe9 ../niosII_simple_socket_server_1_bsp/\libucosii_bsp.a(ipport.o)
 .debug_abbrev  0x0000fa5a      0x19c ../niosII_simple_socket_server_1_bsp/\libucosii_bsp.a(ipraw.o)
 .debug_abbrev  0x0000fbf6      0x156 ../niosII_simple_socket_server_1_bsp/\libucosii_bsp.a(iproute.o)
 .debug_abbrev  0x0000fd4c      0x1c0 ../niosII_simple_socket_server_1_bsp/\libucosii_bsp.a(udp.o)
 .debug_abbrev  0x0000ff0c      0x10e ../niosII_simple_socket_server_1_bsp/\libucosii_bsp.a(igmp.o)
 .debug_abbrev  0x0001001a      0x17a ../niosII_simple_socket_server_1_bsp/\libucosii_bsp.a(igmp2.o)
 .debug_abbrev  0x00010194      0x189 ../niosII_simple_socket_server_1_bsp/\libucosii_bsp.a(ipopt.o)
 .debug_abbrev  0x0001031d      0x15a ../niosII_simple_socket_server_1_bsp/\libucosii_bsp.a(u_mctest.o)
 .debug_abbrev  0x00010477      0x175 ../niosII_simple_socket_server_1_bsp/\libucosii_bsp.a(memdev.o)
 .debug_abbrev  0x000105ec      0x154 ../niosII_simple_socket_server_1_bsp/\libucosii_bsp.a(parseip.o)
 .debug_abbrev  0x00010740       0xad ../niosII_simple_socket_server_1_bsp/\libucosii_bsp.a(tcpcksum.o)
 .debug_abbrev  0x000107ed      0x144 ../niosII_simple_socket_server_1_bsp/\libucosii_bsp.a(udp_open.o)
 .debug_abbrev  0x00010931      0x19f ../niosII_simple_socket_server_1_bsp/\libucosii_bsp.a(in_pcb.o)
 .debug_abbrev  0x00010ad0      0x1b6 ../niosII_simple_socket_server_1_bsp/\libucosii_bsp.a(vfsfiles.o)
 .debug_abbrev  0x00010c86       0x77 ../niosII_simple_socket_server_1_bsp/\libucosii_bsp.a(vfsport.o)
 .debug_abbrev  0x00010cfd       0x12 ../niosII_simple_socket_server_1_bsp/\libucosii_bsp.a(alt_exception_entry.o)
 .debug_abbrev  0x00010d0f      0x107 ../niosII_simple_socket_server_1_bsp/\libucosii_bsp.a(alt_fcntl.o)
 .debug_abbrev  0x00010e16       0xd6 ../niosII_simple_socket_server_1_bsp/\libucosii_bsp.a(alt_find_file.o)
 .debug_abbrev  0x00010eec      0x173 ../niosII_simple_socket_server_1_bsp/\libucosii_bsp.a(alt_get_fd.o)
 .debug_abbrev  0x0001105f       0x7a ../niosII_simple_socket_server_1_bsp/\libucosii_bsp.a(alt_icache_flush.o)
 .debug_abbrev  0x000110d9      0x15d ../niosII_simple_socket_server_1_bsp/\libucosii_bsp.a(icmp.o)
 .debug_abbrev  0x00011236       0xb7 c:/altera/12.0/nios2eds/bin/gnu/h-i686-mingw32/bin/../lib/gcc/nios2-elf/4.1.2/../../../../nios2-elf/lib\libc.a(lib_a-atexit.o)
 .debug_abbrev  0x000112ed      0x176 c:/altera/12.0/nios2eds/bin/gnu/h-i686-mingw32/bin/../lib/gcc/nios2-elf/4.1.2/../../../../nios2-elf/lib\libc.a(lib_a-atoi.o)
 .debug_abbrev  0x00011463      0x17f c:/altera/12.0/nios2eds/bin/gnu/h-i686-mingw32/bin/../lib/gcc/nios2-elf/4.1.2/../../../../nios2-elf/lib\libc.a(lib_a-calloc.o)
 .debug_abbrev  0x000115e2      0x16e c:/altera/12.0/nios2eds/bin/gnu/h-i686-mingw32/bin/../lib/gcc/nios2-elf/4.1.2/../../../../nios2-elf/lib\libc.a(lib_a-exit.o)
 .debug_abbrev  0x00011750      0x17f c:/altera/12.0/nios2eds/bin/gnu/h-i686-mingw32/bin/../lib/gcc/nios2-elf/4.1.2/../../../../nios2-elf/lib\libc.a(lib_a-getc.o)
 .debug_abbrev  0x000118cf       0x7c c:/altera/12.0/nios2eds/bin/gnu/h-i686-mingw32/bin/../lib/gcc/nios2-elf/4.1.2/../../../../nios2-elf/lib\libc.a(lib_a-memcmp.o)
 .debug_abbrev  0x0001194b      0x189 c:/altera/12.0/nios2eds/bin/gnu/h-i686-mingw32/bin/../lib/gcc/nios2-elf/4.1.2/../../../../nios2-elf/lib\libc.a(lib_a-rget.o)
 .debug_abbrev  0x00011ad4       0x8f c:/altera/12.0/nios2eds/bin/gnu/h-i686-mingw32/bin/../lib/gcc/nios2-elf/4.1.2/../../../../nios2-elf/lib\libc.a(lib_a-strcpy.o)
 .debug_abbrev  0x00011b63       0x8d c:/altera/12.0/nios2eds/bin/gnu/h-i686-mingw32/bin/../lib/gcc/nios2-elf/4.1.2/../../../../nios2-elf/lib\libc.a(lib_a-strncmp.o)
 .debug_abbrev  0x00011bf0      0x1c7 c:/altera/12.0/nios2eds/bin/gnu/h-i686-mingw32/bin/../lib/gcc/nios2-elf/4.1.2/../../../../nios2-elf/lib\libc.a(lib_a-strtol.o)
 .debug_abbrev  0x00011db7      0x170 c:/altera/12.0/nios2eds/bin/gnu/h-i686-mingw32/bin/../lib/gcc/nios2-elf/4.1.2/../../../../nios2-elf/lib\libc.a(lib_a-vprintf.o)
 .debug_abbrev  0x00011f27      0x1a5 c:/altera/12.0/nios2eds/bin/gnu/h-i686-mingw32/bin/../lib/gcc/nios2-elf/4.1.2/../../../../nios2-elf/lib\libc.a(lib_a-vsprintf.o)
 .debug_abbrev  0x000120cc      0x1ae c:/altera/12.0/nios2eds/bin/gnu/h-i686-mingw32/bin/../lib/gcc/nios2-elf/4.1.2/../../../../nios2-elf/lib\libc.a(lib_a-__atexit.o)
 .debug_abbrev  0x0001227a      0x1de c:/altera/12.0/nios2eds/bin/gnu/h-i686-mingw32/bin/../lib/gcc/nios2-elf/4.1.2/../../../../nios2-elf/lib\libc.a(lib_a-__call_atexit.o)
 .debug_abbrev  0x00012458      0x187 c:/altera/12.0/nios2eds/bin/gnu/h-i686-mingw32/bin/../lib/gcc/nios2-elf/4.1.2/../../../../nios2-elf/lib\libc.a(lib_a-refill.o)
 .debug_abbrev  0x000125df       0xaa ../niosII_simple_socket_server_1_bsp/\libucosii_bsp.a(alt_exit.o)

.debug_line     0x00000000    0x436ff
 *(.debug_line)
 .debug_line    0x00000000       0x72 ../niosII_simple_socket_server_1_bsp//obj/HAL/src/crt0.o
 .debug_line    0x00000072      0x553 obj/SSS_DE2_115.o
 .debug_line    0x000005c5      0x4c1 obj/alt_eeprom/alt_2_wire.o
 .debug_line    0x00000a86      0x4af obj/alt_eeprom/alt_eeprom.o
 .debug_line    0x00000f35      0x734 obj/alt_error_handler.o
 .debug_line    0x00001669      0x9be obj/iniche_init.o
 .debug_line    0x00002027      0x363 obj/led.o
 .debug_line    0x0000238a      0x99a obj/niosII_simple_socket_server.o
 .debug_line    0x00002d24      0x24f c:/altera/12.0/nios2eds/bin/gnu/h-i686-mingw32/bin/../lib/gcc/nios2-elf/4.1.2\libgcc.a(lib2-divmod.o)
 .debug_line    0x00002f73       0x7e c:/altera/12.0/nios2eds/bin/gnu/h-i686-mingw32/bin/../lib/gcc/nios2-elf/4.1.2/../../../../nios2-elf/lib\libc.a(lib_a-ctype_.o)
 .debug_line    0x00002ff1      0x27e c:/altera/12.0/nios2eds/bin/gnu/h-i686-mingw32/bin/../lib/gcc/nios2-elf/4.1.2/../../../../nios2-elf/lib\libc.a(lib_a-fprintf.o)
 .debug_line    0x0000326f      0x2d3 c:/altera/12.0/nios2eds/bin/gnu/h-i686-mingw32/bin/../lib/gcc/nios2-elf/4.1.2/../../../../nios2-elf/lib\libc.a(lib_a-fwrite.o)
 .debug_line    0x00003542      0x224 c:/altera/12.0/nios2eds/bin/gnu/h-i686-mingw32/bin/../lib/gcc/nios2-elf/4.1.2/../../../../nios2-elf/lib\libc.a(lib_a-impure.o)
 .debug_line    0x00003766      0x245 c:/altera/12.0/nios2eds/bin/gnu/h-i686-mingw32/bin/../lib/gcc/nios2-elf/4.1.2/../../../../nios2-elf/lib\libc.a(lib_a-malloc.o)
 .debug_line    0x000039ab      0x804 c:/altera/12.0/nios2eds/bin/gnu/h-i686-mingw32/bin/../lib/gcc/nios2-elf/4.1.2/../../../../nios2-elf/lib\libc.a(lib_a-mallocr.o)
 .debug_line    0x000041af      0x1a9 c:/altera/12.0/nios2eds/bin/gnu/h-i686-mingw32/bin/../lib/gcc/nios2-elf/4.1.2/../../../../nios2-elf/lib\libc.a(lib_a-memcpy.o)
 .debug_line    0x00004358      0x301 c:/altera/12.0/nios2eds/bin/gnu/h-i686-mingw32/bin/../lib/gcc/nios2-elf/4.1.2/../../../../nios2-elf/lib\libc.a(lib_a-memmove.o)
 .debug_line    0x00004659      0x2f8 c:/altera/12.0/nios2eds/bin/gnu/h-i686-mingw32/bin/../lib/gcc/nios2-elf/4.1.2/../../../../nios2-elf/lib\libc.a(lib_a-memset.o)
 .debug_line    0x00004951      0x29e c:/altera/12.0/nios2eds/bin/gnu/h-i686-mingw32/bin/../lib/gcc/nios2-elf/4.1.2/../../../../nios2-elf/lib\libc.a(lib_a-perror.o)
 .debug_line    0x00004bef      0x295 c:/altera/12.0/nios2eds/bin/gnu/h-i686-mingw32/bin/../lib/gcc/nios2-elf/4.1.2/../../../../nios2-elf/lib\libc.a(lib_a-printf.o)
 .debug_line    0x00004e84      0x25e c:/altera/12.0/nios2eds/bin/gnu/h-i686-mingw32/bin/../lib/gcc/nios2-elf/4.1.2/../../../../nios2-elf/lib\libc.a(lib_a-putchar.o)
 .debug_line    0x000050e2      0x2f1 c:/altera/12.0/nios2eds/bin/gnu/h-i686-mingw32/bin/../lib/gcc/nios2-elf/4.1.2/../../../../nios2-elf/lib\libc.a(lib_a-puts.o)
 .debug_line    0x000053d3      0x290 c:/altera/12.0/nios2eds/bin/gnu/h-i686-mingw32/bin/../lib/gcc/nios2-elf/4.1.2/../../../../nios2-elf/lib\libc.a(lib_a-sbrkr.o)
 .debug_line    0x00005663      0x31c c:/altera/12.0/nios2eds/bin/gnu/h-i686-mingw32/bin/../lib/gcc/nios2-elf/4.1.2/../../../../nios2-elf/lib\libc.a(lib_a-sprintf.o)
 .debug_line    0x0000597f      0x2be c:/altera/12.0/nios2eds/bin/gnu/h-i686-mingw32/bin/../lib/gcc/nios2-elf/4.1.2/../../../../nios2-elf/lib\libc.a(lib_a-strchr.o)
 .debug_line    0x00005c3d      0x4db c:/altera/12.0/nios2eds/bin/gnu/h-i686-mingw32/bin/../lib/gcc/nios2-elf/4.1.2/../../../../nios2-elf/lib\libc.a(lib_a-strerror.o)
 .debug_line    0x00006118      0x264 c:/altera/12.0/nios2eds/bin/gnu/h-i686-mingw32/bin/../lib/gcc/nios2-elf/4.1.2/../../../../nios2-elf/lib\libc.a(lib_a-strlen.o)
 .debug_line    0x0000637c       0x91 c:/altera/12.0/nios2eds/bin/gnu/h-i686-mingw32/bin/../lib/gcc/nios2-elf/4.1.2/../../../../nios2-elf/lib\libc.a(lib_a-u_strerr.o)
 .debug_line    0x0000640d     0x1106 c:/altera/12.0/nios2eds/bin/gnu/h-i686-mingw32/bin/../lib/gcc/nios2-elf/4.1.2/../../../../nios2-elf/lib\libc.a(lib_a-vfprintf.o)
 .debug_line    0x00007513      0x2ea c:/altera/12.0/nios2eds/bin/gnu/h-i686-mingw32/bin/../lib/gcc/nios2-elf/4.1.2/../../../../nios2-elf/lib\libc.a(lib_a-wsetup.o)
 .debug_line    0x000077fd     0x12c0 c:/altera/12.0/nios2eds/bin/gnu/h-i686-mingw32/bin/../lib/gcc/nios2-elf/4.1.2/../../../../nios2-elf/lib\libc.a(lib_a-dtoa.o)
 .debug_line    0x00008abd      0x407 c:/altera/12.0/nios2eds/bin/gnu/h-i686-mingw32/bin/../lib/gcc/nios2-elf/4.1.2/../../../../nios2-elf/lib\libc.a(lib_a-fflush.o)
 .debug_line    0x00008ec4      0x5fb c:/altera/12.0/nios2eds/bin/gnu/h-i686-mingw32/bin/../lib/gcc/nios2-elf/4.1.2/../../../../nios2-elf/lib\libc.a(lib_a-findfp.o)
 .debug_line    0x000094bf      0x27f c:/altera/12.0/nios2eds/bin/gnu/h-i686-mingw32/bin/../lib/gcc/nios2-elf/4.1.2/../../../../nios2-elf/lib\libc.a(lib_a-fputc.o)
 .debug_line    0x0000973e      0x2c2 c:/altera/12.0/nios2eds/bin/gnu/h-i686-mingw32/bin/../lib/gcc/nios2-elf/4.1.2/../../../../nios2-elf/lib\libc.a(lib_a-fputs.o)
 .debug_line    0x00009a00      0x5e5 c:/altera/12.0/nios2eds/bin/gnu/h-i686-mingw32/bin/../lib/gcc/nios2-elf/4.1.2/../../../../nios2-elf/lib\libc.a(lib_a-freer.o)
 .debug_line    0x00009fe5      0x63b c:/altera/12.0/nios2eds/bin/gnu/h-i686-mingw32/bin/../lib/gcc/nios2-elf/4.1.2/../../../../nios2-elf/lib\libc.a(lib_a-fvwrite.o)
 .debug_line    0x0000a620      0x344 c:/altera/12.0/nios2eds/bin/gnu/h-i686-mingw32/bin/../lib/gcc/nios2-elf/4.1.2/../../../../nios2-elf/lib\libc.a(lib_a-fwalk.o)
 .debug_line    0x0000a964      0x1d9 c:/altera/12.0/nios2eds/bin/gnu/h-i686-mingw32/bin/../lib/gcc/nios2-elf/4.1.2/../../../../nios2-elf/lib\libc.a(lib_a-int_errno.o)
 .debug_line    0x0000ab3d      0x2c2 c:/altera/12.0/nios2eds/bin/gnu/h-i686-mingw32/bin/../lib/gcc/nios2-elf/4.1.2/../../../../nios2-elf/lib\libc.a(lib_a-locale.o)
 .debug_line    0x0000adff      0x3bd c:/altera/12.0/nios2eds/bin/gnu/h-i686-mingw32/bin/../lib/gcc/nios2-elf/4.1.2/../../../../nios2-elf/lib\libc.a(lib_a-makebuf.o)
 .debug_line    0x0000b1bc      0x2fa c:/altera/12.0/nios2eds/bin/gnu/h-i686-mingw32/bin/../lib/gcc/nios2-elf/4.1.2/../../../../nios2-elf/lib\libc.a(lib_a-memchr.o)
 .debug_line    0x0000b4b6     0x123d c:/altera/12.0/nios2eds/bin/gnu/h-i686-mingw32/bin/../lib/gcc/nios2-elf/4.1.2/../../../../nios2-elf/lib\libc.a(lib_a-mprec.o)
 .debug_line    0x0000c6f3      0x2be c:/altera/12.0/nios2eds/bin/gnu/h-i686-mingw32/bin/../lib/gcc/nios2-elf/4.1.2/../../../../nios2-elf/lib\libc.a(lib_a-putc.o)
 .debug_line    0x0000c9b1      0x584 c:/altera/12.0/nios2eds/bin/gnu/h-i686-mingw32/bin/../lib/gcc/nios2-elf/4.1.2/../../../../nios2-elf/lib\libc.a(lib_a-reallocr.o)
 .debug_line    0x0000cf35      0x21c c:/altera/12.0/nios2eds/bin/gnu/h-i686-mingw32/bin/../lib/gcc/nios2-elf/4.1.2/../../../../nios2-elf/lib\libc.a(lib_a-s_isinfd.o)
 .debug_line    0x0000d151      0x214 c:/altera/12.0/nios2eds/bin/gnu/h-i686-mingw32/bin/../lib/gcc/nios2-elf/4.1.2/../../../../nios2-elf/lib\libc.a(lib_a-s_isnand.o)
 .debug_line    0x0000d365      0x386 c:/altera/12.0/nios2eds/bin/gnu/h-i686-mingw32/bin/../lib/gcc/nios2-elf/4.1.2/../../../../nios2-elf/lib\libc.a(lib_a-stdio.o)
 .debug_line    0x0000d6eb      0x2cc c:/altera/12.0/nios2eds/bin/gnu/h-i686-mingw32/bin/../lib/gcc/nios2-elf/4.1.2/../../../../nios2-elf/lib\libc.a(lib_a-strcmp.o)
 .debug_line    0x0000d9b7      0x34a c:/altera/12.0/nios2eds/bin/gnu/h-i686-mingw32/bin/../lib/gcc/nios2-elf/4.1.2/../../../../nios2-elf/lib\libc.a(lib_a-wbuf.o)
 .debug_line    0x0000dd01      0x291 c:/altera/12.0/nios2eds/bin/gnu/h-i686-mingw32/bin/../lib/gcc/nios2-elf/4.1.2/../../../../nios2-elf/lib\libc.a(lib_a-writer.o)
 .debug_line    0x0000df92      0x256 c:/altera/12.0/nios2eds/bin/gnu/h-i686-mingw32/bin/../lib/gcc/nios2-elf/4.1.2/../../../../nios2-elf/lib\libc.a(lib_a-callocr.o)
 .debug_line    0x0000e1e8      0x291 c:/altera/12.0/nios2eds/bin/gnu/h-i686-mingw32/bin/../lib/gcc/nios2-elf/4.1.2/../../../../nios2-elf/lib\libc.a(lib_a-closer.o)
 .debug_line    0x0000e479      0x2e2 c:/altera/12.0/nios2eds/bin/gnu/h-i686-mingw32/bin/../lib/gcc/nios2-elf/4.1.2/../../../../nios2-elf/lib\libc.a(lib_a-fclose.o)
 .debug_line    0x0000e75b      0x25e c:/altera/12.0/nios2eds/bin/gnu/h-i686-mingw32/bin/../lib/gcc/nios2-elf/4.1.2/../../../../nios2-elf/lib\libc.a(lib_a-fstatr.o)
 .debug_line    0x0000e9b9      0x292 c:/altera/12.0/nios2eds/bin/gnu/h-i686-mingw32/bin/../lib/gcc/nios2-elf/4.1.2/../../../../nios2-elf/lib\libc.a(lib_a-isattyr.o)
 .debug_line    0x0000ec4b      0x291 c:/altera/12.0/nios2eds/bin/gnu/h-i686-mingw32/bin/../lib/gcc/nios2-elf/4.1.2/../../../../nios2-elf/lib\libc.a(lib_a-lseekr.o)
 .debug_line    0x0000eedc      0x290 c:/altera/12.0/nios2eds/bin/gnu/h-i686-mingw32/bin/../lib/gcc/nios2-elf/4.1.2/../../../../nios2-elf/lib\libc.a(lib_a-readr.o)
 .debug_line    0x0000f16c      0x2f2 c:/altera/12.0/nios2eds/bin/gnu/h-i686-mingw32/bin/../lib/gcc/nios2-elf/4.1.2\libgcc.a(_udivdi3.o)
 .debug_line    0x0000f45e      0x37d c:/altera/12.0/nios2eds/bin/gnu/h-i686-mingw32/bin/../lib/gcc/nios2-elf/4.1.2\libgcc.a(_umoddi3.o)
 .debug_line    0x0000f7db      0x430 c:/altera/12.0/nios2eds/bin/gnu/h-i686-mingw32/bin/../lib/gcc/nios2-elf/4.1.2\libgcc.a(_addsub_df.o)
 .debug_line    0x0000fc0b      0x3e5 c:/altera/12.0/nios2eds/bin/gnu/h-i686-mingw32/bin/../lib/gcc/nios2-elf/4.1.2\libgcc.a(_mul_df.o)
 .debug_line    0x0000fff0      0x301 c:/altera/12.0/nios2eds/bin/gnu/h-i686-mingw32/bin/../lib/gcc/nios2-elf/4.1.2\libgcc.a(_div_df.o)
 .debug_line    0x000102f1      0x129 c:/altera/12.0/nios2eds/bin/gnu/h-i686-mingw32/bin/../lib/gcc/nios2-elf/4.1.2\libgcc.a(_eq_df.o)
 .debug_line    0x0001041a      0x129 c:/altera/12.0/nios2eds/bin/gnu/h-i686-mingw32/bin/../lib/gcc/nios2-elf/4.1.2\libgcc.a(_ne_df.o)
 .debug_line    0x00010543      0x129 c:/altera/12.0/nios2eds/bin/gnu/h-i686-mingw32/bin/../lib/gcc/nios2-elf/4.1.2\libgcc.a(_gt_df.o)
 .debug_line    0x0001066c      0x129 c:/altera/12.0/nios2eds/bin/gnu/h-i686-mingw32/bin/../lib/gcc/nios2-elf/4.1.2\libgcc.a(_ge_df.o)
 .debug_line    0x00010795      0x129 c:/altera/12.0/nios2eds/bin/gnu/h-i686-mingw32/bin/../lib/gcc/nios2-elf/4.1.2\libgcc.a(_lt_df.o)
 .debug_line    0x000108be      0x175 c:/altera/12.0/nios2eds/bin/gnu/h-i686-mingw32/bin/../lib/gcc/nios2-elf/4.1.2\libgcc.a(_si_to_df.o)
 .debug_line    0x00010a33      0x149 c:/altera/12.0/nios2eds/bin/gnu/h-i686-mingw32/bin/../lib/gcc/nios2-elf/4.1.2\libgcc.a(_df_to_si.o)
 .debug_line    0x00010b7c       0x94 c:/altera/12.0/nios2eds/bin/gnu/h-i686-mingw32/bin/../lib/gcc/nios2-elf/4.1.2\libgcc.a(_thenan_df.o)
 .debug_line    0x00010c10      0x189 c:/altera/12.0/nios2eds/bin/gnu/h-i686-mingw32/bin/../lib/gcc/nios2-elf/4.1.2\libgcc.a(_usi_to_df.o)
 .debug_line    0x00010d99      0x11f c:/altera/12.0/nios2eds/bin/gnu/h-i686-mingw32/bin/../lib/gcc/nios2-elf/4.1.2\libgcc.a(_muldi3.o)
 .debug_line    0x00010eb8       0xaa c:/altera/12.0/nios2eds/bin/gnu/h-i686-mingw32/bin/../lib/gcc/nios2-elf/4.1.2\libgcc.a(_clz.o)
 .debug_line    0x00010f62      0x105 c:/altera/12.0/nios2eds/bin/gnu/h-i686-mingw32/bin/../lib/gcc/nios2-elf/4.1.2\libgcc.a(_clzsi2.o)
 .debug_line    0x00011067      0x222 c:/altera/12.0/nios2eds/bin/gnu/h-i686-mingw32/bin/../lib/gcc/nios2-elf/4.1.2\libgcc.a(_pack_df.o)
 .debug_line    0x00011289      0x1e4 c:/altera/12.0/nios2eds/bin/gnu/h-i686-mingw32/bin/../lib/gcc/nios2-elf/4.1.2\libgcc.a(_unpack_df.o)
 .debug_line    0x0001146d      0x187 c:/altera/12.0/nios2eds/bin/gnu/h-i686-mingw32/bin/../lib/gcc/nios2-elf/4.1.2\libgcc.a(_fpcmp_parts_df.o)
 .debug_line    0x000115f4      0x2c2 ../niosII_simple_socket_server_1_bsp/\libucosii_bsp.a(alt_flash_dev.o)
 .debug_line    0x000118b6      0x2fb ../niosII_simple_socket_server_1_bsp/\libucosii_bsp.a(alt_fstat.o)
 .debug_line    0x00011bb1      0x2fc ../niosII_simple_socket_server_1_bsp/\libucosii_bsp.a(alt_isatty.o)
 .debug_line    0x00011ead      0x211 ../niosII_simple_socket_server_1_bsp/\libucosii_bsp.a(alt_load.o)
 .debug_line    0x000120be      0x2fb ../niosII_simple_socket_server_1_bsp/\libucosii_bsp.a(alt_lseek.o)
 .debug_line    0x000123b9      0x343 ../niosII_simple_socket_server_1_bsp/\libucosii_bsp.a(alt_main.o)
 .debug_line    0x000126fc      0x25b ../niosII_simple_socket_server_1_bsp/\libucosii_bsp.a(alt_sbrk.o)
 .debug_line    0x00012957      0x2a7 ../niosII_simple_socket_server_1_bsp/\libucosii_bsp.a(alt_usleep.o)
 .debug_line    0x00012bfe      0x2b9 ../niosII_simple_socket_server_1_bsp/\libucosii_bsp.a(alt_env_lock.o)
 .debug_line    0x00012eb7      0x375 ../niosII_simple_socket_server_1_bsp/\libucosii_bsp.a(alt_malloc_lock.o)
 .debug_line    0x0001322c     0x165d ../niosII_simple_socket_server_1_bsp/\libucosii_bsp.a(os_core.o)
 .debug_line    0x00014889      0x382 ../niosII_simple_socket_server_1_bsp/\libucosii_bsp.a(os_dbg.o)
 .debug_line    0x00014c0b     0x11e1 ../niosII_simple_socket_server_1_bsp/\libucosii_bsp.a(os_flag.o)
 .debug_line    0x00015dec      0xab0 ../niosII_simple_socket_server_1_bsp/\libucosii_bsp.a(os_mbox.o)
 .debug_line    0x0001689c      0x784 ../niosII_simple_socket_server_1_bsp/\libucosii_bsp.a(os_mem.o)
 .debug_line    0x00017020      0xe65 ../niosII_simple_socket_server_1_bsp/\libucosii_bsp.a(os_q.o)
 .debug_line    0x00017e85      0xa1d ../niosII_simple_socket_server_1_bsp/\libucosii_bsp.a(os_sem.o)
 .debug_line    0x000188a2     0x1126 ../niosII_simple_socket_server_1_bsp/\libucosii_bsp.a(os_task.o)
 .debug_line    0x000199c8      0x529 ../niosII_simple_socket_server_1_bsp/\libucosii_bsp.a(os_time.o)
 .debug_line    0x00019ef1      0x5d1 ../niosII_simple_socket_server_1_bsp/\libucosii_bsp.a(alt_sys_init.o)
 .debug_line    0x0001a4c2      0x56d ../niosII_simple_socket_server_1_bsp/\libucosii_bsp.a(altera_avalon_cfi_flash.o)
 .debug_line    0x0001aa2f      0x94b ../niosII_simple_socket_server_1_bsp/\libucosii_bsp.a(altera_avalon_cfi_flash_table.o)
 .debug_line    0x0001b37a      0x313 ../niosII_simple_socket_server_1_bsp/\libucosii_bsp.a(altera_avalon_jtag_uart_fd.o)
 .debug_line    0x0001b68d      0x592 ../niosII_simple_socket_server_1_bsp/\libucosii_bsp.a(altera_avalon_jtag_uart_init.o)
 .debug_line    0x0001bc1f      0x350 ../niosII_simple_socket_server_1_bsp/\libucosii_bsp.a(altera_avalon_jtag_uart_ioctl.o)
 .debug_line    0x0001bf6f      0x48e ../niosII_simple_socket_server_1_bsp/\libucosii_bsp.a(altera_avalon_jtag_uart_read.o)
 .debug_line    0x0001c3fd      0x49c ../niosII_simple_socket_server_1_bsp/\libucosii_bsp.a(altera_avalon_jtag_uart_write.o)
 .debug_line    0x0001c899      0x93a ../niosII_simple_socket_server_1_bsp/\libucosii_bsp.a(altera_avalon_lcd_16207.o)
 .debug_line    0x0001d1d3      0x2b3 ../niosII_simple_socket_server_1_bsp/\libucosii_bsp.a(altera_avalon_lcd_16207_fd.o)
 .debug_line    0x0001d486      0x668 ../niosII_simple_socket_server_1_bsp/\libucosii_bsp.a(altera_avalon_sgdma.o)
 .debug_line    0x0001daee      0x2ad ../niosII_simple_socket_server_1_bsp/\libucosii_bsp.a(altera_avalon_timer_sc.o)
 .debug_line    0x0001dd9b     0x2091 ../niosII_simple_socket_server_1_bsp/\libucosii_bsp.a(altera_avalon_tse.o)
 .debug_line    0x0001fe2c      0x2f1 ../niosII_simple_socket_server_1_bsp/\libucosii_bsp.a(altera_avalon_uart_fd.o)
 .debug_line    0x0002011d      0x561 ../niosII_simple_socket_server_1_bsp/\libucosii_bsp.a(altera_avalon_uart_init.o)
 .debug_line    0x0002067e      0x4ad ../niosII_simple_socket_server_1_bsp/\libucosii_bsp.a(altera_avalon_uart_read.o)
 .debug_line    0x00020b2b      0x48f ../niosII_simple_socket_server_1_bsp/\libucosii_bsp.a(altera_avalon_uart_write.o)
 .debug_line    0x00020fba      0xc29 ../niosII_simple_socket_server_1_bsp/\libucosii_bsp.a(ins_tse_mac.o)
 .debug_line    0x00021be3      0x341 ../niosII_simple_socket_server_1_bsp/\libucosii_bsp.a(alt_iniche_close.o)
 .debug_line    0x00021f24      0x3d4 ../niosII_simple_socket_server_1_bsp/\libucosii_bsp.a(alt_iniche_dev.o)
 .debug_line    0x000222f8      0x340 ../niosII_simple_socket_server_1_bsp/\libucosii_bsp.a(alt_iniche_read.o)
 .debug_line    0x00022638      0x351 ../niosII_simple_socket_server_1_bsp/\libucosii_bsp.a(alt_iniche_write.o)
 .debug_line    0x00022989      0x7a0 ../niosII_simple_socket_server_1_bsp/\libucosii_bsp.a(ipnet.o)
 .debug_line    0x00023129      0x4e1 ../niosII_simple_socket_server_1_bsp/\libucosii_bsp.a(ipstart.o)
 .debug_line    0x0002360a      0x916 ../niosII_simple_socket_server_1_bsp/\libucosii_bsp.a(igmp_cmn.o)
 .debug_line    0x00023f20      0x6c9 ../niosII_simple_socket_server_1_bsp/\libucosii_bsp.a(bsdsock.o)
 .debug_line    0x000245e9      0x304 ../niosII_simple_socket_server_1_bsp/\libucosii_bsp.a(cksum.o)
 .debug_line    0x000248ed      0x7a3 ../niosII_simple_socket_server_1_bsp/\libucosii_bsp.a(in_utils.o)
 .debug_line    0x00025090      0x431 ../niosII_simple_socket_server_1_bsp/\libucosii_bsp.a(netmain.o)
 .debug_line    0x000254c1      0x5a2 ../niosII_simple_socket_server_1_bsp/\libucosii_bsp.a(tk_crnos.o)
 .debug_line    0x00025a63      0x643 ../niosII_simple_socket_server_1_bsp/\libucosii_bsp.a(pktalloc.o)
 .debug_line    0x000260a6      0x3d5 ../niosII_simple_socket_server_1_bsp/\libucosii_bsp.a(q.o)
 .debug_line    0x0002647b       0xaf ../niosII_simple_socket_server_1_bsp/\libucosii_bsp.a(asm_cksum.o)
 .debug_line    0x0002652a      0x46c ../niosII_simple_socket_server_1_bsp/\libucosii_bsp.a(brdutils.o)
 .debug_line    0x00026996      0x4f9 ../niosII_simple_socket_server_1_bsp/\libucosii_bsp.a(osportco.o)
 .debug_line    0x00026e8f      0x638 ../niosII_simple_socket_server_1_bsp/\libucosii_bsp.a(targnios.o)
 .debug_line    0x000274c7      0xf1d ../niosII_simple_socket_server_1_bsp/\libucosii_bsp.a(nptcp.o)
 .debug_line    0x000283e4      0x842 ../niosII_simple_socket_server_1_bsp/\libucosii_bsp.a(rawsock.o)
 .debug_line    0x00028c26      0xe30 ../niosII_simple_socket_server_1_bsp/\libucosii_bsp.a(sockcall.o)
 .debug_line    0x00029a56     0x12c2 ../niosII_simple_socket_server_1_bsp/\libucosii_bsp.a(socket.o)
 .debug_line    0x0002ad18      0xbe6 ../niosII_simple_socket_server_1_bsp/\libucosii_bsp.a(socket2.o)
 .debug_line    0x0002b8fe      0x747 ../niosII_simple_socket_server_1_bsp/\libucosii_bsp.a(soselect.o)
 .debug_line    0x0002c045     0x1639 ../niosII_simple_socket_server_1_bsp/\libucosii_bsp.a(tcp_in.o)
 .debug_line    0x0002d67e      0xa53 ../niosII_simple_socket_server_1_bsp/\libucosii_bsp.a(tcp_out.o)
 .debug_line    0x0002e0d1      0x7cd ../niosII_simple_socket_server_1_bsp/\libucosii_bsp.a(tcp_subr.o)
 .debug_line    0x0002e89e      0x655 ../niosII_simple_socket_server_1_bsp/\libucosii_bsp.a(tcp_timr.o)
 .debug_line    0x0002eef3      0x89c ../niosII_simple_socket_server_1_bsp/\libucosii_bsp.a(tcp_usr.o)
 .debug_line    0x0002f78f      0x56e ../niosII_simple_socket_server_1_bsp/\libucosii_bsp.a(tcp_zio.o)
 .debug_line    0x0002fcfd      0x339 ../niosII_simple_socket_server_1_bsp/\libucosii_bsp.a(tcpport.o)
 .debug_line    0x00030036      0x953 ../niosII_simple_socket_server_1_bsp/\libucosii_bsp.a(udpsock.o)
 .debug_line    0x00030989      0x2d6 ../niosII_simple_socket_server_1_bsp/\libucosii_bsp.a(alt_alarm_start.o)
 .debug_line    0x00030c5f      0x253 ../niosII_simple_socket_server_1_bsp/\libucosii_bsp.a(alt_busy_sleep.o)
 .debug_line    0x00030eb2      0x2f3 ../niosII_simple_socket_server_1_bsp/\libucosii_bsp.a(alt_close.o)
 .debug_line    0x000311a5      0x1db ../niosII_simple_socket_server_1_bsp/\libucosii_bsp.a(alt_dcache_flush.o)
 .debug_line    0x00031380      0x1c7 ../niosII_simple_socket_server_1_bsp/\libucosii_bsp.a(alt_dcache_flush_all.o)
 .debug_line    0x00031547      0x2b4 ../niosII_simple_socket_server_1_bsp/\libucosii_bsp.a(alt_dev.o)
 .debug_line    0x000317fb      0x254 ../niosII_simple_socket_server_1_bsp/\libucosii_bsp.a(alt_dev_llist_insert.o)
 .debug_line    0x00031a4f       0x83 ../niosII_simple_socket_server_1_bsp/\libucosii_bsp.a(alt_do_ctors.o)
 .debug_line    0x00031ad2       0x83 ../niosII_simple_socket_server_1_bsp/\libucosii_bsp.a(alt_do_dtors.o)
 .debug_line    0x00031b55      0x1a4 ../niosII_simple_socket_server_1_bsp/\libucosii_bsp.a(alt_errno.o)
 .debug_line    0x00031cf9      0x2d4 ../niosII_simple_socket_server_1_bsp/\libucosii_bsp.a(alt_find_dev.o)
 .debug_line    0x00031fcd      0x1b7 ../niosII_simple_socket_server_1_bsp/\libucosii_bsp.a(alt_icache_flush_all.o)
 .debug_line    0x00032184      0x2c2 ../niosII_simple_socket_server_1_bsp/\libucosii_bsp.a(alt_iic.o)
 .debug_line    0x00032446      0x243 ../niosII_simple_socket_server_1_bsp/\libucosii_bsp.a(alt_iic_isr_register.o)
 .debug_line    0x00032689      0x31d ../niosII_simple_socket_server_1_bsp/\libucosii_bsp.a(alt_io_redirect.o)
 .debug_line    0x000329a6       0x6b ../niosII_simple_socket_server_1_bsp/\libucosii_bsp.a(alt_irq_entry.o)
 .debug_line    0x00032a11      0x2be ../niosII_simple_socket_server_1_bsp/\libucosii_bsp.a(alt_irq_handler.o)
 .debug_line    0x00032ccf       0x72 ../niosII_simple_socket_server_1_bsp/\libucosii_bsp.a(alt_irq_vars.o)
 .debug_line    0x00032d41      0x359 ../niosII_simple_socket_server_1_bsp/\libucosii_bsp.a(alt_open.o)
 .debug_line    0x0003309a      0x322 ../niosII_simple_socket_server_1_bsp/\libucosii_bsp.a(alt_read.o)
 .debug_line    0x000333bc      0x273 ../niosII_simple_socket_server_1_bsp/\libucosii_bsp.a(alt_release_fd.o)
 .debug_line    0x0003362f      0x1b3 ../niosII_simple_socket_server_1_bsp/\libucosii_bsp.a(alt_remap_cached.o)
 .debug_line    0x000337e2      0x1bd ../niosII_simple_socket_server_1_bsp/\libucosii_bsp.a(alt_remap_uncached.o)
 .debug_line    0x0003399f      0x310 ../niosII_simple_socket_server_1_bsp/\libucosii_bsp.a(alt_tick.o)
 .debug_line    0x00033caf      0x1c6 ../niosII_simple_socket_server_1_bsp/\libucosii_bsp.a(alt_uncached_malloc.o)
 .debug_line    0x00033e75      0x323 ../niosII_simple_socket_server_1_bsp/\libucosii_bsp.a(alt_write.o)
 .debug_line    0x00034198      0x1c3 ../niosII_simple_socket_server_1_bsp/\libucosii_bsp.a(altera_nios2_irq.o)
 .debug_line    0x0003435b       0x86 ../niosII_simple_socket_server_1_bsp/\libucosii_bsp.a(os_cpu_a.o)
 .debug_line    0x000343e1      0x32a ../niosII_simple_socket_server_1_bsp/\libucosii_bsp.a(os_cpu_c.o)
 .debug_line    0x0003470b      0x43f ../niosII_simple_socket_server_1_bsp/\libucosii_bsp.a(altera_avalon_cfi_flash_amd.o)
 .debug_line    0x00034b4a      0x431 ../niosII_simple_socket_server_1_bsp/\libucosii_bsp.a(altera_avalon_cfi_flash_intel.o)
 .debug_line    0x00034f7b      0x511 ../niosII_simple_socket_server_1_bsp/\libucosii_bsp.a(allports.o)
 .debug_line    0x0003548c      0x475 ../niosII_simple_socket_server_1_bsp/\libucosii_bsp.a(timeouts.o)
 .debug_line    0x00035901      0x36a ../niosII_simple_socket_server_1_bsp/\libucosii_bsp.a(tk_misc.o)
 .debug_line    0x00035c6b      0x389 ../niosII_simple_socket_server_1_bsp/\libucosii_bsp.a(alt_iniche_fcntl.o)
 .debug_line    0x00035ff4      0xc9c ../niosII_simple_socket_server_1_bsp/\libucosii_bsp.a(et_arp.o)
 .debug_line    0x00036c90      0x473 ../niosII_simple_socket_server_1_bsp/\libucosii_bsp.a(iface.o)
 .debug_line    0x00037103      0xf8f ../niosII_simple_socket_server_1_bsp/\libucosii_bsp.a(ip.o)
 .debug_line    0x00038092      0xf76 ../niosII_simple_socket_server_1_bsp/\libucosii_bsp.a(ip_reasm.o)
 .debug_line    0x00039008      0x780 ../niosII_simple_socket_server_1_bsp/\libucosii_bsp.a(ipdemux.o)
 .debug_line    0x00039788      0x462 ../niosII_simple_socket_server_1_bsp/\libucosii_bsp.a(ipmc.o)
 .debug_line    0x00039bea      0x332 ../niosII_simple_socket_server_1_bsp/\libucosii_bsp.a(ipport.o)
 .debug_line    0x00039f1c      0x5b3 ../niosII_simple_socket_server_1_bsp/\libucosii_bsp.a(ipraw.o)
 .debug_line    0x0003a4cf      0x5b5 ../niosII_simple_socket_server_1_bsp/\libucosii_bsp.a(iproute.o)
 .debug_line    0x0003aa84      0x7f0 ../niosII_simple_socket_server_1_bsp/\libucosii_bsp.a(udp.o)
 .debug_line    0x0003b274      0x434 ../niosII_simple_socket_server_1_bsp/\libucosii_bsp.a(igmp.o)
 .debug_line    0x0003b6a8      0x627 ../niosII_simple_socket_server_1_bsp/\libucosii_bsp.a(igmp2.o)
 .debug_line    0x0003bccf      0x70b ../niosII_simple_socket_server_1_bsp/\libucosii_bsp.a(ipopt.o)
 .debug_line    0x0003c3da      0x5f5 ../niosII_simple_socket_server_1_bsp/\libucosii_bsp.a(u_mctest.o)
 .debug_line    0x0003c9cf      0x443 ../niosII_simple_socket_server_1_bsp/\libucosii_bsp.a(memdev.o)
 .debug_line    0x0003ce12      0x647 ../niosII_simple_socket_server_1_bsp/\libucosii_bsp.a(parseip.o)
 .debug_line    0x0003d459      0x3b3 ../niosII_simple_socket_server_1_bsp/\libucosii_bsp.a(tcpcksum.o)
 .debug_line    0x0003d80c      0x468 ../niosII_simple_socket_server_1_bsp/\libucosii_bsp.a(udp_open.o)
 .debug_line    0x0003dc74      0x767 ../niosII_simple_socket_server_1_bsp/\libucosii_bsp.a(in_pcb.o)
 .debug_line    0x0003e3db      0xff1 ../niosII_simple_socket_server_1_bsp/\libucosii_bsp.a(vfsfiles.o)
 .debug_line    0x0003f3cc      0x2be ../niosII_simple_socket_server_1_bsp/\libucosii_bsp.a(vfsport.o)
 .debug_line    0x0003f68a       0xab ../niosII_simple_socket_server_1_bsp/\libucosii_bsp.a(alt_exception_entry.o)
 .debug_line    0x0003f735      0x352 ../niosII_simple_socket_server_1_bsp/\libucosii_bsp.a(alt_fcntl.o)
 .debug_line    0x0003fa87      0x2e5 ../niosII_simple_socket_server_1_bsp/\libucosii_bsp.a(alt_find_file.o)
 .debug_line    0x0003fd6c      0x315 ../niosII_simple_socket_server_1_bsp/\libucosii_bsp.a(alt_get_fd.o)
 .debug_line    0x00040081      0x1f3 ../niosII_simple_socket_server_1_bsp/\libucosii_bsp.a(alt_icache_flush.o)
 .debug_line    0x00040274      0x952 ../niosII_simple_socket_server_1_bsp/\libucosii_bsp.a(icmp.o)
 .debug_line    0x00040bc6      0x1fa c:/altera/12.0/nios2eds/bin/gnu/h-i686-mingw32/bin/../lib/gcc/nios2-elf/4.1.2/../../../../nios2-elf/lib\libc.a(lib_a-atexit.o)
 .debug_line    0x00040dc0      0x204 c:/altera/12.0/nios2eds/bin/gnu/h-i686-mingw32/bin/../lib/gcc/nios2-elf/4.1.2/../../../../nios2-elf/lib\libc.a(lib_a-atoi.o)
 .debug_line    0x00040fc4      0x206 c:/altera/12.0/nios2eds/bin/gnu/h-i686-mingw32/bin/../lib/gcc/nios2-elf/4.1.2/../../../../nios2-elf/lib\libc.a(lib_a-calloc.o)
 .debug_line    0x000411ca      0x232 c:/altera/12.0/nios2eds/bin/gnu/h-i686-mingw32/bin/../lib/gcc/nios2-elf/4.1.2/../../../../nios2-elf/lib\libc.a(lib_a-exit.o)
 .debug_line    0x000413fc      0x29e c:/altera/12.0/nios2eds/bin/gnu/h-i686-mingw32/bin/../lib/gcc/nios2-elf/4.1.2/../../../../nios2-elf/lib\libc.a(lib_a-getc.o)
 .debug_line    0x0004169a      0x296 c:/altera/12.0/nios2eds/bin/gnu/h-i686-mingw32/bin/../lib/gcc/nios2-elf/4.1.2/../../../../nios2-elf/lib\libc.a(lib_a-memcmp.o)
 .debug_line    0x00041930      0x287 c:/altera/12.0/nios2eds/bin/gnu/h-i686-mingw32/bin/../lib/gcc/nios2-elf/4.1.2/../../../../nios2-elf/lib\libc.a(lib_a-rget.o)
 .debug_line    0x00041bb7      0x27e c:/altera/12.0/nios2eds/bin/gnu/h-i686-mingw32/bin/../lib/gcc/nios2-elf/4.1.2/../../../../nios2-elf/lib\libc.a(lib_a-strcpy.o)
 .debug_line    0x00041e35      0x2f5 c:/altera/12.0/nios2eds/bin/gnu/h-i686-mingw32/bin/../lib/gcc/nios2-elf/4.1.2/../../../../nios2-elf/lib\libc.a(lib_a-strncmp.o)
 .debug_line    0x0004212a      0x3fd c:/altera/12.0/nios2eds/bin/gnu/h-i686-mingw32/bin/../lib/gcc/nios2-elf/4.1.2/../../../../nios2-elf/lib\libc.a(lib_a-strtol.o)
 .debug_line    0x00042527      0x269 c:/altera/12.0/nios2eds/bin/gnu/h-i686-mingw32/bin/../lib/gcc/nios2-elf/4.1.2/../../../../nios2-elf/lib\libc.a(lib_a-vprintf.o)
 .debug_line    0x00042790      0x2d3 c:/altera/12.0/nios2eds/bin/gnu/h-i686-mingw32/bin/../lib/gcc/nios2-elf/4.1.2/../../../../nios2-elf/lib\libc.a(lib_a-vsprintf.o)
 .debug_line    0x00042a63      0x30d c:/altera/12.0/nios2eds/bin/gnu/h-i686-mingw32/bin/../lib/gcc/nios2-elf/4.1.2/../../../../nios2-elf/lib\libc.a(lib_a-__atexit.o)
 .debug_line    0x00042d70      0x361 c:/altera/12.0/nios2eds/bin/gnu/h-i686-mingw32/bin/../lib/gcc/nios2-elf/4.1.2/../../../../nios2-elf/lib\libc.a(lib_a-__call_atexit.o)
 .debug_line    0x000430d1      0x3be c:/altera/12.0/nios2eds/bin/gnu/h-i686-mingw32/bin/../lib/gcc/nios2-elf/4.1.2/../../../../nios2-elf/lib\libc.a(lib_a-refill.o)
 .debug_line    0x0004348f      0x270 ../niosII_simple_socket_server_1_bsp/\libucosii_bsp.a(alt_exit.o)

.debug_frame    0x00000000     0x6b9c
 *(.debug_frame)
 .debug_frame   0x00000000       0x48 obj/SSS_DE2_115.o
 .debug_frame   0x00000048      0x160 obj/alt_eeprom/alt_2_wire.o
 .debug_frame   0x000001a8       0x9c obj/alt_eeprom/alt_eeprom.o
 .debug_frame   0x00000244       0x64 obj/alt_error_handler.o
 .debug_frame   0x000002a8      0x130 obj/iniche_init.o
 .debug_frame   0x000003d8       0x48 obj/led.o
 .debug_frame   0x00000420      0x11c obj/niosII_simple_socket_server.o
 .debug_frame   0x0000053c       0x70 c:/altera/12.0/nios2eds/bin/gnu/h-i686-mingw32/bin/../lib/gcc/nios2-elf/4.1.2\libgcc.a(lib2-divmod.o)
 .debug_frame   0x000005ac       0x40 c:/altera/12.0/nios2eds/bin/gnu/h-i686-mingw32/bin/../lib/gcc/nios2-elf/4.1.2/../../../../nios2-elf/lib\libc.a(lib_a-fprintf.o)
 .debug_frame   0x000005ec       0x48 c:/altera/12.0/nios2eds/bin/gnu/h-i686-mingw32/bin/../lib/gcc/nios2-elf/4.1.2/../../../../nios2-elf/lib\libc.a(lib_a-fwrite.o)
 .debug_frame   0x00000634       0x30 c:/altera/12.0/nios2eds/bin/gnu/h-i686-mingw32/bin/../lib/gcc/nios2-elf/4.1.2/../../../../nios2-elf/lib\libc.a(lib_a-malloc.o)
 .debug_frame   0x00000664       0x38 c:/altera/12.0/nios2eds/bin/gnu/h-i686-mingw32/bin/../lib/gcc/nios2-elf/4.1.2/../../../../nios2-elf/lib\libc.a(lib_a-mallocr.o)
 .debug_frame   0x0000069c       0x20 c:/altera/12.0/nios2eds/bin/gnu/h-i686-mingw32/bin/../lib/gcc/nios2-elf/4.1.2/../../../../nios2-elf/lib\libc.a(lib_a-memcpy.o)
 .debug_frame   0x000006bc       0x20 c:/altera/12.0/nios2eds/bin/gnu/h-i686-mingw32/bin/../lib/gcc/nios2-elf/4.1.2/../../../../nios2-elf/lib\libc.a(lib_a-memmove.o)
 .debug_frame   0x000006dc       0x20 c:/altera/12.0/nios2eds/bin/gnu/h-i686-mingw32/bin/../lib/gcc/nios2-elf/4.1.2/../../../../nios2-elf/lib\libc.a(lib_a-memset.o)
 .debug_frame   0x000006fc       0x38 c:/altera/12.0/nios2eds/bin/gnu/h-i686-mingw32/bin/../lib/gcc/nios2-elf/4.1.2/../../../../nios2-elf/lib\libc.a(lib_a-perror.o)
 .debug_frame   0x00000734       0x40 c:/altera/12.0/nios2eds/bin/gnu/h-i686-mingw32/bin/../lib/gcc/nios2-elf/4.1.2/../../../../nios2-elf/lib\libc.a(lib_a-printf.o)
 .debug_frame   0x00000774       0x30 c:/altera/12.0/nios2eds/bin/gnu/h-i686-mingw32/bin/../lib/gcc/nios2-elf/4.1.2/../../../../nios2-elf/lib\libc.a(lib_a-putchar.o)
 .debug_frame   0x000007a4       0x3c c:/altera/12.0/nios2eds/bin/gnu/h-i686-mingw32/bin/../lib/gcc/nios2-elf/4.1.2/../../../../nios2-elf/lib\libc.a(lib_a-puts.o)
 .debug_frame   0x000007e0       0x2c c:/altera/12.0/nios2eds/bin/gnu/h-i686-mingw32/bin/../lib/gcc/nios2-elf/4.1.2/../../../../nios2-elf/lib\libc.a(lib_a-sbrkr.o)
 .debug_frame   0x0000080c       0x40 c:/altera/12.0/nios2eds/bin/gnu/h-i686-mingw32/bin/../lib/gcc/nios2-elf/4.1.2/../../../../nios2-elf/lib\libc.a(lib_a-sprintf.o)
 .debug_frame   0x0000084c       0x20 c:/altera/12.0/nios2eds/bin/gnu/h-i686-mingw32/bin/../lib/gcc/nios2-elf/4.1.2/../../../../nios2-elf/lib\libc.a(lib_a-strchr.o)
 .debug_frame   0x0000086c       0x28 c:/altera/12.0/nios2eds/bin/gnu/h-i686-mingw32/bin/../lib/gcc/nios2-elf/4.1.2/../../../../nios2-elf/lib\libc.a(lib_a-strerror.o)
 .debug_frame   0x00000894       0x20 c:/altera/12.0/nios2eds/bin/gnu/h-i686-mingw32/bin/../lib/gcc/nios2-elf/4.1.2/../../../../nios2-elf/lib\libc.a(lib_a-strlen.o)
 .debug_frame   0x000008b4       0x20 c:/altera/12.0/nios2eds/bin/gnu/h-i686-mingw32/bin/../lib/gcc/nios2-elf/4.1.2/../../../../nios2-elf/lib\libc.a(lib_a-u_strerr.o)
 .debug_frame   0x000008d4       0x64 c:/altera/12.0/nios2eds/bin/gnu/h-i686-mingw32/bin/../lib/gcc/nios2-elf/4.1.2/../../../../nios2-elf/lib\libc.a(lib_a-vfprintf.o)
 .debug_frame   0x00000938       0x2c c:/altera/12.0/nios2eds/bin/gnu/h-i686-mingw32/bin/../lib/gcc/nios2-elf/4.1.2/../../../../nios2-elf/lib\libc.a(lib_a-wsetup.o)
 .debug_frame   0x00000964       0x64 c:/altera/12.0/nios2eds/bin/gnu/h-i686-mingw32/bin/../lib/gcc/nios2-elf/4.1.2/../../../../nios2-elf/lib\libc.a(lib_a-dtoa.o)
 .debug_frame   0x000009c8       0x40 c:/altera/12.0/nios2eds/bin/gnu/h-i686-mingw32/bin/../lib/gcc/nios2-elf/4.1.2/../../../../nios2-elf/lib\libc.a(lib_a-fflush.o)
 .debug_frame   0x00000a08      0x118 c:/altera/12.0/nios2eds/bin/gnu/h-i686-mingw32/bin/../lib/gcc/nios2-elf/4.1.2/../../../../nios2-elf/lib\libc.a(lib_a-findfp.o)
 .debug_frame   0x00000b20       0x4c c:/altera/12.0/nios2eds/bin/gnu/h-i686-mingw32/bin/../lib/gcc/nios2-elf/4.1.2/../../../../nios2-elf/lib\libc.a(lib_a-fputc.o)
 .debug_frame   0x00000b6c       0x3c c:/altera/12.0/nios2eds/bin/gnu/h-i686-mingw32/bin/../lib/gcc/nios2-elf/4.1.2/../../../../nios2-elf/lib\libc.a(lib_a-fputs.o)
 .debug_frame   0x00000ba8       0x4c c:/altera/12.0/nios2eds/bin/gnu/h-i686-mingw32/bin/../lib/gcc/nios2-elf/4.1.2/../../../../nios2-elf/lib\libc.a(lib_a-freer.o)
 .debug_frame   0x00000bf4       0x38 c:/altera/12.0/nios2eds/bin/gnu/h-i686-mingw32/bin/../lib/gcc/nios2-elf/4.1.2/../../../../nios2-elf/lib\libc.a(lib_a-fvwrite.o)
 .debug_frame   0x00000c2c       0x60 c:/altera/12.0/nios2eds/bin/gnu/h-i686-mingw32/bin/../lib/gcc/nios2-elf/4.1.2/../../../../nios2-elf/lib\libc.a(lib_a-fwalk.o)
 .debug_frame   0x00000c8c       0x70 c:/altera/12.0/nios2eds/bin/gnu/h-i686-mingw32/bin/../lib/gcc/nios2-elf/4.1.2/../../../../nios2-elf/lib\libc.a(lib_a-locale.o)
 .debug_frame   0x00000cfc       0x2c c:/altera/12.0/nios2eds/bin/gnu/h-i686-mingw32/bin/../lib/gcc/nios2-elf/4.1.2/../../../../nios2-elf/lib\libc.a(lib_a-makebuf.o)
 .debug_frame   0x00000d28       0x20 c:/altera/12.0/nios2eds/bin/gnu/h-i686-mingw32/bin/../lib/gcc/nios2-elf/4.1.2/../../../../nios2-elf/lib\libc.a(lib_a-memchr.o)
 .debug_frame   0x00000d48      0x218 c:/altera/12.0/nios2eds/bin/gnu/h-i686-mingw32/bin/../lib/gcc/nios2-elf/4.1.2/../../../../nios2-elf/lib\libc.a(lib_a-mprec.o)
 .debug_frame   0x00000f60       0x4c c:/altera/12.0/nios2eds/bin/gnu/h-i686-mingw32/bin/../lib/gcc/nios2-elf/4.1.2/../../../../nios2-elf/lib\libc.a(lib_a-putc.o)
 .debug_frame   0x00000fac       0x38 c:/altera/12.0/nios2eds/bin/gnu/h-i686-mingw32/bin/../lib/gcc/nios2-elf/4.1.2/../../../../nios2-elf/lib\libc.a(lib_a-reallocr.o)
 .debug_frame   0x00000fe4       0x20 c:/altera/12.0/nios2eds/bin/gnu/h-i686-mingw32/bin/../lib/gcc/nios2-elf/4.1.2/../../../../nios2-elf/lib\libc.a(lib_a-s_isinfd.o)
 .debug_frame   0x00001004       0x20 c:/altera/12.0/nios2eds/bin/gnu/h-i686-mingw32/bin/../lib/gcc/nios2-elf/4.1.2/../../../../nios2-elf/lib\libc.a(lib_a-s_isnand.o)
 .debug_frame   0x00001024       0x78 c:/altera/12.0/nios2eds/bin/gnu/h-i686-mingw32/bin/../lib/gcc/nios2-elf/4.1.2/../../../../nios2-elf/lib\libc.a(lib_a-stdio.o)
 .debug_frame   0x0000109c       0x20 c:/altera/12.0/nios2eds/bin/gnu/h-i686-mingw32/bin/../lib/gcc/nios2-elf/4.1.2/../../../../nios2-elf/lib\libc.a(lib_a-strcmp.o)
 .debug_frame   0x000010bc       0x3c c:/altera/12.0/nios2eds/bin/gnu/h-i686-mingw32/bin/../lib/gcc/nios2-elf/4.1.2/../../../../nios2-elf/lib\libc.a(lib_a-wbuf.o)
 .debug_frame   0x000010f8       0x2c c:/altera/12.0/nios2eds/bin/gnu/h-i686-mingw32/bin/../lib/gcc/nios2-elf/4.1.2/../../../../nios2-elf/lib\libc.a(lib_a-writer.o)
 .debug_frame   0x00001124       0x28 c:/altera/12.0/nios2eds/bin/gnu/h-i686-mingw32/bin/../lib/gcc/nios2-elf/4.1.2/../../../../nios2-elf/lib\libc.a(lib_a-callocr.o)
 .debug_frame   0x0000114c       0x2c c:/altera/12.0/nios2eds/bin/gnu/h-i686-mingw32/bin/../lib/gcc/nios2-elf/4.1.2/../../../../nios2-elf/lib\libc.a(lib_a-closer.o)
 .debug_frame   0x00001178       0x3c c:/altera/12.0/nios2eds/bin/gnu/h-i686-mingw32/bin/../lib/gcc/nios2-elf/4.1.2/../../../../nios2-elf/lib\libc.a(lib_a-fclose.o)
 .debug_frame   0x000011b4       0x2c c:/altera/12.0/nios2eds/bin/gnu/h-i686-mingw32/bin/../lib/gcc/nios2-elf/4.1.2/../../../../nios2-elf/lib\libc.a(lib_a-fstatr.o)
 .debug_frame   0x000011e0       0x2c c:/altera/12.0/nios2eds/bin/gnu/h-i686-mingw32/bin/../lib/gcc/nios2-elf/4.1.2/../../../../nios2-elf/lib\libc.a(lib_a-isattyr.o)
 .debug_frame   0x0000120c       0x2c c:/altera/12.0/nios2eds/bin/gnu/h-i686-mingw32/bin/../lib/gcc/nios2-elf/4.1.2/../../../../nios2-elf/lib\libc.a(lib_a-lseekr.o)
 .debug_frame   0x00001238       0x2c c:/altera/12.0/nios2eds/bin/gnu/h-i686-mingw32/bin/../lib/gcc/nios2-elf/4.1.2/../../../../nios2-elf/lib\libc.a(lib_a-readr.o)
 .debug_frame   0x00001264       0x38 c:/altera/12.0/nios2eds/bin/gnu/h-i686-mingw32/bin/../lib/gcc/nios2-elf/4.1.2\libgcc.a(_udivdi3.o)
 .debug_frame   0x0000129c       0x38 c:/altera/12.0/nios2eds/bin/gnu/h-i686-mingw32/bin/../lib/gcc/nios2-elf/4.1.2\libgcc.a(_umoddi3.o)
 .debug_frame   0x000012d4       0x70 c:/altera/12.0/nios2eds/bin/gnu/h-i686-mingw32/bin/../lib/gcc/nios2-elf/4.1.2\libgcc.a(_addsub_df.o)
 .debug_frame   0x00001344       0x3c c:/altera/12.0/nios2eds/bin/gnu/h-i686-mingw32/bin/../lib/gcc/nios2-elf/4.1.2\libgcc.a(_mul_df.o)
 .debug_frame   0x00001380       0x30 c:/altera/12.0/nios2eds/bin/gnu/h-i686-mingw32/bin/../lib/gcc/nios2-elf/4.1.2\libgcc.a(_div_df.o)
 .debug_frame   0x000013b0       0x2c c:/altera/12.0/nios2eds/bin/gnu/h-i686-mingw32/bin/../lib/gcc/nios2-elf/4.1.2\libgcc.a(_eq_df.o)
 .debug_frame   0x000013dc       0x2c c:/altera/12.0/nios2eds/bin/gnu/h-i686-mingw32/bin/../lib/gcc/nios2-elf/4.1.2\libgcc.a(_ne_df.o)
 .debug_frame   0x00001408       0x2c c:/altera/12.0/nios2eds/bin/gnu/h-i686-mingw32/bin/../lib/gcc/nios2-elf/4.1.2\libgcc.a(_gt_df.o)
 .debug_frame   0x00001434       0x2c c:/altera/12.0/nios2eds/bin/gnu/h-i686-mingw32/bin/../lib/gcc/nios2-elf/4.1.2\libgcc.a(_ge_df.o)
 .debug_frame   0x00001460       0x2c c:/altera/12.0/nios2eds/bin/gnu/h-i686-mingw32/bin/../lib/gcc/nios2-elf/4.1.2\libgcc.a(_lt_df.o)
 .debug_frame   0x0000148c       0x30 c:/altera/12.0/nios2eds/bin/gnu/h-i686-mingw32/bin/../lib/gcc/nios2-elf/4.1.2\libgcc.a(_si_to_df.o)
 .debug_frame   0x000014bc       0x28 c:/altera/12.0/nios2eds/bin/gnu/h-i686-mingw32/bin/../lib/gcc/nios2-elf/4.1.2\libgcc.a(_df_to_si.o)
 .debug_frame   0x000014e4       0x38 c:/altera/12.0/nios2eds/bin/gnu/h-i686-mingw32/bin/../lib/gcc/nios2-elf/4.1.2\libgcc.a(_usi_to_df.o)
 .debug_frame   0x0000151c       0x2c c:/altera/12.0/nios2eds/bin/gnu/h-i686-mingw32/bin/../lib/gcc/nios2-elf/4.1.2\libgcc.a(_muldi3.o)
 .debug_frame   0x00001548       0x20 c:/altera/12.0/nios2eds/bin/gnu/h-i686-mingw32/bin/../lib/gcc/nios2-elf/4.1.2\libgcc.a(_clzsi2.o)
 .debug_frame   0x00001568       0x2c c:/altera/12.0/nios2eds/bin/gnu/h-i686-mingw32/bin/../lib/gcc/nios2-elf/4.1.2\libgcc.a(_pack_df.o)
 .debug_frame   0x00001594       0x20 c:/altera/12.0/nios2eds/bin/gnu/h-i686-mingw32/bin/../lib/gcc/nios2-elf/4.1.2\libgcc.a(_unpack_df.o)
 .debug_frame   0x000015b4       0x20 c:/altera/12.0/nios2eds/bin/gnu/h-i686-mingw32/bin/../lib/gcc/nios2-elf/4.1.2\libgcc.a(_fpcmp_parts_df.o)
 .debug_frame   0x000015d4       0x48 ../niosII_simple_socket_server_1_bsp/\libucosii_bsp.a(alt_flash_dev.o)
 .debug_frame   0x0000161c       0x48 ../niosII_simple_socket_server_1_bsp/\libucosii_bsp.a(alt_fstat.o)
 .debug_frame   0x00001664       0x48 ../niosII_simple_socket_server_1_bsp/\libucosii_bsp.a(alt_isatty.o)
 .debug_frame   0x000016ac       0x48 ../niosII_simple_socket_server_1_bsp/\libucosii_bsp.a(alt_load.o)
 .debug_frame   0x000016f4       0x48 ../niosII_simple_socket_server_1_bsp/\libucosii_bsp.a(alt_lseek.o)
 .debug_frame   0x0000173c       0x2c ../niosII_simple_socket_server_1_bsp/\libucosii_bsp.a(alt_main.o)
 .debug_frame   0x00001768       0x2c ../niosII_simple_socket_server_1_bsp/\libucosii_bsp.a(alt_sbrk.o)
 .debug_frame   0x00001794       0x30 ../niosII_simple_socket_server_1_bsp/\libucosii_bsp.a(alt_usleep.o)
 .debug_frame   0x000017c4       0x4c ../niosII_simple_socket_server_1_bsp/\libucosii_bsp.a(alt_env_lock.o)
 .debug_frame   0x00001810       0x4c ../niosII_simple_socket_server_1_bsp/\libucosii_bsp.a(alt_malloc_lock.o)
 .debug_frame   0x0000185c      0x3e4 ../niosII_simple_socket_server_1_bsp/\libucosii_bsp.a(os_core.o)
 .debug_frame   0x00001c40       0x2c ../niosII_simple_socket_server_1_bsp/\libucosii_bsp.a(os_dbg.o)
 .debug_frame   0x00001c6c      0x180 ../niosII_simple_socket_server_1_bsp/\libucosii_bsp.a(os_flag.o)
 .debug_frame   0x00001dec       0xf0 ../niosII_simple_socket_server_1_bsp/\libucosii_bsp.a(os_mbox.o)
 .debug_frame   0x00001edc       0xd4 ../niosII_simple_socket_server_1_bsp/\libucosii_bsp.a(os_mem.o)
 .debug_frame   0x00001fb0      0x144 ../niosII_simple_socket_server_1_bsp/\libucosii_bsp.a(os_q.o)
 .debug_frame   0x000020f4       0xf0 ../niosII_simple_socket_server_1_bsp/\libucosii_bsp.a(os_sem.o)
 .debug_frame   0x000021e4      0x160 ../niosII_simple_socket_server_1_bsp/\libucosii_bsp.a(os_task.o)
 .debug_frame   0x00002344       0xa0 ../niosII_simple_socket_server_1_bsp/\libucosii_bsp.a(os_time.o)
 .debug_frame   0x000023e4       0x64 ../niosII_simple_socket_server_1_bsp/\libucosii_bsp.a(alt_sys_init.o)
 .debug_frame   0x00002448       0xd4 ../niosII_simple_socket_server_1_bsp/\libucosii_bsp.a(altera_avalon_cfi_flash.o)
 .debug_frame   0x0000251c      0x210 ../niosII_simple_socket_server_1_bsp/\libucosii_bsp.a(altera_avalon_cfi_flash_table.o)
 .debug_frame   0x0000272c       0x80 ../niosII_simple_socket_server_1_bsp/\libucosii_bsp.a(altera_avalon_jtag_uart_fd.o)
 .debug_frame   0x000027ac       0x80 ../niosII_simple_socket_server_1_bsp/\libucosii_bsp.a(altera_avalon_jtag_uart_init.o)
 .debug_frame   0x0000282c       0x2c ../niosII_simple_socket_server_1_bsp/\libucosii_bsp.a(altera_avalon_jtag_uart_ioctl.o)
 .debug_frame   0x00002858       0x2c ../niosII_simple_socket_server_1_bsp/\libucosii_bsp.a(altera_avalon_jtag_uart_read.o)
 .debug_frame   0x00002884       0x2c ../niosII_simple_socket_server_1_bsp/\libucosii_bsp.a(altera_avalon_jtag_uart_write.o)
 .debug_frame   0x000028b0      0x114 ../niosII_simple_socket_server_1_bsp/\libucosii_bsp.a(altera_avalon_lcd_16207.o)
 .debug_frame   0x000029c4       0x2c ../niosII_simple_socket_server_1_bsp/\libucosii_bsp.a(altera_avalon_lcd_16207_fd.o)
 .debug_frame   0x000029f0      0x240 ../niosII_simple_socket_server_1_bsp/\libucosii_bsp.a(altera_avalon_sgdma.o)
 .debug_frame   0x00002c30       0x48 ../niosII_simple_socket_server_1_bsp/\libucosii_bsp.a(altera_avalon_timer_sc.o)
 .debug_frame   0x00002c78      0x4d8 ../niosII_simple_socket_server_1_bsp/\libucosii_bsp.a(altera_avalon_tse.o)
 .debug_frame   0x00003150       0x64 ../niosII_simple_socket_server_1_bsp/\libucosii_bsp.a(altera_avalon_uart_fd.o)
 .debug_frame   0x000031b4       0x9c ../niosII_simple_socket_server_1_bsp/\libucosii_bsp.a(altera_avalon_uart_init.o)
 .debug_frame   0x00003250       0x48 ../niosII_simple_socket_server_1_bsp/\libucosii_bsp.a(altera_avalon_uart_read.o)
 .debug_frame   0x00003298       0x48 ../niosII_simple_socket_server_1_bsp/\libucosii_bsp.a(altera_avalon_uart_write.o)
 .debug_frame   0x000032e0      0x114 ../niosII_simple_socket_server_1_bsp/\libucosii_bsp.a(ins_tse_mac.o)
 .debug_frame   0x000033f4       0x2c ../niosII_simple_socket_server_1_bsp/\libucosii_bsp.a(alt_iniche_close.o)
 .debug_frame   0x00003420       0x2c ../niosII_simple_socket_server_1_bsp/\libucosii_bsp.a(alt_iniche_dev.o)
 .debug_frame   0x0000344c       0x2c ../niosII_simple_socket_server_1_bsp/\libucosii_bsp.a(alt_iniche_read.o)
 .debug_frame   0x00003478       0x2c ../niosII_simple_socket_server_1_bsp/\libucosii_bsp.a(alt_iniche_write.o)
 .debug_frame   0x000034a4       0xb8 ../niosII_simple_socket_server_1_bsp/\libucosii_bsp.a(ipnet.o)
 .debug_frame   0x0000355c       0x80 ../niosII_simple_socket_server_1_bsp/\libucosii_bsp.a(ipstart.o)
 .debug_frame   0x000035dc       0xf4 ../niosII_simple_socket_server_1_bsp/\libucosii_bsp.a(igmp_cmn.o)
 .debug_frame   0x000036d0      0x128 ../niosII_simple_socket_server_1_bsp/\libucosii_bsp.a(bsdsock.o)
 .debug_frame   0x000037f8       0x48 ../niosII_simple_socket_server_1_bsp/\libucosii_bsp.a(cksum.o)
 .debug_frame   0x00003840      0x164 ../niosII_simple_socket_server_1_bsp/\libucosii_bsp.a(in_utils.o)
 .debug_frame   0x000039a4       0x64 ../niosII_simple_socket_server_1_bsp/\libucosii_bsp.a(netmain.o)
 .debug_frame   0x00003a08       0xd4 ../niosII_simple_socket_server_1_bsp/\libucosii_bsp.a(tk_crnos.o)
 .debug_frame   0x00003adc       0xb8 ../niosII_simple_socket_server_1_bsp/\libucosii_bsp.a(pktalloc.o)
 .debug_frame   0x00003b94       0x64 ../niosII_simple_socket_server_1_bsp/\libucosii_bsp.a(q.o)
 .debug_frame   0x00003bf8       0xf0 ../niosII_simple_socket_server_1_bsp/\libucosii_bsp.a(brdutils.o)
 .debug_frame   0x00003ce8       0x9c ../niosII_simple_socket_server_1_bsp/\libucosii_bsp.a(osportco.o)
 .debug_frame   0x00003d84      0x110 ../niosII_simple_socket_server_1_bsp/\libucosii_bsp.a(targnios.o)
 .debug_frame   0x00003e94      0x208 ../niosII_simple_socket_server_1_bsp/\libucosii_bsp.a(nptcp.o)
 .debug_frame   0x0000409c       0x68 ../niosII_simple_socket_server_1_bsp/\libucosii_bsp.a(rawsock.o)
 .debug_frame   0x00004104      0x224 ../niosII_simple_socket_server_1_bsp/\libucosii_bsp.a(sockcall.o)
 .debug_frame   0x00004328      0x1d0 ../niosII_simple_socket_server_1_bsp/\libucosii_bsp.a(socket.o)
 .debug_frame   0x000044f8      0x294 ../niosII_simple_socket_server_1_bsp/\libucosii_bsp.a(socket2.o)
 .debug_frame   0x0000478c      0x110 ../niosII_simple_socket_server_1_bsp/\libucosii_bsp.a(soselect.o)
 .debug_frame   0x0000489c       0xd8 ../niosII_simple_socket_server_1_bsp/\libucosii_bsp.a(tcp_in.o)
 .debug_frame   0x00004974       0x68 ../niosII_simple_socket_server_1_bsp/\libucosii_bsp.a(tcp_out.o)
 .debug_frame   0x000049dc      0x10c ../niosII_simple_socket_server_1_bsp/\libucosii_bsp.a(tcp_subr.o)
 .debug_frame   0x00004ae8       0x64 ../niosII_simple_socket_server_1_bsp/\libucosii_bsp.a(tcp_timr.o)
 .debug_frame   0x00004b4c       0x80 ../niosII_simple_socket_server_1_bsp/\libucosii_bsp.a(tcp_usr.o)
 .debug_frame   0x00004bcc       0x80 ../niosII_simple_socket_server_1_bsp/\libucosii_bsp.a(tcp_zio.o)
 .debug_frame   0x00004c4c       0x2c ../niosII_simple_socket_server_1_bsp/\libucosii_bsp.a(tcpport.o)
 .debug_frame   0x00004c78       0xbc ../niosII_simple_socket_server_1_bsp/\libucosii_bsp.a(udpsock.o)
 .debug_frame   0x00004d34       0x2c ../niosII_simple_socket_server_1_bsp/\libucosii_bsp.a(alt_alarm_start.o)
 .debug_frame   0x00004d60       0x2c ../niosII_simple_socket_server_1_bsp/\libucosii_bsp.a(alt_busy_sleep.o)
 .debug_frame   0x00004d8c       0x48 ../niosII_simple_socket_server_1_bsp/\libucosii_bsp.a(alt_close.o)
 .debug_frame   0x00004dd4       0x2c ../niosII_simple_socket_server_1_bsp/\libucosii_bsp.a(alt_dcache_flush.o)
 .debug_frame   0x00004e00       0x2c ../niosII_simple_socket_server_1_bsp/\libucosii_bsp.a(alt_dcache_flush_all.o)
 .debug_frame   0x00004e2c       0x2c ../niosII_simple_socket_server_1_bsp/\libucosii_bsp.a(alt_dev.o)
 .debug_frame   0x00004e58       0x48 ../niosII_simple_socket_server_1_bsp/\libucosii_bsp.a(alt_dev_llist_insert.o)
 .debug_frame   0x00004ea0       0x2c ../niosII_simple_socket_server_1_bsp/\libucosii_bsp.a(alt_do_ctors.o)
 .debug_frame   0x00004ecc       0x2c ../niosII_simple_socket_server_1_bsp/\libucosii_bsp.a(alt_do_dtors.o)
 .debug_frame   0x00004ef8       0x2c ../niosII_simple_socket_server_1_bsp/\libucosii_bsp.a(alt_find_dev.o)
 .debug_frame   0x00004f24       0x2c ../niosII_simple_socket_server_1_bsp/\libucosii_bsp.a(alt_icache_flush_all.o)
 .debug_frame   0x00004f50       0x80 ../niosII_simple_socket_server_1_bsp/\libucosii_bsp.a(alt_iic.o)
 .debug_frame   0x00004fd0       0x2c ../niosII_simple_socket_server_1_bsp/\libucosii_bsp.a(alt_iic_isr_register.o)
 .debug_frame   0x00004ffc       0x48 ../niosII_simple_socket_server_1_bsp/\libucosii_bsp.a(alt_io_redirect.o)
 .debug_frame   0x00005044       0x2c ../niosII_simple_socket_server_1_bsp/\libucosii_bsp.a(alt_irq_handler.o)
 .debug_frame   0x00005070       0x64 ../niosII_simple_socket_server_1_bsp/\libucosii_bsp.a(alt_open.o)
 .debug_frame   0x000050d4       0x48 ../niosII_simple_socket_server_1_bsp/\libucosii_bsp.a(alt_read.o)
 .debug_frame   0x0000511c       0x2c ../niosII_simple_socket_server_1_bsp/\libucosii_bsp.a(alt_release_fd.o)
 .debug_frame   0x00005148       0x2c ../niosII_simple_socket_server_1_bsp/\libucosii_bsp.a(alt_remap_cached.o)
 .debug_frame   0x00005174       0x2c ../niosII_simple_socket_server_1_bsp/\libucosii_bsp.a(alt_remap_uncached.o)
 .debug_frame   0x000051a0       0x48 ../niosII_simple_socket_server_1_bsp/\libucosii_bsp.a(alt_tick.o)
 .debug_frame   0x000051e8       0x2c ../niosII_simple_socket_server_1_bsp/\libucosii_bsp.a(alt_uncached_malloc.o)
 .debug_frame   0x00005214       0x48 ../niosII_simple_socket_server_1_bsp/\libucosii_bsp.a(alt_write.o)
 .debug_frame   0x0000525c       0x2c ../niosII_simple_socket_server_1_bsp/\libucosii_bsp.a(altera_nios2_irq.o)
 .debug_frame   0x00005288      0x128 ../niosII_simple_socket_server_1_bsp/\libucosii_bsp.a(os_cpu_c.o)
 .debug_frame   0x000053b0       0x80 ../niosII_simple_socket_server_1_bsp/\libucosii_bsp.a(altera_avalon_cfi_flash_amd.o)
 .debug_frame   0x00005430       0x80 ../niosII_simple_socket_server_1_bsp/\libucosii_bsp.a(altera_avalon_cfi_flash_intel.o)
 .debug_frame   0x000054b0       0xe0 ../niosII_simple_socket_server_1_bsp/\libucosii_bsp.a(allports.o)
 .debug_frame   0x00005590       0x84 ../niosII_simple_socket_server_1_bsp/\libucosii_bsp.a(timeouts.o)
 .debug_frame   0x00005614       0x48 ../niosII_simple_socket_server_1_bsp/\libucosii_bsp.a(tk_misc.o)
 .debug_frame   0x0000565c       0x2c ../niosII_simple_socket_server_1_bsp/\libucosii_bsp.a(alt_iniche_fcntl.o)
 .debug_frame   0x00005688      0x160 ../niosII_simple_socket_server_1_bsp/\libucosii_bsp.a(et_arp.o)
 .debug_frame   0x000057e8       0x80 ../niosII_simple_socket_server_1_bsp/\libucosii_bsp.a(iface.o)
 .debug_frame   0x00005868      0x160 ../niosII_simple_socket_server_1_bsp/\libucosii_bsp.a(ip.o)
 .debug_frame   0x000059c8      0x1d4 ../niosII_simple_socket_server_1_bsp/\libucosii_bsp.a(ip_reasm.o)
 .debug_frame   0x00005b9c       0x68 ../niosII_simple_socket_server_1_bsp/\libucosii_bsp.a(ipdemux.o)
 .debug_frame   0x00005c04       0x64 ../niosII_simple_socket_server_1_bsp/\libucosii_bsp.a(ipmc.o)
 .debug_frame   0x00005c68       0x64 ../niosII_simple_socket_server_1_bsp/\libucosii_bsp.a(ipport.o)
 .debug_frame   0x00005ccc       0xb8 ../niosII_simple_socket_server_1_bsp/\libucosii_bsp.a(ipraw.o)
 .debug_frame   0x00005d84       0x64 ../niosII_simple_socket_server_1_bsp/\libucosii_bsp.a(iproute.o)
 .debug_frame   0x00005de8       0xd4 ../niosII_simple_socket_server_1_bsp/\libucosii_bsp.a(udp.o)
 .debug_frame   0x00005ebc       0x2c ../niosII_simple_socket_server_1_bsp/\libucosii_bsp.a(igmp.o)
 .debug_frame   0x00005ee8       0x9c ../niosII_simple_socket_server_1_bsp/\libucosii_bsp.a(igmp2.o)
 .debug_frame   0x00005f84       0x84 ../niosII_simple_socket_server_1_bsp/\libucosii_bsp.a(ipopt.o)
 .debug_frame   0x00006008       0x4c ../niosII_simple_socket_server_1_bsp/\libucosii_bsp.a(u_mctest.o)
 .debug_frame   0x00006054      0x10c ../niosII_simple_socket_server_1_bsp/\libucosii_bsp.a(memdev.o)
 .debug_frame   0x00006160      0x10c ../niosII_simple_socket_server_1_bsp/\libucosii_bsp.a(parseip.o)
 .debug_frame   0x0000626c       0x2c ../niosII_simple_socket_server_1_bsp/\libucosii_bsp.a(tcpcksum.o)
 .debug_frame   0x00006298       0x48 ../niosII_simple_socket_server_1_bsp/\libucosii_bsp.a(udp_open.o)
 .debug_frame   0x000062e0       0xf0 ../niosII_simple_socket_server_1_bsp/\libucosii_bsp.a(in_pcb.o)
 .debug_frame   0x000063d0      0x320 ../niosII_simple_socket_server_1_bsp/\libucosii_bsp.a(vfsfiles.o)
 .debug_frame   0x000066f0       0x2c ../niosII_simple_socket_server_1_bsp/\libucosii_bsp.a(vfsport.o)
 .debug_frame   0x0000671c       0x48 ../niosII_simple_socket_server_1_bsp/\libucosii_bsp.a(alt_fcntl.o)
 .debug_frame   0x00006764       0x2c ../niosII_simple_socket_server_1_bsp/\libucosii_bsp.a(alt_find_file.o)
 .debug_frame   0x00006790       0x2c ../niosII_simple_socket_server_1_bsp/\libucosii_bsp.a(alt_get_fd.o)
 .debug_frame   0x000067bc       0x2c ../niosII_simple_socket_server_1_bsp/\libucosii_bsp.a(alt_icache_flush.o)
 .debug_frame   0x000067e8       0x84 ../niosII_simple_socket_server_1_bsp/\libucosii_bsp.a(icmp.o)
 .debug_frame   0x0000686c       0x20 c:/altera/12.0/nios2eds/bin/gnu/h-i686-mingw32/bin/../lib/gcc/nios2-elf/4.1.2/../../../../nios2-elf/lib\libc.a(lib_a-atexit.o)
 .debug_frame   0x0000688c       0x30 c:/altera/12.0/nios2eds/bin/gnu/h-i686-mingw32/bin/../lib/gcc/nios2-elf/4.1.2/../../../../nios2-elf/lib\libc.a(lib_a-atoi.o)
 .debug_frame   0x000068bc       0x20 c:/altera/12.0/nios2eds/bin/gnu/h-i686-mingw32/bin/../lib/gcc/nios2-elf/4.1.2/../../../../nios2-elf/lib\libc.a(lib_a-calloc.o)
 .debug_frame   0x000068dc       0x28 c:/altera/12.0/nios2eds/bin/gnu/h-i686-mingw32/bin/../lib/gcc/nios2-elf/4.1.2/../../../../nios2-elf/lib\libc.a(lib_a-exit.o)
 .debug_frame   0x00006904       0x48 c:/altera/12.0/nios2eds/bin/gnu/h-i686-mingw32/bin/../lib/gcc/nios2-elf/4.1.2/../../../../nios2-elf/lib\libc.a(lib_a-getc.o)
 .debug_frame   0x0000694c       0x20 c:/altera/12.0/nios2eds/bin/gnu/h-i686-mingw32/bin/../lib/gcc/nios2-elf/4.1.2/../../../../nios2-elf/lib\libc.a(lib_a-memcmp.o)
 .debug_frame   0x0000696c       0x38 c:/altera/12.0/nios2eds/bin/gnu/h-i686-mingw32/bin/../lib/gcc/nios2-elf/4.1.2/../../../../nios2-elf/lib\libc.a(lib_a-rget.o)
 .debug_frame   0x000069a4       0x20 c:/altera/12.0/nios2eds/bin/gnu/h-i686-mingw32/bin/../lib/gcc/nios2-elf/4.1.2/../../../../nios2-elf/lib\libc.a(lib_a-strcpy.o)
 .debug_frame   0x000069c4       0x20 c:/altera/12.0/nios2eds/bin/gnu/h-i686-mingw32/bin/../lib/gcc/nios2-elf/4.1.2/../../../../nios2-elf/lib\libc.a(lib_a-strncmp.o)
 .debug_frame   0x000069e4       0x4c c:/altera/12.0/nios2eds/bin/gnu/h-i686-mingw32/bin/../lib/gcc/nios2-elf/4.1.2/../../../../nios2-elf/lib\libc.a(lib_a-strtol.o)
 .debug_frame   0x00006a30       0x30 c:/altera/12.0/nios2eds/bin/gnu/h-i686-mingw32/bin/../lib/gcc/nios2-elf/4.1.2/../../../../nios2-elf/lib\libc.a(lib_a-vprintf.o)
 .debug_frame   0x00006a60       0x38 c:/altera/12.0/nios2eds/bin/gnu/h-i686-mingw32/bin/../lib/gcc/nios2-elf/4.1.2/../../../../nios2-elf/lib\libc.a(lib_a-vsprintf.o)
 .debug_frame   0x00006a98       0x34 c:/altera/12.0/nios2eds/bin/gnu/h-i686-mingw32/bin/../lib/gcc/nios2-elf/4.1.2/../../../../nios2-elf/lib\libc.a(lib_a-__atexit.o)
 .debug_frame   0x00006acc       0x4c c:/altera/12.0/nios2eds/bin/gnu/h-i686-mingw32/bin/../lib/gcc/nios2-elf/4.1.2/../../../../nios2-elf/lib\libc.a(lib_a-__call_atexit.o)
 .debug_frame   0x00006b18       0x3c c:/altera/12.0/nios2eds/bin/gnu/h-i686-mingw32/bin/../lib/gcc/nios2-elf/4.1.2/../../../../nios2-elf/lib\libc.a(lib_a-refill.o)
 .debug_frame   0x00006b54       0x48 ../niosII_simple_socket_server_1_bsp/\libucosii_bsp.a(alt_exit.o)

.debug_str      0x00000000     0x3a04
 *(.debug_str)
 .debug_str     0x00000000       0x3f obj/SSS_DE2_115.o
 .debug_str     0x0000003f       0x1f obj/alt_eeprom/alt_2_wire.o
 .debug_str     0x0000005e       0x27 obj/alt_eeprom/alt_eeprom.o
 .debug_str     0x00000085       0x4e obj/alt_error_handler.o
 .debug_str     0x000000d3       0x87 obj/iniche_init.o
 .debug_str     0x0000015a       0x12 obj/led.o
 .debug_str     0x0000016c       0x41 obj/niosII_simple_socket_server.o
 .debug_str     0x000001ad      0x164 c:/altera/12.0/nios2eds/bin/gnu/h-i686-mingw32/bin/../lib/gcc/nios2-elf/4.1.2\libgcc.a(lib2-divmod.o)
                                0x1b1 (size before relaxing)
 .debug_str     0x00000311       0xdf c:/altera/12.0/nios2eds/bin/gnu/h-i686-mingw32/bin/../lib/gcc/nios2-elf/4.1.2/../../../../nios2-elf/lib\libc.a(lib_a-ctype_.o)
                                0x102 (size before relaxing)
 .debug_str     0x000003f0      0x446 c:/altera/12.0/nios2eds/bin/gnu/h-i686-mingw32/bin/../lib/gcc/nios2-elf/4.1.2/../../../../nios2-elf/lib\libc.a(lib_a-fprintf.o)
                                0x51c (size before relaxing)
 .debug_str     0x00000836       0x87 c:/altera/12.0/nios2eds/bin/gnu/h-i686-mingw32/bin/../lib/gcc/nios2-elf/4.1.2/../../../../nios2-elf/lib\libc.a(lib_a-fwrite.o)
                                0x55c (size before relaxing)
 .debug_str     0x000008bd       0xe1 c:/altera/12.0/nios2eds/bin/gnu/h-i686-mingw32/bin/../lib/gcc/nios2-elf/4.1.2/../../../../nios2-elf/lib\libc.a(lib_a-impure.o)
                                0x517 (size before relaxing)
 .debug_str     0x0000099e       0xd0 c:/altera/12.0/nios2eds/bin/gnu/h-i686-mingw32/bin/../lib/gcc/nios2-elf/4.1.2/../../../../nios2-elf/lib\libc.a(lib_a-malloc.o)
                                0x519 (size before relaxing)
 .debug_str     0x00000a6e      0x208 c:/altera/12.0/nios2eds/bin/gnu/h-i686-mingw32/bin/../lib/gcc/nios2-elf/4.1.2/../../../../nios2-elf/lib\libc.a(lib_a-mallocr.o)
                                0x6ee (size before relaxing)
 .debug_str     0x00000c76       0xf2 c:/altera/12.0/nios2eds/bin/gnu/h-i686-mingw32/bin/../lib/gcc/nios2-elf/4.1.2/../../../../nios2-elf/lib\libc.a(lib_a-memcpy.o)
                                0x125 (size before relaxing)
 .debug_str     0x00000d68       0x5d c:/altera/12.0/nios2eds/bin/gnu/h-i686-mingw32/bin/../lib/gcc/nios2-elf/4.1.2/../../../../nios2-elf/lib\libc.a(lib_a-memmove.o)
                                0x19a (size before relaxing)
 .debug_str     0x00000dc5       0x56 c:/altera/12.0/nios2eds/bin/gnu/h-i686-mingw32/bin/../lib/gcc/nios2-elf/4.1.2/../../../../nios2-elf/lib\libc.a(lib_a-memset.o)
                                0x17b (size before relaxing)
 .debug_str     0x00000e1b       0x4b c:/altera/12.0/nios2eds/bin/gnu/h-i686-mingw32/bin/../lib/gcc/nios2-elf/4.1.2/../../../../nios2-elf/lib\libc.a(lib_a-perror.o)
                                0x50f (size before relaxing)
 .debug_str     0x00000e66       0x44 c:/altera/12.0/nios2eds/bin/gnu/h-i686-mingw32/bin/../lib/gcc/nios2-elf/4.1.2/../../../../nios2-elf/lib\libc.a(lib_a-printf.o)
                                0x520 (size before relaxing)
 .debug_str     0x00000eaa       0x4e c:/altera/12.0/nios2eds/bin/gnu/h-i686-mingw32/bin/../lib/gcc/nios2-elf/4.1.2/../../../../nios2-elf/lib\libc.a(lib_a-putchar.o)
                                0x50c (size before relaxing)
 .debug_str     0x00000ef8       0x40 c:/altera/12.0/nios2eds/bin/gnu/h-i686-mingw32/bin/../lib/gcc/nios2-elf/4.1.2/../../../../nios2-elf/lib\libc.a(lib_a-puts.o)
                                0x546 (size before relaxing)
 .debug_str     0x00000f38       0x50 c:/altera/12.0/nios2eds/bin/gnu/h-i686-mingw32/bin/../lib/gcc/nios2-elf/4.1.2/../../../../nios2-elf/lib\libc.a(lib_a-sbrkr.o)
                                0x508 (size before relaxing)
 .debug_str     0x00000f88       0x46 c:/altera/12.0/nios2eds/bin/gnu/h-i686-mingw32/bin/../lib/gcc/nios2-elf/4.1.2/../../../../nios2-elf/lib\libc.a(lib_a-sprintf.o)
                                0x528 (size before relaxing)
 .debug_str     0x00000fce       0x47 c:/altera/12.0/nios2eds/bin/gnu/h-i686-mingw32/bin/../lib/gcc/nios2-elf/4.1.2/../../../../nios2-elf/lib\libc.a(lib_a-strchr.o)
                                0x172 (size before relaxing)
 .debug_str     0x00001015       0x44 c:/altera/12.0/nios2eds/bin/gnu/h-i686-mingw32/bin/../lib/gcc/nios2-elf/4.1.2/../../../../nios2-elf/lib\libc.a(lib_a-strerror.o)
                                0x171 (size before relaxing)
 .debug_str     0x00001059       0x42 c:/altera/12.0/nios2eds/bin/gnu/h-i686-mingw32/bin/../lib/gcc/nios2-elf/4.1.2/../../../../nios2-elf/lib\libc.a(lib_a-strlen.o)
                                0x17a (size before relaxing)
 .debug_str     0x0000109b       0x4c c:/altera/12.0/nios2eds/bin/gnu/h-i686-mingw32/bin/../lib/gcc/nios2-elf/4.1.2/../../../../nios2-elf/lib\libc.a(lib_a-u_strerr.o)
                                 0xed (size before relaxing)
 .debug_str     0x000010e7      0x178 c:/altera/12.0/nios2eds/bin/gnu/h-i686-mingw32/bin/../lib/gcc/nios2-elf/4.1.2/../../../../nios2-elf/lib\libc.a(lib_a-vfprintf.o)
                                0x6f5 (size before relaxing)
 .debug_str     0x0000125f       0x46 c:/altera/12.0/nios2eds/bin/gnu/h-i686-mingw32/bin/../lib/gcc/nios2-elf/4.1.2/../../../../nios2-elf/lib\libc.a(lib_a-wsetup.o)
                                0x509 (size before relaxing)
 .debug_str     0x000012a5      0x102 c:/altera/12.0/nios2eds/bin/gnu/h-i686-mingw32/bin/../lib/gcc/nios2-elf/4.1.2/../../../../nios2-elf/lib\libc.a(lib_a-dtoa.o)
                                0x5fe (size before relaxing)
 .debug_str     0x000013a7       0x52 c:/altera/12.0/nios2eds/bin/gnu/h-i686-mingw32/bin/../lib/gcc/nios2-elf/4.1.2/../../../../nios2-elf/lib\libc.a(lib_a-fflush.o)
                                0x52f (size before relaxing)
 .debug_str     0x000013f9      0x102 c:/altera/12.0/nios2eds/bin/gnu/h-i686-mingw32/bin/../lib/gcc/nios2-elf/4.1.2/../../../../nios2-elf/lib\libc.a(lib_a-findfp.o)
                                0x5f1 (size before relaxing)
 .debug_str     0x000014fb       0x48 c:/altera/12.0/nios2eds/bin/gnu/h-i686-mingw32/bin/../lib/gcc/nios2-elf/4.1.2/../../../../nios2-elf/lib\libc.a(lib_a-fputc.o)
                                0x517 (size before relaxing)
 .debug_str     0x00001543       0x48 c:/altera/12.0/nios2eds/bin/gnu/h-i686-mingw32/bin/../lib/gcc/nios2-elf/4.1.2/../../../../nios2-elf/lib\libc.a(lib_a-fputs.o)
                                0x555 (size before relaxing)
 .debug_str     0x0000158b       0x3c c:/altera/12.0/nios2eds/bin/gnu/h-i686-mingw32/bin/../lib/gcc/nios2-elf/4.1.2/../../../../nios2-elf/lib\libc.a(lib_a-freer.o)
                                0x640 (size before relaxing)
 .debug_str     0x000015c7       0x66 c:/altera/12.0/nios2eds/bin/gnu/h-i686-mingw32/bin/../lib/gcc/nios2-elf/4.1.2/../../../../nios2-elf/lib\libc.a(lib_a-fvwrite.o)
                                0x560 (size before relaxing)
 .debug_str     0x0000162d       0x5e c:/altera/12.0/nios2eds/bin/gnu/h-i686-mingw32/bin/../lib/gcc/nios2-elf/4.1.2/../../../../nios2-elf/lib\libc.a(lib_a-fwalk.o)
                                0x532 (size before relaxing)
 .debug_str     0x0000168b       0x3d c:/altera/12.0/nios2eds/bin/gnu/h-i686-mingw32/bin/../lib/gcc/nios2-elf/4.1.2/../../../../nios2-elf/lib\libc.a(lib_a-int_errno.o)
                                0x160 (size before relaxing)
 .debug_str     0x000016c8      0x222 c:/altera/12.0/nios2eds/bin/gnu/h-i686-mingw32/bin/../lib/gcc/nios2-elf/4.1.2/../../../../nios2-elf/lib\libc.a(lib_a-locale.o)
                                0x6a6 (size before relaxing)
 .debug_str     0x000018ea      0x123 c:/altera/12.0/nios2eds/bin/gnu/h-i686-mingw32/bin/../lib/gcc/nios2-elf/4.1.2/../../../../nios2-elf/lib\libc.a(lib_a-makebuf.o)
                                0x603 (size before relaxing)
 .debug_str     0x00001a0d       0x47 c:/altera/12.0/nios2eds/bin/gnu/h-i686-mingw32/bin/../lib/gcc/nios2-elf/4.1.2/../../../../nios2-elf/lib\libc.a(lib_a-memchr.o)
                                0x188 (size before relaxing)
 .debug_str     0x00001a54       0xf8 c:/altera/12.0/nios2eds/bin/gnu/h-i686-mingw32/bin/../lib/gcc/nios2-elf/4.1.2/../../../../nios2-elf/lib\libc.a(lib_a-mprec.o)
                                0x60b (size before relaxing)
 .debug_str     0x00001b4c       0x40 c:/altera/12.0/nios2eds/bin/gnu/h-i686-mingw32/bin/../lib/gcc/nios2-elf/4.1.2/../../../../nios2-elf/lib\libc.a(lib_a-putc.o)
                                0x50f (size before relaxing)
 .debug_str     0x00001b8c       0x59 c:/altera/12.0/nios2eds/bin/gnu/h-i686-mingw32/bin/../lib/gcc/nios2-elf/4.1.2/../../../../nios2-elf/lib\libc.a(lib_a-reallocr.o)
                                0x5c0 (size before relaxing)
 .debug_str     0x00001be5       0xd9 c:/altera/12.0/nios2eds/bin/gnu/h-i686-mingw32/bin/../lib/gcc/nios2-elf/4.1.2/../../../../nios2-elf/lib\libc.a(lib_a-s_isinfd.o)
                                0x187 (size before relaxing)
 .debug_str     0x00001cbe       0x46 c:/altera/12.0/nios2eds/bin/gnu/h-i686-mingw32/bin/../lib/gcc/nios2-elf/4.1.2/../../../../nios2-elf/lib\libc.a(lib_a-s_isnand.o)
                                0x187 (size before relaxing)
 .debug_str     0x00001d04       0x62 c:/altera/12.0/nios2eds/bin/gnu/h-i686-mingw32/bin/../lib/gcc/nios2-elf/4.1.2/../../../../nios2-elf/lib\libc.a(lib_a-stdio.o)
                                0x52e (size before relaxing)
 .debug_str     0x00001d66       0x42 c:/altera/12.0/nios2eds/bin/gnu/h-i686-mingw32/bin/../lib/gcc/nios2-elf/4.1.2/../../../../nios2-elf/lib\libc.a(lib_a-strcmp.o)
                                0x160 (size before relaxing)
 .debug_str     0x00001da8       0x4a c:/altera/12.0/nios2eds/bin/gnu/h-i686-mingw32/bin/../lib/gcc/nios2-elf/4.1.2/../../../../nios2-elf/lib\libc.a(lib_a-wbuf.o)
                                0x50d (size before relaxing)
 .debug_str     0x00001df2       0x4c c:/altera/12.0/nios2eds/bin/gnu/h-i686-mingw32/bin/../lib/gcc/nios2-elf/4.1.2/../../../../nios2-elf/lib\libc.a(lib_a-writer.o)
                                0x50b (size before relaxing)
 .debug_str     0x00001e3e       0x19 c:/altera/12.0/nios2eds/bin/gnu/h-i686-mingw32/bin/../lib/gcc/nios2-elf/4.1.2/../../../../nios2-elf/lib\libc.a(lib_a-callocr.o)
                                0x53f (size before relaxing)
 .debug_str     0x00001e57       0x43 c:/altera/12.0/nios2eds/bin/gnu/h-i686-mingw32/bin/../lib/gcc/nios2-elf/4.1.2/../../../../nios2-elf/lib\libc.a(lib_a-closer.o)
                                0x4fb (size before relaxing)
 .debug_str     0x00001e9a       0x4b c:/altera/12.0/nios2eds/bin/gnu/h-i686-mingw32/bin/../lib/gcc/nios2-elf/4.1.2/../../../../nios2-elf/lib\libc.a(lib_a-fclose.o)
                                0x513 (size before relaxing)
 .debug_str     0x00001ee5       0x49 c:/altera/12.0/nios2eds/bin/gnu/h-i686-mingw32/bin/../lib/gcc/nios2-elf/4.1.2/../../../../nios2-elf/lib\libc.a(lib_a-fstatr.o)
                                0x5ee (size before relaxing)
 .debug_str     0x00001f2e       0x45 c:/altera/12.0/nios2eds/bin/gnu/h-i686-mingw32/bin/../lib/gcc/nios2-elf/4.1.2/../../../../nios2-elf/lib\libc.a(lib_a-isattyr.o)
                                0x4fd (size before relaxing)
 .debug_str     0x00001f73       0x43 c:/altera/12.0/nios2eds/bin/gnu/h-i686-mingw32/bin/../lib/gcc/nios2-elf/4.1.2/../../../../nios2-elf/lib\libc.a(lib_a-lseekr.o)
                                0x509 (size before relaxing)
 .debug_str     0x00001fb6       0x41 c:/altera/12.0/nios2eds/bin/gnu/h-i686-mingw32/bin/../lib/gcc/nios2-elf/4.1.2/../../../../nios2-elf/lib\libc.a(lib_a-readr.o)
                                0x509 (size before relaxing)
 .debug_str     0x00001ff7       0xb2 c:/altera/12.0/nios2eds/bin/gnu/h-i686-mingw32/bin/../lib/gcc/nios2-elf/4.1.2\libgcc.a(_udivdi3.o)
                                0x1f4 (size before relaxing)
 .debug_str     0x000020a9        0xa c:/altera/12.0/nios2eds/bin/gnu/h-i686-mingw32/bin/../lib/gcc/nios2-elf/4.1.2\libgcc.a(_umoddi3.o)
                                0x1f4 (size before relaxing)
 .debug_str     0x000020b3      0x137 c:/altera/12.0/nios2eds/bin/gnu/h-i686-mingw32/bin/../lib/gcc/nios2-elf/4.1.2\libgcc.a(_addsub_df.o)
                                0x26c (size before relaxing)
 .debug_str     0x000021ea       0x40 c:/altera/12.0/nios2eds/bin/gnu/h-i686-mingw32/bin/../lib/gcc/nios2-elf/4.1.2\libgcc.a(_mul_df.o)
                                0x23e (size before relaxing)
 .debug_str     0x0000222a       0x35 c:/altera/12.0/nios2eds/bin/gnu/h-i686-mingw32/bin/../lib/gcc/nios2-elf/4.1.2\libgcc.a(_div_df.o)
                                0x22e (size before relaxing)
 .debug_str     0x0000225f        0x8 c:/altera/12.0/nios2eds/bin/gnu/h-i686-mingw32/bin/../lib/gcc/nios2-elf/4.1.2\libgcc.a(_eq_df.o)
                                0x1fb (size before relaxing)
 .debug_str     0x00002267        0x8 c:/altera/12.0/nios2eds/bin/gnu/h-i686-mingw32/bin/../lib/gcc/nios2-elf/4.1.2\libgcc.a(_ne_df.o)
                                0x1fb (size before relaxing)
 .debug_str     0x0000226f        0x8 c:/altera/12.0/nios2eds/bin/gnu/h-i686-mingw32/bin/../lib/gcc/nios2-elf/4.1.2\libgcc.a(_gt_df.o)
                                0x1fb (size before relaxing)
 .debug_str     0x00002277        0x8 c:/altera/12.0/nios2eds/bin/gnu/h-i686-mingw32/bin/../lib/gcc/nios2-elf/4.1.2\libgcc.a(_ge_df.o)
                                0x1fb (size before relaxing)
 .debug_str     0x0000227f        0x8 c:/altera/12.0/nios2eds/bin/gnu/h-i686-mingw32/bin/../lib/gcc/nios2-elf/4.1.2\libgcc.a(_lt_df.o)
                                0x1fb (size before relaxing)
 .debug_str     0x00002287       0x18 c:/altera/12.0/nios2eds/bin/gnu/h-i686-mingw32/bin/../lib/gcc/nios2-elf/4.1.2\libgcc.a(_si_to_df.o)
                                0x1db (size before relaxing)
 .debug_str     0x0000229f        0xa c:/altera/12.0/nios2eds/bin/gnu/h-i686-mingw32/bin/../lib/gcc/nios2-elf/4.1.2\libgcc.a(_df_to_si.o)
                                0x204 (size before relaxing)
 .debug_str     0x00000000      0x1a0 c:/altera/12.0/nios2eds/bin/gnu/h-i686-mingw32/bin/../lib/gcc/nios2-elf/4.1.2\libgcc.a(_thenan_df.o)
 .debug_str     0x000022a9       0x14 c:/altera/12.0/nios2eds/bin/gnu/h-i686-mingw32/bin/../lib/gcc/nios2-elf/4.1.2\libgcc.a(_usi_to_df.o)
                                0x1d7 (size before relaxing)
 .debug_str     0x000022bd        0x9 c:/altera/12.0/nios2eds/bin/gnu/h-i686-mingw32/bin/../lib/gcc/nios2-elf/4.1.2\libgcc.a(_muldi3.o)
                                0x1a9 (size before relaxing)
 .debug_str     0x00000000      0x15e c:/altera/12.0/nios2eds/bin/gnu/h-i686-mingw32/bin/../lib/gcc/nios2-elf/4.1.2\libgcc.a(_clz.o)
 .debug_str     0x000022c6        0x9 c:/altera/12.0/nios2eds/bin/gnu/h-i686-mingw32/bin/../lib/gcc/nios2-elf/4.1.2\libgcc.a(_clzsi2.o)
                                0x17b (size before relaxing)
 .debug_str     0x000022cf       0x10 c:/altera/12.0/nios2eds/bin/gnu/h-i686-mingw32/bin/../lib/gcc/nios2-elf/4.1.2\libgcc.a(_pack_df.o)
                                0x203 (size before relaxing)
 .debug_str     0x000022df        0xb c:/altera/12.0/nios2eds/bin/gnu/h-i686-mingw32/bin/../lib/gcc/nios2-elf/4.1.2\libgcc.a(_unpack_df.o)
                                0x1e5 (size before relaxing)
 .debug_str     0x000022ea       0x10 c:/altera/12.0/nios2eds/bin/gnu/h-i686-mingw32/bin/../lib/gcc/nios2-elf/4.1.2\libgcc.a(_fpcmp_parts_df.o)
                                0x1c3 (size before relaxing)
 .debug_str     0x000022fa       0x2d ../niosII_simple_socket_server_1_bsp/\libucosii_bsp.a(alt_flash_dev.o)
 .debug_str     0x00002327       0x12 ../niosII_simple_socket_server_1_bsp/\libucosii_bsp.a(alt_fstat.o)
 .debug_str     0x00002339       0x12 ../niosII_simple_socket_server_1_bsp/\libucosii_bsp.a(alt_isatty.o)
 .debug_str     0x0000234b       0x12 ../niosII_simple_socket_server_1_bsp/\libucosii_bsp.a(alt_load.o)
 .debug_str     0x0000235d       0x12 ../niosII_simple_socket_server_1_bsp/\libucosii_bsp.a(alt_lseek.o)
 .debug_str     0x0000236f       0x12 ../niosII_simple_socket_server_1_bsp/\libucosii_bsp.a(alt_main.o)
 .debug_str     0x00002381       0x1a ../niosII_simple_socket_server_1_bsp/\libucosii_bsp.a(alt_sbrk.o)
 .debug_str     0x0000239b       0x12 ../niosII_simple_socket_server_1_bsp/\libucosii_bsp.a(alt_usleep.o)
 .debug_str     0x000023ad       0x36 ../niosII_simple_socket_server_1_bsp/\libucosii_bsp.a(alt_env_lock.o)
 .debug_str     0x000023e3       0x36 ../niosII_simple_socket_server_1_bsp/\libucosii_bsp.a(alt_malloc_lock.o)
 .debug_str     0x00002419       0x46 ../niosII_simple_socket_server_1_bsp/\libucosii_bsp.a(os_core.o)
 .debug_str     0x0000245f       0x2b ../niosII_simple_socket_server_1_bsp/\libucosii_bsp.a(os_dbg.o)
 .debug_str     0x0000248a       0x4e ../niosII_simple_socket_server_1_bsp/\libucosii_bsp.a(os_flag.o)
 .debug_str     0x000024d8       0x36 ../niosII_simple_socket_server_1_bsp/\libucosii_bsp.a(os_mbox.o)
 .debug_str     0x0000250e       0x2c ../niosII_simple_socket_server_1_bsp/\libucosii_bsp.a(os_mem.o)
 .debug_str     0x0000253a       0x36 ../niosII_simple_socket_server_1_bsp/\libucosii_bsp.a(os_q.o)
 .debug_str     0x00002570       0x36 ../niosII_simple_socket_server_1_bsp/\libucosii_bsp.a(os_sem.o)
 .debug_str     0x000025a6       0x23 ../niosII_simple_socket_server_1_bsp/\libucosii_bsp.a(os_task.o)
 .debug_str     0x000025c9       0x1f ../niosII_simple_socket_server_1_bsp/\libucosii_bsp.a(os_time.o)
 .debug_str     0x000025e8       0x71 ../niosII_simple_socket_server_1_bsp/\libucosii_bsp.a(alt_sys_init.o)
 .debug_str     0x00002659       0x82 ../niosII_simple_socket_server_1_bsp/\libucosii_bsp.a(altera_avalon_cfi_flash.o)
 .debug_str     0x000026db       0x6d ../niosII_simple_socket_server_1_bsp/\libucosii_bsp.a(altera_avalon_cfi_flash_table.o)
 .debug_str     0x00002748       0x12 ../niosII_simple_socket_server_1_bsp/\libucosii_bsp.a(altera_avalon_jtag_uart_fd.o)
 .debug_str     0x0000275a       0x1a ../niosII_simple_socket_server_1_bsp/\libucosii_bsp.a(altera_avalon_jtag_uart_init.o)
 .debug_str     0x00002774       0x12 ../niosII_simple_socket_server_1_bsp/\libucosii_bsp.a(altera_avalon_jtag_uart_ioctl.o)
 .debug_str     0x00002786       0x22 ../niosII_simple_socket_server_1_bsp/\libucosii_bsp.a(altera_avalon_jtag_uart_read.o)
 .debug_str     0x000027a8       0x22 ../niosII_simple_socket_server_1_bsp/\libucosii_bsp.a(altera_avalon_jtag_uart_write.o)
 .debug_str     0x000027ca       0x25 ../niosII_simple_socket_server_1_bsp/\libucosii_bsp.a(altera_avalon_lcd_16207.o)
 .debug_str     0x000027ef       0x12 ../niosII_simple_socket_server_1_bsp/\libucosii_bsp.a(altera_avalon_lcd_16207_fd.o)
 .debug_str     0x00002801       0xe7 ../niosII_simple_socket_server_1_bsp/\libucosii_bsp.a(altera_avalon_sgdma.o)
 .debug_str     0x000028e8       0x12 ../niosII_simple_socket_server_1_bsp/\libucosii_bsp.a(altera_avalon_timer_sc.o)
 .debug_str     0x000028fa      0x328 ../niosII_simple_socket_server_1_bsp/\libucosii_bsp.a(altera_avalon_tse.o)
 .debug_str     0x00002c22       0x12 ../niosII_simple_socket_server_1_bsp/\libucosii_bsp.a(altera_avalon_uart_fd.o)
 .debug_str     0x00002c34       0x1f ../niosII_simple_socket_server_1_bsp/\libucosii_bsp.a(altera_avalon_uart_init.o)
 .debug_str     0x00002c53       0x1a ../niosII_simple_socket_server_1_bsp/\libucosii_bsp.a(altera_avalon_uart_read.o)
 .debug_str     0x00002c6d       0x1a ../niosII_simple_socket_server_1_bsp/\libucosii_bsp.a(altera_avalon_uart_write.o)
 .debug_str     0x00002c87       0xac ../niosII_simple_socket_server_1_bsp/\libucosii_bsp.a(ins_tse_mac.o)
 .debug_str     0x00002d33       0x12 ../niosII_simple_socket_server_1_bsp/\libucosii_bsp.a(alt_iniche_close.o)
 .debug_str     0x00002d45       0x12 ../niosII_simple_socket_server_1_bsp/\libucosii_bsp.a(alt_iniche_dev.o)
 .debug_str     0x00002d57       0x12 ../niosII_simple_socket_server_1_bsp/\libucosii_bsp.a(alt_iniche_read.o)
 .debug_str     0x00002d69       0x12 ../niosII_simple_socket_server_1_bsp/\libucosii_bsp.a(alt_iniche_write.o)
 .debug_str     0x00002d7b       0x12 ../niosII_simple_socket_server_1_bsp/\libucosii_bsp.a(ipnet.o)
 .debug_str     0x00002d8d       0x12 ../niosII_simple_socket_server_1_bsp/\libucosii_bsp.a(ipstart.o)
 .debug_str     0x00002d9f       0x12 ../niosII_simple_socket_server_1_bsp/\libucosii_bsp.a(igmp_cmn.o)
 .debug_str     0x00002db1       0x20 ../niosII_simple_socket_server_1_bsp/\libucosii_bsp.a(bsdsock.o)
 .debug_str     0x00002dd1       0x12 ../niosII_simple_socket_server_1_bsp/\libucosii_bsp.a(cksum.o)
 .debug_str     0x00002de3       0x12 ../niosII_simple_socket_server_1_bsp/\libucosii_bsp.a(in_utils.o)
 .debug_str     0x00002df5       0x12 ../niosII_simple_socket_server_1_bsp/\libucosii_bsp.a(netmain.o)
 .debug_str     0x00002e07       0x12 ../niosII_simple_socket_server_1_bsp/\libucosii_bsp.a(tk_crnos.o)
 .debug_str     0x00002e19       0x12 ../niosII_simple_socket_server_1_bsp/\libucosii_bsp.a(pktalloc.o)
 .debug_str     0x00002e2b       0x12 ../niosII_simple_socket_server_1_bsp/\libucosii_bsp.a(q.o)
 .debug_str     0x00002e3d       0x20 ../niosII_simple_socket_server_1_bsp/\libucosii_bsp.a(brdutils.o)
 .debug_str     0x00002e5d       0x22 ../niosII_simple_socket_server_1_bsp/\libucosii_bsp.a(osportco.o)
 .debug_str     0x00002e7f       0x12 ../niosII_simple_socket_server_1_bsp/\libucosii_bsp.a(targnios.o)
 .debug_str     0x00002e91       0x1e ../niosII_simple_socket_server_1_bsp/\libucosii_bsp.a(nptcp.o)
 .debug_str     0x00002eaf       0x12 ../niosII_simple_socket_server_1_bsp/\libucosii_bsp.a(rawsock.o)
 .debug_str     0x00002ec1       0x34 ../niosII_simple_socket_server_1_bsp/\libucosii_bsp.a(sockcall.o)
 .debug_str     0x00002ef5       0x18 ../niosII_simple_socket_server_1_bsp/\libucosii_bsp.a(socket.o)
 .debug_str     0x00002f0d       0x12 ../niosII_simple_socket_server_1_bsp/\libucosii_bsp.a(socket2.o)
 .debug_str     0x00002f1f       0x12 ../niosII_simple_socket_server_1_bsp/\libucosii_bsp.a(soselect.o)
 .debug_str     0x00002f31       0x12 ../niosII_simple_socket_server_1_bsp/\libucosii_bsp.a(tcp_in.o)
 .debug_str     0x00002f43       0x12 ../niosII_simple_socket_server_1_bsp/\libucosii_bsp.a(tcp_out.o)
 .debug_str     0x00002f55       0x12 ../niosII_simple_socket_server_1_bsp/\libucosii_bsp.a(tcp_subr.o)
 .debug_str     0x00002f67       0x12 ../niosII_simple_socket_server_1_bsp/\libucosii_bsp.a(tcp_timr.o)
 .debug_str     0x00002f79       0x12 ../niosII_simple_socket_server_1_bsp/\libucosii_bsp.a(tcp_usr.o)
 .debug_str     0x00002f8b       0x12 ../niosII_simple_socket_server_1_bsp/\libucosii_bsp.a(tcp_zio.o)
 .debug_str     0x00002f9d       0x12 ../niosII_simple_socket_server_1_bsp/\libucosii_bsp.a(tcpport.o)
 .debug_str     0x00002faf       0x1a ../niosII_simple_socket_server_1_bsp/\libucosii_bsp.a(udpsock.o)
 .debug_str     0x00002fc9       0x23 ../niosII_simple_socket_server_1_bsp/\libucosii_bsp.a(alt_alarm_start.o)
 .debug_str     0x00002fec       0x12 ../niosII_simple_socket_server_1_bsp/\libucosii_bsp.a(alt_busy_sleep.o)
 .debug_str     0x00002ffe       0x12 ../niosII_simple_socket_server_1_bsp/\libucosii_bsp.a(alt_close.o)
 .debug_str     0x00003010       0x12 ../niosII_simple_socket_server_1_bsp/\libucosii_bsp.a(alt_dcache_flush.o)
 .debug_str     0x00003022       0x12 ../niosII_simple_socket_server_1_bsp/\libucosii_bsp.a(alt_dcache_flush_all.o)
 .debug_str     0x00003034       0x12 ../niosII_simple_socket_server_1_bsp/\libucosii_bsp.a(alt_dev.o)
 .debug_str     0x00003046       0x12 ../niosII_simple_socket_server_1_bsp/\libucosii_bsp.a(alt_dev_llist_insert.o)
 .debug_str     0x00003058       0x12 ../niosII_simple_socket_server_1_bsp/\libucosii_bsp.a(alt_errno.o)
 .debug_str     0x0000306a       0x12 ../niosII_simple_socket_server_1_bsp/\libucosii_bsp.a(alt_find_dev.o)
 .debug_str     0x0000307c       0x12 ../niosII_simple_socket_server_1_bsp/\libucosii_bsp.a(alt_icache_flush_all.o)
 .debug_str     0x0000308e       0x18 ../niosII_simple_socket_server_1_bsp/\libucosii_bsp.a(alt_iic.o)
 .debug_str     0x000030a6       0x1a ../niosII_simple_socket_server_1_bsp/\libucosii_bsp.a(alt_iic_isr_register.o)
 .debug_str     0x000030c0       0x12 ../niosII_simple_socket_server_1_bsp/\libucosii_bsp.a(alt_io_redirect.o)
 .debug_str     0x000030d2       0x12 ../niosII_simple_socket_server_1_bsp/\libucosii_bsp.a(alt_irq_handler.o)
 .debug_str     0x000030e4       0x12 ../niosII_simple_socket_server_1_bsp/\libucosii_bsp.a(alt_open.o)
 .debug_str     0x000030f6       0x12 ../niosII_simple_socket_server_1_bsp/\libucosii_bsp.a(alt_read.o)
 .debug_str     0x00003108       0x12 ../niosII_simple_socket_server_1_bsp/\libucosii_bsp.a(alt_release_fd.o)
 .debug_str     0x0000311a       0x12 ../niosII_simple_socket_server_1_bsp/\libucosii_bsp.a(alt_remap_cached.o)
 .debug_str     0x0000312c       0x12 ../niosII_simple_socket_server_1_bsp/\libucosii_bsp.a(alt_remap_uncached.o)
 .debug_str     0x0000313e       0x1a ../niosII_simple_socket_server_1_bsp/\libucosii_bsp.a(alt_tick.o)
 .debug_str     0x00003158       0x12 ../niosII_simple_socket_server_1_bsp/\libucosii_bsp.a(alt_uncached_malloc.o)
 .debug_str     0x0000316a       0x12 ../niosII_simple_socket_server_1_bsp/\libucosii_bsp.a(alt_write.o)
 .debug_str     0x0000317c       0x12 ../niosII_simple_socket_server_1_bsp/\libucosii_bsp.a(altera_nios2_irq.o)
 .debug_str     0x0000318e       0x20 ../niosII_simple_socket_server_1_bsp/\libucosii_bsp.a(os_cpu_c.o)
 .debug_str     0x000031ae       0x76 ../niosII_simple_socket_server_1_bsp/\libucosii_bsp.a(altera_avalon_cfi_flash_amd.o)
 .debug_str     0x00003224       0x7d ../niosII_simple_socket_server_1_bsp/\libucosii_bsp.a(altera_avalon_cfi_flash_intel.o)
 .debug_str     0x000032a1       0x12 ../niosII_simple_socket_server_1_bsp/\libucosii_bsp.a(allports.o)
 .debug_str     0x000032b3       0x1b ../niosII_simple_socket_server_1_bsp/\libucosii_bsp.a(timeouts.o)
 .debug_str     0x000032ce       0x12 ../niosII_simple_socket_server_1_bsp/\libucosii_bsp.a(tk_misc.o)
 .debug_str     0x000032e0       0x12 ../niosII_simple_socket_server_1_bsp/\libucosii_bsp.a(alt_iniche_fcntl.o)
 .debug_str     0x000032f2       0x3d ../niosII_simple_socket_server_1_bsp/\libucosii_bsp.a(et_arp.o)
 .debug_str     0x0000332f       0x12 ../niosII_simple_socket_server_1_bsp/\libucosii_bsp.a(iface.o)
 .debug_str     0x00003341       0x2c ../niosII_simple_socket_server_1_bsp/\libucosii_bsp.a(ip.o)
 .debug_str     0x0000336d       0x4e ../niosII_simple_socket_server_1_bsp/\libucosii_bsp.a(ip_reasm.o)
 .debug_str     0x000033bb       0x12 ../niosII_simple_socket_server_1_bsp/\libucosii_bsp.a(ipdemux.o)
 .debug_str     0x000033cd       0x12 ../niosII_simple_socket_server_1_bsp/\libucosii_bsp.a(ipmc.o)
 .debug_str     0x000033df       0x12 ../niosII_simple_socket_server_1_bsp/\libucosii_bsp.a(ipport.o)
 .debug_str     0x000033f1       0x12 ../niosII_simple_socket_server_1_bsp/\libucosii_bsp.a(ipraw.o)
 .debug_str     0x00003403       0x12 ../niosII_simple_socket_server_1_bsp/\libucosii_bsp.a(iproute.o)
 .debug_str     0x00003415       0x12 ../niosII_simple_socket_server_1_bsp/\libucosii_bsp.a(udp.o)
 .debug_str     0x00003427       0x12 ../niosII_simple_socket_server_1_bsp/\libucosii_bsp.a(igmp.o)
 .debug_str     0x00003439       0x20 ../niosII_simple_socket_server_1_bsp/\libucosii_bsp.a(igmp2.o)
 .debug_str     0x00003459       0x12 ../niosII_simple_socket_server_1_bsp/\libucosii_bsp.a(ipopt.o)
 .debug_str     0x0000346b       0x12 ../niosII_simple_socket_server_1_bsp/\libucosii_bsp.a(u_mctest.o)
 .debug_str     0x0000347d       0x1b ../niosII_simple_socket_server_1_bsp/\libucosii_bsp.a(memdev.o)
 .debug_str     0x00003498       0x12 ../niosII_simple_socket_server_1_bsp/\libucosii_bsp.a(parseip.o)
 .debug_str     0x000034aa       0x12 ../niosII_simple_socket_server_1_bsp/\libucosii_bsp.a(tcpcksum.o)
 .debug_str     0x000034bc       0x12 ../niosII_simple_socket_server_1_bsp/\libucosii_bsp.a(udp_open.o)
 .debug_str     0x000034ce       0x12 ../niosII_simple_socket_server_1_bsp/\libucosii_bsp.a(in_pcb.o)
 .debug_str     0x000034e0       0x2b ../niosII_simple_socket_server_1_bsp/\libucosii_bsp.a(vfsfiles.o)
 .debug_str     0x0000350b       0x12 ../niosII_simple_socket_server_1_bsp/\libucosii_bsp.a(vfsport.o)
 .debug_str     0x0000351d       0x12 ../niosII_simple_socket_server_1_bsp/\libucosii_bsp.a(alt_fcntl.o)
 .debug_str     0x0000352f       0x12 ../niosII_simple_socket_server_1_bsp/\libucosii_bsp.a(alt_find_file.o)
 .debug_str     0x00003541       0x12 ../niosII_simple_socket_server_1_bsp/\libucosii_bsp.a(alt_get_fd.o)
 .debug_str     0x00003553       0x12 ../niosII_simple_socket_server_1_bsp/\libucosii_bsp.a(alt_icache_flush.o)
 .debug_str     0x00003565       0x12 ../niosII_simple_socket_server_1_bsp/\libucosii_bsp.a(icmp.o)
 .debug_str     0x00003577       0x3b c:/altera/12.0/nios2eds/bin/gnu/h-i686-mingw32/bin/../lib/gcc/nios2-elf/4.1.2/../../../../nios2-elf/lib\libc.a(lib_a-atexit.o)
                                0x1bc (size before relaxing)
 .debug_str     0x000035b2       0x46 c:/altera/12.0/nios2eds/bin/gnu/h-i686-mingw32/bin/../lib/gcc/nios2-elf/4.1.2/../../../../nios2-elf/lib\libc.a(lib_a-atoi.o)
                                0x4f9 (size before relaxing)
 .debug_str     0x000035f8       0x42 c:/altera/12.0/nios2eds/bin/gnu/h-i686-mingw32/bin/../lib/gcc/nios2-elf/4.1.2/../../../../nios2-elf/lib\libc.a(lib_a-calloc.o)
                                0x50d (size before relaxing)
 .debug_str     0x0000363a       0x3e c:/altera/12.0/nios2eds/bin/gnu/h-i686-mingw32/bin/../lib/gcc/nios2-elf/4.1.2/../../../../nios2-elf/lib\libc.a(lib_a-exit.o)
                                0x509 (size before relaxing)
 .debug_str     0x00003678       0x45 c:/altera/12.0/nios2eds/bin/gnu/h-i686-mingw32/bin/../lib/gcc/nios2-elf/4.1.2/../../../../nios2-elf/lib\libc.a(lib_a-getc.o)
                                0x50f (size before relaxing)
 .debug_str     0x000036bd       0x42 c:/altera/12.0/nios2eds/bin/gnu/h-i686-mingw32/bin/../lib/gcc/nios2-elf/4.1.2/../../../../nios2-elf/lib\libc.a(lib_a-memcmp.o)
                                0x167 (size before relaxing)
 .debug_str     0x000036ff       0x4a c:/altera/12.0/nios2eds/bin/gnu/h-i686-mingw32/bin/../lib/gcc/nios2-elf/4.1.2/../../../../nios2-elf/lib\libc.a(lib_a-rget.o)
                                0x50d (size before relaxing)
 .debug_str     0x00003749       0x42 c:/altera/12.0/nios2eds/bin/gnu/h-i686-mingw32/bin/../lib/gcc/nios2-elf/4.1.2/../../../../nios2-elf/lib\libc.a(lib_a-strcpy.o)
                                0x182 (size before relaxing)
 .debug_str     0x0000378b       0x44 c:/altera/12.0/nios2eds/bin/gnu/h-i686-mingw32/bin/../lib/gcc/nios2-elf/4.1.2/../../../../nios2-elf/lib\libc.a(lib_a-strncmp.o)
                                0x169 (size before relaxing)
 .debug_str     0x000037cf       0x61 c:/altera/12.0/nios2eds/bin/gnu/h-i686-mingw32/bin/../lib/gcc/nios2-elf/4.1.2/../../../../nios2-elf/lib\libc.a(lib_a-strtol.o)
                                0x53b (size before relaxing)
 .debug_str     0x00003830       0x4e c:/altera/12.0/nios2eds/bin/gnu/h-i686-mingw32/bin/../lib/gcc/nios2-elf/4.1.2/../../../../nios2-elf/lib\libc.a(lib_a-vprintf.o)
                                0x523 (size before relaxing)
 .debug_str     0x0000387e       0x51 c:/altera/12.0/nios2eds/bin/gnu/h-i686-mingw32/bin/../lib/gcc/nios2-elf/4.1.2/../../../../nios2-elf/lib\libc.a(lib_a-vsprintf.o)
                                0x52b (size before relaxing)
 .debug_str     0x000038cf       0x51 c:/altera/12.0/nios2eds/bin/gnu/h-i686-mingw32/bin/../lib/gcc/nios2-elf/4.1.2/../../../../nios2-elf/lib\libc.a(lib_a-__atexit.o)
                                0x521 (size before relaxing)
 .debug_str     0x00003920       0x7b c:/altera/12.0/nios2eds/bin/gnu/h-i686-mingw32/bin/../lib/gcc/nios2-elf/4.1.2/../../../../nios2-elf/lib\libc.a(lib_a-__call_atexit.o)
                                0x54b (size before relaxing)
 .debug_str     0x0000399b       0x4d c:/altera/12.0/nios2eds/bin/gnu/h-i686-mingw32/bin/../lib/gcc/nios2-elf/4.1.2/../../../../nios2-elf/lib\libc.a(lib_a-refill.o)
                                0x517 (size before relaxing)
 .debug_str     0x000039e8       0x1c ../niosII_simple_socket_server_1_bsp/\libucosii_bsp.a(alt_exit.o)

.debug_loc      0x00000000    0x143a1
 *(.debug_loc)
 .debug_loc     0x00000000       0x56 obj/SSS_DE2_115.o
 .debug_loc     0x00000056      0x204 obj/alt_eeprom/alt_2_wire.o
 .debug_loc     0x0000025a       0xd7 obj/alt_eeprom/alt_eeprom.o
 .debug_loc     0x00000331       0x81 obj/alt_error_handler.o
 .debug_loc     0x000003b2      0x1ae obj/iniche_init.o
 .debug_loc     0x00000560       0x56 obj/led.o
 .debug_loc     0x000005b6      0x187 obj/niosII_simple_socket_server.o
 .debug_loc     0x0000073d      0x1d2 c:/altera/12.0/nios2eds/bin/gnu/h-i686-mingw32/bin/../lib/gcc/nios2-elf/4.1.2\libgcc.a(lib2-divmod.o)
 .debug_loc     0x0000090f       0xf1 c:/altera/12.0/nios2eds/bin/gnu/h-i686-mingw32/bin/../lib/gcc/nios2-elf/4.1.2/../../../../nios2-elf/lib\libc.a(lib_a-fprintf.o)
 .debug_loc     0x00000a00      0x18e c:/altera/12.0/nios2eds/bin/gnu/h-i686-mingw32/bin/../lib/gcc/nios2-elf/4.1.2/../../../../nios2-elf/lib\libc.a(lib_a-fwrite.o)
 .debug_loc     0x00000b8e       0x3c c:/altera/12.0/nios2eds/bin/gnu/h-i686-mingw32/bin/../lib/gcc/nios2-elf/4.1.2/../../../../nios2-elf/lib\libc.a(lib_a-malloc.o)
 .debug_loc     0x00000bca      0xaeb c:/altera/12.0/nios2eds/bin/gnu/h-i686-mingw32/bin/../lib/gcc/nios2-elf/4.1.2/../../../../nios2-elf/lib\libc.a(lib_a-mallocr.o)
 .debug_loc     0x000016b5       0xca c:/altera/12.0/nios2eds/bin/gnu/h-i686-mingw32/bin/../lib/gcc/nios2-elf/4.1.2/../../../../nios2-elf/lib\libc.a(lib_a-memcpy.o)
 .debug_loc     0x0000177f      0x117 c:/altera/12.0/nios2eds/bin/gnu/h-i686-mingw32/bin/../lib/gcc/nios2-elf/4.1.2/../../../../nios2-elf/lib\libc.a(lib_a-memmove.o)
 .debug_loc     0x00001896       0xa1 c:/altera/12.0/nios2eds/bin/gnu/h-i686-mingw32/bin/../lib/gcc/nios2-elf/4.1.2/../../../../nios2-elf/lib\libc.a(lib_a-memset.o)
 .debug_loc     0x00001937       0xa2 c:/altera/12.0/nios2eds/bin/gnu/h-i686-mingw32/bin/../lib/gcc/nios2-elf/4.1.2/../../../../nios2-elf/lib\libc.a(lib_a-perror.o)
 .debug_loc     0x000019d9       0xcb c:/altera/12.0/nios2eds/bin/gnu/h-i686-mingw32/bin/../lib/gcc/nios2-elf/4.1.2/../../../../nios2-elf/lib\libc.a(lib_a-printf.o)
 .debug_loc     0x00001aa4       0x44 c:/altera/12.0/nios2eds/bin/gnu/h-i686-mingw32/bin/../lib/gcc/nios2-elf/4.1.2/../../../../nios2-elf/lib\libc.a(lib_a-putchar.o)
 .debug_loc     0x00001ae8       0xa2 c:/altera/12.0/nios2eds/bin/gnu/h-i686-mingw32/bin/../lib/gcc/nios2-elf/4.1.2/../../../../nios2-elf/lib\libc.a(lib_a-puts.o)
 .debug_loc     0x00001b8a       0x5b c:/altera/12.0/nios2eds/bin/gnu/h-i686-mingw32/bin/../lib/gcc/nios2-elf/4.1.2/../../../../nios2-elf/lib\libc.a(lib_a-sbrkr.o)
 .debug_loc     0x00001be5       0xc0 c:/altera/12.0/nios2eds/bin/gnu/h-i686-mingw32/bin/../lib/gcc/nios2-elf/4.1.2/../../../../nios2-elf/lib\libc.a(lib_a-sprintf.o)
 .debug_loc     0x00001ca5       0xf3 c:/altera/12.0/nios2eds/bin/gnu/h-i686-mingw32/bin/../lib/gcc/nios2-elf/4.1.2/../../../../nios2-elf/lib\libc.a(lib_a-strchr.o)
 .debug_loc     0x00001d98      0x418 c:/altera/12.0/nios2eds/bin/gnu/h-i686-mingw32/bin/../lib/gcc/nios2-elf/4.1.2/../../../../nios2-elf/lib\libc.a(lib_a-strerror.o)
 .debug_loc     0x000021b0       0x3c c:/altera/12.0/nios2eds/bin/gnu/h-i686-mingw32/bin/../lib/gcc/nios2-elf/4.1.2/../../../../nios2-elf/lib\libc.a(lib_a-strlen.o)
 .debug_loc     0x000021ec     0x1e0d c:/altera/12.0/nios2eds/bin/gnu/h-i686-mingw32/bin/../lib/gcc/nios2-elf/4.1.2/../../../../nios2-elf/lib\libc.a(lib_a-vfprintf.o)
 .debug_loc     0x00003ff9       0x7c c:/altera/12.0/nios2eds/bin/gnu/h-i686-mingw32/bin/../lib/gcc/nios2-elf/4.1.2/../../../../nios2-elf/lib\libc.a(lib_a-wsetup.o)
 .debug_loc     0x00004075     0x1dfa c:/altera/12.0/nios2eds/bin/gnu/h-i686-mingw32/bin/../lib/gcc/nios2-elf/4.1.2/../../../../nios2-elf/lib\libc.a(lib_a-dtoa.o)
 .debug_loc     0x00005e6f      0x1f6 c:/altera/12.0/nios2eds/bin/gnu/h-i686-mingw32/bin/../lib/gcc/nios2-elf/4.1.2/../../../../nios2-elf/lib\libc.a(lib_a-fflush.o)
 .debug_loc     0x00006065      0x19f c:/altera/12.0/nios2eds/bin/gnu/h-i686-mingw32/bin/../lib/gcc/nios2-elf/4.1.2/../../../../nios2-elf/lib\libc.a(lib_a-findfp.o)
 .debug_loc     0x00006204      0x14d c:/altera/12.0/nios2eds/bin/gnu/h-i686-mingw32/bin/../lib/gcc/nios2-elf/4.1.2/../../../../nios2-elf/lib\libc.a(lib_a-fputc.o)
 .debug_loc     0x00006351       0xcb c:/altera/12.0/nios2eds/bin/gnu/h-i686-mingw32/bin/../lib/gcc/nios2-elf/4.1.2/../../../../nios2-elf/lib\libc.a(lib_a-fputs.o)
 .debug_loc     0x0000641c      0x4a7 c:/altera/12.0/nios2eds/bin/gnu/h-i686-mingw32/bin/../lib/gcc/nios2-elf/4.1.2/../../../../nios2-elf/lib\libc.a(lib_a-freer.o)
 .debug_loc     0x000068c3      0x4e4 c:/altera/12.0/nios2eds/bin/gnu/h-i686-mingw32/bin/../lib/gcc/nios2-elf/4.1.2/../../../../nios2-elf/lib\libc.a(lib_a-fvwrite.o)
 .debug_loc     0x00006da7      0x1d2 c:/altera/12.0/nios2eds/bin/gnu/h-i686-mingw32/bin/../lib/gcc/nios2-elf/4.1.2/../../../../nios2-elf/lib\libc.a(lib_a-fwalk.o)
 .debug_loc     0x00006f79       0xe1 c:/altera/12.0/nios2eds/bin/gnu/h-i686-mingw32/bin/../lib/gcc/nios2-elf/4.1.2/../../../../nios2-elf/lib\libc.a(lib_a-locale.o)
 .debug_loc     0x0000705a      0x11c c:/altera/12.0/nios2eds/bin/gnu/h-i686-mingw32/bin/../lib/gcc/nios2-elf/4.1.2/../../../../nios2-elf/lib\libc.a(lib_a-makebuf.o)
 .debug_loc     0x00007176      0x106 c:/altera/12.0/nios2eds/bin/gnu/h-i686-mingw32/bin/../lib/gcc/nios2-elf/4.1.2/../../../../nios2-elf/lib\libc.a(lib_a-memchr.o)
 .debug_loc     0x0000727c     0x14d6 c:/altera/12.0/nios2eds/bin/gnu/h-i686-mingw32/bin/../lib/gcc/nios2-elf/4.1.2/../../../../nios2-elf/lib\libc.a(lib_a-mprec.o)
 .debug_loc     0x00008752      0x20d c:/altera/12.0/nios2eds/bin/gnu/h-i686-mingw32/bin/../lib/gcc/nios2-elf/4.1.2/../../../../nios2-elf/lib\libc.a(lib_a-putc.o)
 .debug_loc     0x0000895f      0x8c0 c:/altera/12.0/nios2eds/bin/gnu/h-i686-mingw32/bin/../lib/gcc/nios2-elf/4.1.2/../../../../nios2-elf/lib\libc.a(lib_a-reallocr.o)
 .debug_loc     0x0000921f       0x36 c:/altera/12.0/nios2eds/bin/gnu/h-i686-mingw32/bin/../lib/gcc/nios2-elf/4.1.2/../../../../nios2-elf/lib\libc.a(lib_a-s_isinfd.o)
 .debug_loc     0x00009255       0x18 c:/altera/12.0/nios2eds/bin/gnu/h-i686-mingw32/bin/../lib/gcc/nios2-elf/4.1.2/../../../../nios2-elf/lib\libc.a(lib_a-s_isnand.o)
 .debug_loc     0x0000926d      0x21f c:/altera/12.0/nios2eds/bin/gnu/h-i686-mingw32/bin/../lib/gcc/nios2-elf/4.1.2/../../../../nios2-elf/lib\libc.a(lib_a-stdio.o)
 .debug_loc     0x0000948c       0x65 c:/altera/12.0/nios2eds/bin/gnu/h-i686-mingw32/bin/../lib/gcc/nios2-elf/4.1.2/../../../../nios2-elf/lib\libc.a(lib_a-strcmp.o)
 .debug_loc     0x000094f1      0x157 c:/altera/12.0/nios2eds/bin/gnu/h-i686-mingw32/bin/../lib/gcc/nios2-elf/4.1.2/../../../../nios2-elf/lib\libc.a(lib_a-wbuf.o)
 .debug_loc     0x00009648       0x97 c:/altera/12.0/nios2eds/bin/gnu/h-i686-mingw32/bin/../lib/gcc/nios2-elf/4.1.2/../../../../nios2-elf/lib\libc.a(lib_a-writer.o)
 .debug_loc     0x000096df       0xe9 c:/altera/12.0/nios2eds/bin/gnu/h-i686-mingw32/bin/../lib/gcc/nios2-elf/4.1.2/../../../../nios2-elf/lib\libc.a(lib_a-callocr.o)
 .debug_loc     0x000097c8       0x5b c:/altera/12.0/nios2eds/bin/gnu/h-i686-mingw32/bin/../lib/gcc/nios2-elf/4.1.2/../../../../nios2-elf/lib\libc.a(lib_a-closer.o)
 .debug_loc     0x00009823       0xe4 c:/altera/12.0/nios2eds/bin/gnu/h-i686-mingw32/bin/../lib/gcc/nios2-elf/4.1.2/../../../../nios2-elf/lib\libc.a(lib_a-fclose.o)
 .debug_loc     0x00009907       0x79 c:/altera/12.0/nios2eds/bin/gnu/h-i686-mingw32/bin/../lib/gcc/nios2-elf/4.1.2/../../../../nios2-elf/lib\libc.a(lib_a-fstatr.o)
 .debug_loc     0x00009980       0x5b c:/altera/12.0/nios2eds/bin/gnu/h-i686-mingw32/bin/../lib/gcc/nios2-elf/4.1.2/../../../../nios2-elf/lib\libc.a(lib_a-isattyr.o)
 .debug_loc     0x000099db       0x97 c:/altera/12.0/nios2eds/bin/gnu/h-i686-mingw32/bin/../lib/gcc/nios2-elf/4.1.2/../../../../nios2-elf/lib\libc.a(lib_a-lseekr.o)
 .debug_loc     0x00009a72       0x97 c:/altera/12.0/nios2eds/bin/gnu/h-i686-mingw32/bin/../lib/gcc/nios2-elf/4.1.2/../../../../nios2-elf/lib\libc.a(lib_a-readr.o)
 .debug_loc     0x00009b09      0xc12 c:/altera/12.0/nios2eds/bin/gnu/h-i686-mingw32/bin/../lib/gcc/nios2-elf/4.1.2\libgcc.a(_udivdi3.o)
 .debug_loc     0x0000a71b      0xc31 c:/altera/12.0/nios2eds/bin/gnu/h-i686-mingw32/bin/../lib/gcc/nios2-elf/4.1.2\libgcc.a(_umoddi3.o)
 .debug_loc     0x0000b34c      0x47a c:/altera/12.0/nios2eds/bin/gnu/h-i686-mingw32/bin/../lib/gcc/nios2-elf/4.1.2\libgcc.a(_addsub_df.o)
 .debug_loc     0x0000b7c6      0x3b4 c:/altera/12.0/nios2eds/bin/gnu/h-i686-mingw32/bin/../lib/gcc/nios2-elf/4.1.2\libgcc.a(_mul_df.o)
 .debug_loc     0x0000bb7a      0x1df c:/altera/12.0/nios2eds/bin/gnu/h-i686-mingw32/bin/../lib/gcc/nios2-elf/4.1.2\libgcc.a(_div_df.o)
 .debug_loc     0x0000bd59       0x70 c:/altera/12.0/nios2eds/bin/gnu/h-i686-mingw32/bin/../lib/gcc/nios2-elf/4.1.2\libgcc.a(_eq_df.o)
 .debug_loc     0x0000bdc9       0x70 c:/altera/12.0/nios2eds/bin/gnu/h-i686-mingw32/bin/../lib/gcc/nios2-elf/4.1.2\libgcc.a(_ne_df.o)
 .debug_loc     0x0000be39       0x70 c:/altera/12.0/nios2eds/bin/gnu/h-i686-mingw32/bin/../lib/gcc/nios2-elf/4.1.2\libgcc.a(_gt_df.o)
 .debug_loc     0x0000bea9       0x70 c:/altera/12.0/nios2eds/bin/gnu/h-i686-mingw32/bin/../lib/gcc/nios2-elf/4.1.2\libgcc.a(_ge_df.o)
 .debug_loc     0x0000bf19       0x70 c:/altera/12.0/nios2eds/bin/gnu/h-i686-mingw32/bin/../lib/gcc/nios2-elf/4.1.2\libgcc.a(_lt_df.o)
 .debug_loc     0x0000bf89       0x9a c:/altera/12.0/nios2eds/bin/gnu/h-i686-mingw32/bin/../lib/gcc/nios2-elf/4.1.2\libgcc.a(_si_to_df.o)
 .debug_loc     0x0000c023       0x8b c:/altera/12.0/nios2eds/bin/gnu/h-i686-mingw32/bin/../lib/gcc/nios2-elf/4.1.2\libgcc.a(_df_to_si.o)
 .debug_loc     0x0000c0ae       0x5b c:/altera/12.0/nios2eds/bin/gnu/h-i686-mingw32/bin/../lib/gcc/nios2-elf/4.1.2\libgcc.a(_usi_to_df.o)
 .debug_loc     0x0000c109       0xc4 c:/altera/12.0/nios2eds/bin/gnu/h-i686-mingw32/bin/../lib/gcc/nios2-elf/4.1.2\libgcc.a(_muldi3.o)
 .debug_loc     0x0000c1cd       0x1e c:/altera/12.0/nios2eds/bin/gnu/h-i686-mingw32/bin/../lib/gcc/nios2-elf/4.1.2\libgcc.a(_clzsi2.o)
 .debug_loc     0x0000c1eb      0x184 c:/altera/12.0/nios2eds/bin/gnu/h-i686-mingw32/bin/../lib/gcc/nios2-elf/4.1.2\libgcc.a(_pack_df.o)
 .debug_loc     0x0000c36f       0xe5 c:/altera/12.0/nios2eds/bin/gnu/h-i686-mingw32/bin/../lib/gcc/nios2-elf/4.1.2\libgcc.a(_unpack_df.o)
 .debug_loc     0x0000c454       0x56 ../niosII_simple_socket_server_1_bsp/\libucosii_bsp.a(alt_flash_dev.o)
 .debug_loc     0x0000c4aa       0x56 ../niosII_simple_socket_server_1_bsp/\libucosii_bsp.a(alt_fstat.o)
 .debug_loc     0x0000c500       0x57 ../niosII_simple_socket_server_1_bsp/\libucosii_bsp.a(alt_isatty.o)
 .debug_loc     0x0000c557       0x56 ../niosII_simple_socket_server_1_bsp/\libucosii_bsp.a(alt_load.o)
 .debug_loc     0x0000c5ad       0x56 ../niosII_simple_socket_server_1_bsp/\libucosii_bsp.a(alt_lseek.o)
 .debug_loc     0x0000c603       0x2b ../niosII_simple_socket_server_1_bsp/\libucosii_bsp.a(alt_main.o)
 .debug_loc     0x0000c62e       0x2b ../niosII_simple_socket_server_1_bsp/\libucosii_bsp.a(alt_sbrk.o)
 .debug_loc     0x0000c659       0x2b ../niosII_simple_socket_server_1_bsp/\libucosii_bsp.a(alt_usleep.o)
 .debug_loc     0x0000c684       0x57 ../niosII_simple_socket_server_1_bsp/\libucosii_bsp.a(alt_env_lock.o)
 .debug_loc     0x0000c6db       0x57 ../niosII_simple_socket_server_1_bsp/\libucosii_bsp.a(alt_malloc_lock.o)
 .debug_loc     0x0000c732      0x5e2 ../niosII_simple_socket_server_1_bsp/\libucosii_bsp.a(os_core.o)
 .debug_loc     0x0000cd14       0x2b ../niosII_simple_socket_server_1_bsp/\libucosii_bsp.a(os_dbg.o)
 .debug_loc     0x0000cd3f      0x232 ../niosII_simple_socket_server_1_bsp/\libucosii_bsp.a(os_flag.o)
 .debug_loc     0x0000cf71      0x158 ../niosII_simple_socket_server_1_bsp/\libucosii_bsp.a(os_mbox.o)
 .debug_loc     0x0000d0c9      0x12d ../niosII_simple_socket_server_1_bsp/\libucosii_bsp.a(os_mem.o)
 .debug_loc     0x0000d1f6      0x1da ../niosII_simple_socket_server_1_bsp/\libucosii_bsp.a(os_q.o)
 .debug_loc     0x0000d3d0      0x158 ../niosII_simple_socket_server_1_bsp/\libucosii_bsp.a(os_sem.o)
 .debug_loc     0x0000d528      0x207 ../niosII_simple_socket_server_1_bsp/\libucosii_bsp.a(os_task.o)
 .debug_loc     0x0000d72f       0xd7 ../niosII_simple_socket_server_1_bsp/\libucosii_bsp.a(os_time.o)
 .debug_loc     0x0000d806       0x81 ../niosII_simple_socket_server_1_bsp/\libucosii_bsp.a(alt_sys_init.o)
 .debug_loc     0x0000d887      0x12e ../niosII_simple_socket_server_1_bsp/\libucosii_bsp.a(altera_avalon_cfi_flash.o)
 .debug_loc     0x0000d9b5      0x306 ../niosII_simple_socket_server_1_bsp/\libucosii_bsp.a(altera_avalon_cfi_flash_table.o)
 .debug_loc     0x0000dcbb       0xac ../niosII_simple_socket_server_1_bsp/\libucosii_bsp.a(altera_avalon_jtag_uart_fd.o)
 .debug_loc     0x0000dd67       0xac ../niosII_simple_socket_server_1_bsp/\libucosii_bsp.a(altera_avalon_jtag_uart_init.o)
 .debug_loc     0x0000de13       0x2b ../niosII_simple_socket_server_1_bsp/\libucosii_bsp.a(altera_avalon_jtag_uart_ioctl.o)
 .debug_loc     0x0000de3e       0x2c ../niosII_simple_socket_server_1_bsp/\libucosii_bsp.a(altera_avalon_jtag_uart_read.o)
 .debug_loc     0x0000de6a       0x2c ../niosII_simple_socket_server_1_bsp/\libucosii_bsp.a(altera_avalon_jtag_uart_write.o)
 .debug_loc     0x0000de96      0x184 ../niosII_simple_socket_server_1_bsp/\libucosii_bsp.a(altera_avalon_lcd_16207.o)
 .debug_loc     0x0000e01a       0x2b ../niosII_simple_socket_server_1_bsp/\libucosii_bsp.a(altera_avalon_lcd_16207_fd.o)
 .debug_loc     0x0000e045      0x35c ../niosII_simple_socket_server_1_bsp/\libucosii_bsp.a(altera_avalon_sgdma.o)
 .debug_loc     0x0000e3a1       0x56 ../niosII_simple_socket_server_1_bsp/\libucosii_bsp.a(altera_avalon_timer_sc.o)
 .debug_loc     0x0000e3f7      0x73d ../niosII_simple_socket_server_1_bsp/\libucosii_bsp.a(altera_avalon_tse.o)
 .debug_loc     0x0000eb34       0x81 ../niosII_simple_socket_server_1_bsp/\libucosii_bsp.a(altera_avalon_uart_fd.o)
 .debug_loc     0x0000ebb5       0xd8 ../niosII_simple_socket_server_1_bsp/\libucosii_bsp.a(altera_avalon_uart_init.o)
 .debug_loc     0x0000ec8d       0x57 ../niosII_simple_socket_server_1_bsp/\libucosii_bsp.a(altera_avalon_uart_read.o)
 .debug_loc     0x0000ece4       0x57 ../niosII_simple_socket_server_1_bsp/\libucosii_bsp.a(altera_avalon_uart_write.o)
 .debug_loc     0x0000ed3b      0x185 ../niosII_simple_socket_server_1_bsp/\libucosii_bsp.a(ins_tse_mac.o)
 .debug_loc     0x0000eec0       0x2b ../niosII_simple_socket_server_1_bsp/\libucosii_bsp.a(alt_iniche_close.o)
 .debug_loc     0x0000eeeb       0x2b ../niosII_simple_socket_server_1_bsp/\libucosii_bsp.a(alt_iniche_dev.o)
 .debug_loc     0x0000ef16       0x2b ../niosII_simple_socket_server_1_bsp/\libucosii_bsp.a(alt_iniche_read.o)
 .debug_loc     0x0000ef41       0x2b ../niosII_simple_socket_server_1_bsp/\libucosii_bsp.a(alt_iniche_write.o)
 .debug_loc     0x0000ef6c      0x102 ../niosII_simple_socket_server_1_bsp/\libucosii_bsp.a(ipnet.o)
 .debug_loc     0x0000f06e       0xac ../niosII_simple_socket_server_1_bsp/\libucosii_bsp.a(ipstart.o)
 .debug_loc     0x0000f11a      0x159 ../niosII_simple_socket_server_1_bsp/\libucosii_bsp.a(igmp_cmn.o)
 .debug_loc     0x0000f273      0x1af ../niosII_simple_socket_server_1_bsp/\libucosii_bsp.a(bsdsock.o)
 .debug_loc     0x0000f422       0x56 ../niosII_simple_socket_server_1_bsp/\libucosii_bsp.a(cksum.o)
 .debug_loc     0x0000f478      0x204 ../niosII_simple_socket_server_1_bsp/\libucosii_bsp.a(in_utils.o)
 .debug_loc     0x0000f67c       0x81 ../niosII_simple_socket_server_1_bsp/\libucosii_bsp.a(netmain.o)
 .debug_loc     0x0000f6fd      0x12f ../niosII_simple_socket_server_1_bsp/\libucosii_bsp.a(tk_crnos.o)
 .debug_loc     0x0000f82c      0x102 ../niosII_simple_socket_server_1_bsp/\libucosii_bsp.a(pktalloc.o)
 .debug_loc     0x0000f92e       0x81 ../niosII_simple_socket_server_1_bsp/\libucosii_bsp.a(q.o)
 .debug_loc     0x0000f9af      0x158 ../niosII_simple_socket_server_1_bsp/\libucosii_bsp.a(brdutils.o)
 .debug_loc     0x0000fb07       0xd8 ../niosII_simple_socket_server_1_bsp/\libucosii_bsp.a(osportco.o)
 .debug_loc     0x0000fbdf      0x183 ../niosII_simple_socket_server_1_bsp/\libucosii_bsp.a(targnios.o)
 .debug_loc     0x0000fd62      0x306 ../niosII_simple_socket_server_1_bsp/\libucosii_bsp.a(nptcp.o)
 .debug_loc     0x00010068       0x82 ../niosII_simple_socket_server_1_bsp/\libucosii_bsp.a(rawsock.o)
 .debug_loc     0x000100ea      0x332 ../niosII_simple_socket_server_1_bsp/\libucosii_bsp.a(sockcall.o)
 .debug_loc     0x0001041c      0x2b1 ../niosII_simple_socket_server_1_bsp/\libucosii_bsp.a(socket.o)
 .debug_loc     0x000106cd      0x3dd ../niosII_simple_socket_server_1_bsp/\libucosii_bsp.a(socket2.o)
 .debug_loc     0x00010aaa      0x184 ../niosII_simple_socket_server_1_bsp/\libucosii_bsp.a(soselect.o)
 .debug_loc     0x00010c2e      0x12e ../niosII_simple_socket_server_1_bsp/\libucosii_bsp.a(tcp_in.o)
 .debug_loc     0x00010d5c       0x82 ../niosII_simple_socket_server_1_bsp/\libucosii_bsp.a(tcp_out.o)
 .debug_loc     0x00010dde      0x183 ../niosII_simple_socket_server_1_bsp/\libucosii_bsp.a(tcp_subr.o)
 .debug_loc     0x00010f61       0x81 ../niosII_simple_socket_server_1_bsp/\libucosii_bsp.a(tcp_timr.o)
 .debug_loc     0x00010fe2       0xac ../niosII_simple_socket_server_1_bsp/\libucosii_bsp.a(tcp_usr.o)
 .debug_loc     0x0001108e       0xac ../niosII_simple_socket_server_1_bsp/\libucosii_bsp.a(tcp_zio.o)
 .debug_loc     0x0001113a       0x2b ../niosII_simple_socket_server_1_bsp/\libucosii_bsp.a(tcpport.o)
 .debug_loc     0x00011165      0x102 ../niosII_simple_socket_server_1_bsp/\libucosii_bsp.a(udpsock.o)
 .debug_loc     0x00011267       0x2b ../niosII_simple_socket_server_1_bsp/\libucosii_bsp.a(alt_alarm_start.o)
 .debug_loc     0x00011292       0x2b ../niosII_simple_socket_server_1_bsp/\libucosii_bsp.a(alt_busy_sleep.o)
 .debug_loc     0x000112bd       0x56 ../niosII_simple_socket_server_1_bsp/\libucosii_bsp.a(alt_close.o)
 .debug_loc     0x00011313       0x2b ../niosII_simple_socket_server_1_bsp/\libucosii_bsp.a(alt_dcache_flush.o)
 .debug_loc     0x0001133e       0x2b ../niosII_simple_socket_server_1_bsp/\libucosii_bsp.a(alt_dcache_flush_all.o)
 .debug_loc     0x00011369       0x2b ../niosII_simple_socket_server_1_bsp/\libucosii_bsp.a(alt_dev.o)
 .debug_loc     0x00011394       0x56 ../niosII_simple_socket_server_1_bsp/\libucosii_bsp.a(alt_dev_llist_insert.o)
 .debug_loc     0x000113ea       0x2b ../niosII_simple_socket_server_1_bsp/\libucosii_bsp.a(alt_do_ctors.o)
 .debug_loc     0x00011415       0x2b ../niosII_simple_socket_server_1_bsp/\libucosii_bsp.a(alt_do_dtors.o)
 .debug_loc     0x00011440       0x2b ../niosII_simple_socket_server_1_bsp/\libucosii_bsp.a(alt_find_dev.o)
 .debug_loc     0x0001146b       0x2b ../niosII_simple_socket_server_1_bsp/\libucosii_bsp.a(alt_icache_flush_all.o)
 .debug_loc     0x00011496       0xac ../niosII_simple_socket_server_1_bsp/\libucosii_bsp.a(alt_iic.o)
 .debug_loc     0x00011542       0x2b ../niosII_simple_socket_server_1_bsp/\libucosii_bsp.a(alt_iic_isr_register.o)
 .debug_loc     0x0001156d       0x56 ../niosII_simple_socket_server_1_bsp/\libucosii_bsp.a(alt_io_redirect.o)
 .debug_loc     0x000115c3       0x2b ../niosII_simple_socket_server_1_bsp/\libucosii_bsp.a(alt_irq_handler.o)
 .debug_loc     0x000115ee       0x81 ../niosII_simple_socket_server_1_bsp/\libucosii_bsp.a(alt_open.o)
 .debug_loc     0x0001166f       0x56 ../niosII_simple_socket_server_1_bsp/\libucosii_bsp.a(alt_read.o)
 .debug_loc     0x000116c5       0x2b ../niosII_simple_socket_server_1_bsp/\libucosii_bsp.a(alt_release_fd.o)
 .debug_loc     0x000116f0       0x2b ../niosII_simple_socket_server_1_bsp/\libucosii_bsp.a(alt_remap_cached.o)
 .debug_loc     0x0001171b       0x2b ../niosII_simple_socket_server_1_bsp/\libucosii_bsp.a(alt_remap_uncached.o)
 .debug_loc     0x00011746       0x56 ../niosII_simple_socket_server_1_bsp/\libucosii_bsp.a(alt_tick.o)
 .debug_loc     0x0001179c       0x2b ../niosII_simple_socket_server_1_bsp/\libucosii_bsp.a(alt_uncached_malloc.o)
 .debug_loc     0x000117c7       0x56 ../niosII_simple_socket_server_1_bsp/\libucosii_bsp.a(alt_write.o)
 .debug_loc     0x0001181d       0x2b ../niosII_simple_socket_server_1_bsp/\libucosii_bsp.a(altera_nios2_irq.o)
 .debug_loc     0x00011848      0x1ae ../niosII_simple_socket_server_1_bsp/\libucosii_bsp.a(os_cpu_c.o)
 .debug_loc     0x000119f6       0xac ../niosII_simple_socket_server_1_bsp/\libucosii_bsp.a(altera_avalon_cfi_flash_amd.o)
 .debug_loc     0x00011aa2       0xac ../niosII_simple_socket_server_1_bsp/\libucosii_bsp.a(altera_avalon_cfi_flash_intel.o)
 .debug_loc     0x00011b4e      0x12d ../niosII_simple_socket_server_1_bsp/\libucosii_bsp.a(allports.o)
 .debug_loc     0x00011c7b       0xac ../niosII_simple_socket_server_1_bsp/\libucosii_bsp.a(timeouts.o)
 .debug_loc     0x00011d27       0x56 ../niosII_simple_socket_server_1_bsp/\libucosii_bsp.a(tk_misc.o)
 .debug_loc     0x00011d7d       0x2b ../niosII_simple_socket_server_1_bsp/\libucosii_bsp.a(alt_iniche_fcntl.o)
 .debug_loc     0x00011da8      0x204 ../niosII_simple_socket_server_1_bsp/\libucosii_bsp.a(et_arp.o)
 .debug_loc     0x00011fac       0xac ../niosII_simple_socket_server_1_bsp/\libucosii_bsp.a(iface.o)
 .debug_loc     0x00012058      0x207 ../niosII_simple_socket_server_1_bsp/\libucosii_bsp.a(ip.o)
 .debug_loc     0x0001225f      0x2b2 ../niosII_simple_socket_server_1_bsp/\libucosii_bsp.a(ip_reasm.o)
 .debug_loc     0x00012511       0x81 ../niosII_simple_socket_server_1_bsp/\libucosii_bsp.a(ipdemux.o)
 .debug_loc     0x00012592       0x81 ../niosII_simple_socket_server_1_bsp/\libucosii_bsp.a(ipmc.o)
 .debug_loc     0x00012613       0x81 ../niosII_simple_socket_server_1_bsp/\libucosii_bsp.a(ipport.o)
 .debug_loc     0x00012694      0x102 ../niosII_simple_socket_server_1_bsp/\libucosii_bsp.a(ipraw.o)
 .debug_loc     0x00012796       0x81 ../niosII_simple_socket_server_1_bsp/\libucosii_bsp.a(iproute.o)
 .debug_loc     0x00012817      0x12f ../niosII_simple_socket_server_1_bsp/\libucosii_bsp.a(udp.o)
 .debug_loc     0x00012946       0x2b ../niosII_simple_socket_server_1_bsp/\libucosii_bsp.a(igmp.o)
 .debug_loc     0x00012971       0xd7 ../niosII_simple_socket_server_1_bsp/\libucosii_bsp.a(igmp2.o)
 .debug_loc     0x00012a48       0xac ../niosII_simple_socket_server_1_bsp/\libucosii_bsp.a(ipopt.o)
 .debug_loc     0x00012af4       0x57 ../niosII_simple_socket_server_1_bsp/\libucosii_bsp.a(u_mctest.o)
 .debug_loc     0x00012b4b      0x183 ../niosII_simple_socket_server_1_bsp/\libucosii_bsp.a(memdev.o)
 .debug_loc     0x00012cce      0x183 ../niosII_simple_socket_server_1_bsp/\libucosii_bsp.a(parseip.o)
 .debug_loc     0x00012e51       0x2b ../niosII_simple_socket_server_1_bsp/\libucosii_bsp.a(tcpcksum.o)
 .debug_loc     0x00012e7c       0x56 ../niosII_simple_socket_server_1_bsp/\libucosii_bsp.a(udp_open.o)
 .debug_loc     0x00012ed2      0x158 ../niosII_simple_socket_server_1_bsp/\libucosii_bsp.a(in_pcb.o)
 .debug_loc     0x0001302a      0x4b4 ../niosII_simple_socket_server_1_bsp/\libucosii_bsp.a(vfsfiles.o)
 .debug_loc     0x000134de       0x2b ../niosII_simple_socket_server_1_bsp/\libucosii_bsp.a(vfsport.o)
 .debug_loc     0x00013509       0x56 ../niosII_simple_socket_server_1_bsp/\libucosii_bsp.a(alt_fcntl.o)
 .debug_loc     0x0001355f       0x2b ../niosII_simple_socket_server_1_bsp/\libucosii_bsp.a(alt_find_file.o)
 .debug_loc     0x0001358a       0x2b ../niosII_simple_socket_server_1_bsp/\libucosii_bsp.a(alt_get_fd.o)
 .debug_loc     0x000135b5       0x2b ../niosII_simple_socket_server_1_bsp/\libucosii_bsp.a(alt_icache_flush.o)
 .debug_loc     0x000135e0       0xad ../niosII_simple_socket_server_1_bsp/\libucosii_bsp.a(icmp.o)
 .debug_loc     0x0001368d       0x1e c:/altera/12.0/nios2eds/bin/gnu/h-i686-mingw32/bin/../lib/gcc/nios2-elf/4.1.2/../../../../nios2-elf/lib\libc.a(lib_a-atexit.o)
 .debug_loc     0x000136ab       0x39 c:/altera/12.0/nios2eds/bin/gnu/h-i686-mingw32/bin/../lib/gcc/nios2-elf/4.1.2/../../../../nios2-elf/lib\libc.a(lib_a-atoi.o)
 .debug_loc     0x000136e4       0x3c c:/altera/12.0/nios2eds/bin/gnu/h-i686-mingw32/bin/../lib/gcc/nios2-elf/4.1.2/../../../../nios2-elf/lib\libc.a(lib_a-calloc.o)
 .debug_loc     0x00013720       0x3d c:/altera/12.0/nios2eds/bin/gnu/h-i686-mingw32/bin/../lib/gcc/nios2-elf/4.1.2/../../../../nios2-elf/lib\libc.a(lib_a-exit.o)
 .debug_loc     0x0001375d      0x10b c:/altera/12.0/nios2eds/bin/gnu/h-i686-mingw32/bin/../lib/gcc/nios2-elf/4.1.2/../../../../nios2-elf/lib\libc.a(lib_a-getc.o)
 .debug_loc     0x00013868      0x114 c:/altera/12.0/nios2eds/bin/gnu/h-i686-mingw32/bin/../lib/gcc/nios2-elf/4.1.2/../../../../nios2-elf/lib\libc.a(lib_a-memcmp.o)
 .debug_loc     0x0001397c       0x6e c:/altera/12.0/nios2eds/bin/gnu/h-i686-mingw32/bin/../lib/gcc/nios2-elf/4.1.2/../../../../nios2-elf/lib\libc.a(lib_a-rget.o)
 .debug_loc     0x000139ea       0x8b c:/altera/12.0/nios2eds/bin/gnu/h-i686-mingw32/bin/../lib/gcc/nios2-elf/4.1.2/../../../../nios2-elf/lib\libc.a(lib_a-strcpy.o)
 .debug_loc     0x00013a75       0x78 c:/altera/12.0/nios2eds/bin/gnu/h-i686-mingw32/bin/../lib/gcc/nios2-elf/4.1.2/../../../../nios2-elf/lib\libc.a(lib_a-strncmp.o)
 .debug_loc     0x00013aed      0x346 c:/altera/12.0/nios2eds/bin/gnu/h-i686-mingw32/bin/../lib/gcc/nios2-elf/4.1.2/../../../../nios2-elf/lib\libc.a(lib_a-strtol.o)
 .debug_loc     0x00013e33       0x8b c:/altera/12.0/nios2eds/bin/gnu/h-i686-mingw32/bin/../lib/gcc/nios2-elf/4.1.2/../../../../nios2-elf/lib\libc.a(lib_a-vprintf.o)
 .debug_loc     0x00013ebe       0xd1 c:/altera/12.0/nios2eds/bin/gnu/h-i686-mingw32/bin/../lib/gcc/nios2-elf/4.1.2/../../../../nios2-elf/lib\libc.a(lib_a-vsprintf.o)
 .debug_loc     0x00013f8f      0x120 c:/altera/12.0/nios2eds/bin/gnu/h-i686-mingw32/bin/../lib/gcc/nios2-elf/4.1.2/../../../../nios2-elf/lib\libc.a(lib_a-__atexit.o)
 .debug_loc     0x000140af      0x1cb c:/altera/12.0/nios2eds/bin/gnu/h-i686-mingw32/bin/../lib/gcc/nios2-elf/4.1.2/../../../../nios2-elf/lib\libc.a(lib_a-__call_atexit.o)
 .debug_loc     0x0001427a       0xd1 c:/altera/12.0/nios2eds/bin/gnu/h-i686-mingw32/bin/../lib/gcc/nios2-elf/4.1.2/../../../../nios2-elf/lib\libc.a(lib_a-refill.o)
 .debug_loc     0x0001434b       0x56 ../niosII_simple_socket_server_1_bsp/\libucosii_bsp.a(alt_exit.o)

.debug_macinfo
 *(.debug_macinfo)

.debug_weaknames
 *(.debug_weaknames)

.debug_funcnames
 *(.debug_funcnames)

.debug_typenames
 *(.debug_typenames)

.debug_varnames
 *(.debug_varnames)

.debug_alt_sim_info
                0x00000000       0x60
 *(.debug_alt_sim_info)
 .debug_alt_sim_info
                0x00000000       0x30 ../niosII_simple_socket_server_1_bsp//obj/HAL/src/crt0.o
 .debug_alt_sim_info
                0x00000030       0x30 ../niosII_simple_socket_server_1_bsp/\libucosii_bsp.a(alt_busy_sleep.o)
                0x08000000                __alt_data_end = 0x8000000
                0x08000000                PROVIDE (__alt_stack_pointer, __alt_data_end)
                0x000dcad4                PROVIDE (__alt_stack_limit, __alt_stack_base)
                0x000dcad4                PROVIDE (__alt_heap_start, end)
                0x08000000                PROVIDE (__alt_heap_limit, 0x8000000)
OUTPUT(Rebuild_Simple_Socket.elf elf32-littlenios2)

.debug_ranges   0x00000000      0x9c0
 .debug_ranges  0x00000000       0x20 ../niosII_simple_socket_server_1_bsp//obj/HAL/src/crt0.o
 .debug_ranges  0x00000020       0x70 c:/altera/12.0/nios2eds/bin/gnu/h-i686-mingw32/bin/../lib/gcc/nios2-elf/4.1.2/../../../../nios2-elf/lib\libc.a(lib_a-mallocr.o)
 .debug_ranges  0x00000090      0x168 c:/altera/12.0/nios2eds/bin/gnu/h-i686-mingw32/bin/../lib/gcc/nios2-elf/4.1.2/../../../../nios2-elf/lib\libc.a(lib_a-vfprintf.o)
 .debug_ranges  0x000001f8       0x20 c:/altera/12.0/nios2eds/bin/gnu/h-i686-mingw32/bin/../lib/gcc/nios2-elf/4.1.2/../../../../nios2-elf/lib\libc.a(lib_a-fflush.o)
 .debug_ranges  0x00000218       0x28 c:/altera/12.0/nios2eds/bin/gnu/h-i686-mingw32/bin/../lib/gcc/nios2-elf/4.1.2/../../../../nios2-elf/lib\libc.a(lib_a-fvwrite.o)
 .debug_ranges  0x00000240       0xa0 c:/altera/12.0/nios2eds/bin/gnu/h-i686-mingw32/bin/../lib/gcc/nios2-elf/4.1.2/../../../../nios2-elf/lib\libc.a(lib_a-fwalk.o)
 .debug_ranges  0x000002e0      0x110 c:/altera/12.0/nios2eds/bin/gnu/h-i686-mingw32/bin/../lib/gcc/nios2-elf/4.1.2/../../../../nios2-elf/lib\libc.a(lib_a-reallocr.o)
 .debug_ranges  0x000003f0       0x38 c:/altera/12.0/nios2eds/bin/gnu/h-i686-mingw32/bin/../lib/gcc/nios2-elf/4.1.2/../../../../nios2-elf/lib\libc.a(lib_a-callocr.o)
 .debug_ranges  0x00000428      0x188 c:/altera/12.0/nios2eds/bin/gnu/h-i686-mingw32/bin/../lib/gcc/nios2-elf/4.1.2\libgcc.a(_udivdi3.o)
 .debug_ranges  0x000005b0      0x198 c:/altera/12.0/nios2eds/bin/gnu/h-i686-mingw32/bin/../lib/gcc/nios2-elf/4.1.2\libgcc.a(_umoddi3.o)
 .debug_ranges  0x00000748       0x30 c:/altera/12.0/nios2eds/bin/gnu/h-i686-mingw32/bin/../lib/gcc/nios2-elf/4.1.2\libgcc.a(_addsub_df.o)
 .debug_ranges  0x00000778       0x88 c:/altera/12.0/nios2eds/bin/gnu/h-i686-mingw32/bin/../lib/gcc/nios2-elf/4.1.2\libgcc.a(_mul_df.o)
 .debug_ranges  0x00000800       0x50 c:/altera/12.0/nios2eds/bin/gnu/h-i686-mingw32/bin/../lib/gcc/nios2-elf/4.1.2\libgcc.a(_div_df.o)
 .debug_ranges  0x00000850       0x18 c:/altera/12.0/nios2eds/bin/gnu/h-i686-mingw32/bin/../lib/gcc/nios2-elf/4.1.2\libgcc.a(_usi_to_df.o)
 .debug_ranges  0x00000868       0x68 c:/altera/12.0/nios2eds/bin/gnu/h-i686-mingw32/bin/../lib/gcc/nios2-elf/4.1.2\libgcc.a(_muldi3.o)
 .debug_ranges  0x000008d0       0x28 c:/altera/12.0/nios2eds/bin/gnu/h-i686-mingw32/bin/../lib/gcc/nios2-elf/4.1.2\libgcc.a(_clzsi2.o)
 .debug_ranges  0x000008f8       0x28 c:/altera/12.0/nios2eds/bin/gnu/h-i686-mingw32/bin/../lib/gcc/nios2-elf/4.1.2\libgcc.a(_pack_df.o)
 .debug_ranges  0x00000920       0x18 ../niosII_simple_socket_server_1_bsp/\libucosii_bsp.a(altera_avalon_jtag_uart_init.o)
 .debug_ranges  0x00000938       0x18 ../niosII_simple_socket_server_1_bsp/\libucosii_bsp.a(altera_avalon_uart_init.o)
 .debug_ranges  0x00000950       0x28 ../niosII_simple_socket_server_1_bsp/\libucosii_bsp.a(alt_irq_entry.o)
 .debug_ranges  0x00000978       0x30 ../niosII_simple_socket_server_1_bsp/\libucosii_bsp.a(alt_exception_entry.o)
 .debug_ranges  0x000009a8       0x18 c:/altera/12.0/nios2eds/bin/gnu/h-i686-mingw32/bin/../lib/gcc/nios2-elf/4.1.2/../../../../nios2-elf/lib\libc.a(lib_a-__call_atexit.o)
