
Rebuild_Simple_Socket.elf:     file format elf32-littlenios2
Rebuild_Simple_Socket.elf
architecture: nios2, flags 0x00000112:
EXEC_P, HAS_SYMS, D_PAGED
start address 0x000001bc

Program Header:
    LOAD off    0x00001000 vaddr 0x00000000 paddr 0x00000000 align 2**12
         filesz 0x00000020 memsz 0x00000020 flags r-x
    LOAD off    0x00001020 vaddr 0x00000020 paddr 0x00000020 align 2**12
         filesz 0x00051978 memsz 0x00051978 flags r-x
    LOAD off    0x00052998 vaddr 0x00051998 paddr 0x00053c00 align 2**12
         filesz 0x00002268 memsz 0x00002268 flags rw-
    LOAD off    0x00054e68 vaddr 0x00055e68 paddr 0x00055e68 align 2**12
         filesz 0x00000000 memsz 0x00086c6c flags rw-

Sections:
Idx Name          Size      VMA       LMA       File off  Algn
  0 .entry        00000020  00000000  00000000  00001000  2**5
                  CONTENTS, ALLOC, LOAD, READONLY, CODE
  1 .exceptions   0000019c  00000020  00000020  00001020  2**2
                  CONTENTS, ALLOC, LOAD, READONLY, CODE
  2 .text         0004a608  000001bc  000001bc  000011bc  2**2
                  CONTENTS, ALLOC, LOAD, READONLY, CODE
  3 .rodata       000071d4  0004a7c4  0004a7c4  0004b7c4  2**2
                  CONTENTS, ALLOC, LOAD, READONLY, DATA
  4 .rwdata       00002268  00051998  00053c00  00052998  2**2
                  CONTENTS, ALLOC, LOAD, DATA, SMALL_DATA
  5 .bss          00086c6c  00055e68  00055e68  00054e68  2**2
                  ALLOC, SMALL_DATA
  6 .comment      00000023  00000000  00000000  00054c00  2**0
                  CONTENTS, READONLY
  7 .debug_aranges 00001b78  00000000  00000000  00054c28  2**3
                  CONTENTS, READONLY, DEBUGGING
  8 .debug_pubnames 00005bd7  00000000  00000000  000567a0  2**0
                  CONTENTS, READONLY, DEBUGGING
  9 .debug_info   00084a0f  00000000  00000000  0005c377  2**0
                  CONTENTS, READONLY, DEBUGGING
 10 .debug_abbrev 00012689  00000000  00000000  000e0d86  2**0
                  CONTENTS, READONLY, DEBUGGING
 11 .debug_line   000436ff  00000000  00000000  000f340f  2**0
                  CONTENTS, READONLY, DEBUGGING
 12 .debug_frame  00006b9c  00000000  00000000  00136b10  2**2
                  CONTENTS, READONLY, DEBUGGING
 13 .debug_str    00003a04  00000000  00000000  0013d6ac  2**0
                  CONTENTS, READONLY, DEBUGGING
 14 .debug_loc    000143a1  00000000  00000000  001410b0  2**0
                  CONTENTS, READONLY, DEBUGGING
 15 .debug_alt_sim_info 00000060  00000000  00000000  00155454  2**2
                  CONTENTS, READONLY, DEBUGGING
 16 .debug_ranges 000009c0  00000000  00000000  001554b8  2**3
                  CONTENTS, READONLY, DEBUGGING
 17 .thread_model 00000006  00000000  00000000  00160f00  2**0
                  CONTENTS, READONLY
 18 .cpu          00000003  00000000  00000000  00160f06  2**0
                  CONTENTS, READONLY
 19 .simulation_enabled 00000001  00000000  00000000  00160f09  2**0
                  CONTENTS, READONLY
 20 .sysid_hash   00000004  00000000  00000000  00160f0a  2**0
                  CONTENTS, READONLY
 21 .sysid_base   00000004  00000000  00000000  00160f0e  2**0
                  CONTENTS, READONLY
 22 .sysid_time   00000004  00000000  00000000  00160f12  2**0
                  CONTENTS, READONLY
 23 .stderr_dev   00000009  00000000  00000000  00160f16  2**0
                  CONTENTS, READONLY
 24 .stdin_dev    00000009  00000000  00000000  00160f1f  2**0
                  CONTENTS, READONLY
 25 .stdout_dev   00000009  00000000  00000000  00160f28  2**0
                  CONTENTS, READONLY
 26 .sopc_system_name 0000000c  00000000  00000000  00160f31  2**0
                  CONTENTS, READONLY
SYMBOL TABLE:
00000000 l    d  .entry	00000000 .entry
00000020 l    d  .exceptions	00000000 .exceptions
000001bc l    d  .text	00000000 .text
0004a7c4 l    d  .rodata	00000000 .rodata
00051998 l    d  .rwdata	00000000 .rwdata
00055e68 l    d  .bss	00000000 .bss
00000000 l    d  .comment	00000000 .comment
00000000 l    d  .debug_aranges	00000000 .debug_aranges
00000000 l    d  .debug_pubnames	00000000 .debug_pubnames
00000000 l    d  .debug_info	00000000 .debug_info
00000000 l    d  .debug_abbrev	00000000 .debug_abbrev
00000000 l    d  .debug_line	00000000 .debug_line
00000000 l    d  .debug_frame	00000000 .debug_frame
00000000 l    d  .debug_str	00000000 .debug_str
00000000 l    d  .debug_loc	00000000 .debug_loc
00000000 l    d  .debug_alt_sim_info	00000000 .debug_alt_sim_info
00000000 l    d  .debug_ranges	00000000 .debug_ranges
00000204 l       .text	00000000 alt_after_alt_main
00000000 l    df *ABS*	00000000 alt_irq_handler.c
00000000 l    df *ABS*	00000000 SSS_DE2_115.c
00000000 l    df *ABS*	00000000 alt_2_wire.c
000004f4 l     F .text	00000034 pulldownSDA
00000528 l     F .text	0000004c setupDelay
00000574 l     F .text	0000003c pullupSDA
000005b0 l     F .text	00000034 pulldownSCL
000005e4 l     F .text	0000003c pullupSCL
00000620 l     F .text	00000060 readSDA
00000000 l    df *ABS*	00000000 alt_eeprom.c
00000000 l    df *ABS*	00000000 alt_error_handler.c
00000000 l    df *ABS*	00000000 iniche_init.c
00000000 l    df *ABS*	00000000 led.c
00000000 l    df *ABS*	00000000 niosII_simple_socket_server.c
00055e80 l     O .bss	00000004 SSSCommand.5291
00056058 l     O .bss	0000139c conn.5419
000573f4 l     O .bss	0000139c conn.5457
0004bd4c l     O .rodata	000003e8 C.40.5470
0004c134 l     O .rodata	000003e8 C.39.5469
00000000 l    df *ABS*	00000000 lib2-divmod.c
00003730 l     F .text	0000007c udivmodsi4
00000000 l    df *ABS*	00000000 ctype_.c
0004cc69 l     O .rodata	00000180 _ctype_b
00000000 l    df *ABS*	00000000 fprintf.c
00000000 l    df *ABS*	00000000 fwrite.c
00000000 l    df *ABS*	00000000 impure.c
00051b30 l     O .rwdata	00000400 impure_data
00000000 l    df *ABS*	00000000 malloc.c
00000000 l    df *ABS*	00000000 mallocr.c
00000000 l    df *ABS*	00000000 memcpy.c
00000000 l    df *ABS*	00000000 memmove.c
00000000 l    df *ABS*	00000000 memset.c
00000000 l    df *ABS*	00000000 perror.c
00000000 l    df *ABS*	00000000 printf.c
00000000 l    df *ABS*	00000000 putchar.c
00000000 l    df *ABS*	00000000 puts.c
00000000 l    df *ABS*	00000000 sbrkr.c
00000000 l    df *ABS*	00000000 sprintf.c
00000000 l    df *ABS*	00000000 strchr.c
00000000 l    df *ABS*	00000000 strerror.c
00000000 l    df *ABS*	00000000 strlen.c
00000000 l    df *ABS*	00000000 u_strerr.c
00000000 l    df *ABS*	00000000 vfprintf.c
00004e1c l     F .text	00000058 __sprint_r
0004d60a l     O .rodata	00000010 blanks.3452
0004d5fa l     O .rodata	00000010 zeroes.3453
00000000 l    df *ABS*	00000000 wsetup.c
00000000 l    df *ABS*	00000000 dtoa.c
00006e80 l     F .text	00000218 quorem
00000000 l    df *ABS*	00000000 fflush.c
00000000 l    df *ABS*	00000000 findfp.c
0000887c l     F .text	00000058 std
00008988 l     F .text	00000008 __fp_lock
00008990 l     F .text	00000008 __fp_unlock
00000000 l    df *ABS*	00000000 fputc.c
00000000 l    df *ABS*	00000000 fputs.c
00000000 l    df *ABS*	00000000 mallocr.c
00000000 l    df *ABS*	00000000 fvwrite.c
00000000 l    df *ABS*	00000000 fwalk.c
00000000 l    df *ABS*	00000000 int_errno.c
00000000 l    df *ABS*	00000000 locale.c
00053acc l     O .rwdata	00000004 charset
0004d63c l     O .rodata	00000030 lconv
00000000 l    df *ABS*	00000000 makebuf.c
00000000 l    df *ABS*	00000000 memchr.c
00000000 l    df *ABS*	00000000 mprec.c
0004d784 l     O .rodata	0000000c p05.2458
00000000 l    df *ABS*	00000000 putc.c
00000000 l    df *ABS*	00000000 mallocr.c
00000000 l    df *ABS*	00000000 s_isinfd.c
00000000 l    df *ABS*	00000000 s_isnand.c
00000000 l    df *ABS*	00000000 stdio.c
00000000 l    df *ABS*	00000000 strcmp.c
00000000 l    df *ABS*	00000000 wbuf.c
00000000 l    df *ABS*	00000000 writer.c
00000000 l    df *ABS*	00000000 mallocr.c
00000000 l    df *ABS*	00000000 closer.c
00000000 l    df *ABS*	00000000 fclose.c
00000000 l    df *ABS*	00000000 fstatr.c
00000000 l    df *ABS*	00000000 isattyr.c
00000000 l    df *ABS*	00000000 lseekr.c
00000000 l    df *ABS*	00000000 readr.c
00000000 l    df *ABS*	00000000 libgcc2.c
00000000 l    df *ABS*	00000000 libgcc2.c
00000000 l    df *ABS*	00000000 dp-bit.c
0000c5d8 l     F .text	00000410 _fpadd_parts
00000000 l    df *ABS*	00000000 dp-bit.c
00000000 l    df *ABS*	00000000 dp-bit.c
00000000 l    df *ABS*	00000000 dp-bit.c
00000000 l    df *ABS*	00000000 dp-bit.c
00000000 l    df *ABS*	00000000 dp-bit.c
00000000 l    df *ABS*	00000000 dp-bit.c
00000000 l    df *ABS*	00000000 dp-bit.c
00000000 l    df *ABS*	00000000 dp-bit.c
00000000 l    df *ABS*	00000000 dp-bit.c
00000000 l    df *ABS*	00000000 dp-bit.c
00000000 l    df *ABS*	00000000 dp-bit.c
00000000 l    df *ABS*	00000000 libgcc2.c
00000000 l    df *ABS*	00000000 libgcc2.c
00000000 l    df *ABS*	00000000 libgcc2.c
00000000 l    df *ABS*	00000000 dp-bit.c
00000000 l    df *ABS*	00000000 dp-bit.c
00000000 l    df *ABS*	00000000 dp-bit.c
00000000 l    df *ABS*	00000000 alt_flash_dev.c
00000000 l    df *ABS*	00000000 alt_fstat.c
0000ded4 l     F .text	00000060 alt_get_errno
00000000 l    df *ABS*	00000000 alt_isatty.c
0000dff4 l     F .text	00000060 alt_get_errno
00000000 l    df *ABS*	00000000 alt_load.c
0000e0d4 l     F .text	0000006c alt_load_section
00000000 l    df *ABS*	00000000 alt_lseek.c
0000e230 l     F .text	00000060 alt_get_errno
00000000 l    df *ABS*	00000000 alt_main.c
00000000 l    df *ABS*	00000000 alt_sbrk.c
00053ad8 l     O .rwdata	00000004 heap_end
00000000 l    df *ABS*	00000000 alt_usleep.c
00000000 l    df *ABS*	00000000 alt_env_lock.c
00053adc l     O .rwdata	00000004 lockid
00055eb4 l     O .bss	00000004 locks
00000000 l    df *ABS*	00000000 alt_malloc_lock.c
00053ae0 l     O .rwdata	00000004 lockid
00055ebc l     O .bss	00000004 locks
00000000 l    df *ABS*	00000000 os_core.c
0000ff04 l     F .text	00000044 OS_InitMisc
0000ff48 l     F .text	0000006c OS_InitRdyList
000100ac l     F .text	000000e0 OS_InitTCBList
0000fe28 l     F .text	000000dc OS_InitEventList
0000ffb4 l     F .text	0000007c OS_InitTaskIdle
00010030 l     F .text	0000007c OS_InitTaskStat
00010320 l     F .text	00000070 OS_SchedNew
00000000 l    df *ABS*	00000000 os_dbg.c
00000000 l    df *ABS*	00000000 os_flag.c
00012240 l     F .text	00000110 OS_FlagTaskRdy
00011f98 l     F .text	000001c4 OS_FlagBlock
00000000 l    df *ABS*	00000000 os_mbox.c
00000000 l    df *ABS*	00000000 os_mem.c
00000000 l    df *ABS*	00000000 os_q.c
00000000 l    df *ABS*	00000000 os_sem.c
00000000 l    df *ABS*	00000000 os_task.c
00000000 l    df *ABS*	00000000 os_time.c
00000000 l    df *ABS*	00000000 alt_sys_init.c
00052344 l     O .rwdata	000000d8 cfi_flash
0005241c l     O .rwdata	0000106c jtag_uart
00053488 l     O .rwdata	00000124 lcd
000535ac l     O .rwdata	00000030 sgdma_rx
000535dc l     O .rwdata	00000030 sgdma_tx
0005360c l     O .rwdata	000000d0 rs232
00017a28 l     F .text	00000038 alt_dev_reg
00000000 l    df *ABS*	00000000 altera_avalon_cfi_flash.c
00017afc l     F .text	00000038 alt_flash_device_register
00000000 l    df *ABS*	00000000 altera_avalon_cfi_flash_table.c
000188ec l     F .text	0000007c alt_read_16bit_query_entry
00000000 l    df *ABS*	00000000 altera_avalon_jtag_uart_fd.c
00000000 l    df *ABS*	00000000 altera_avalon_jtag_uart_init.c
000199f0 l     F .text	000002c4 altera_avalon_jtag_uart_irq
00019cb4 l     F .text	00000114 altera_avalon_jtag_uart_timeout
00000000 l    df *ABS*	00000000 altera_avalon_jtag_uart_ioctl.c
00000000 l    df *ABS*	00000000 altera_avalon_jtag_uart_read.c
00000000 l    df *ABS*	00000000 altera_avalon_jtag_uart_write.c
00000000 l    df *ABS*	00000000 altera_avalon_lcd_16207.c
00053b5c l     O .rwdata	00000004 colstart
0001a4cc l     F .text	000000b8 lcd_write_command
0001a584 l     F .text	000000d4 lcd_write_data
0001a658 l     F .text	000000c4 lcd_clear_screen
0001a71c l     F .text	000001ec lcd_repaint_screen
0001a908 l     F .text	000000c8 lcd_scroll_up
0001a9d0 l     F .text	000002d0 lcd_handle_escape
0001b1d8 l     F .text	000000cc alt_lcd_16207_timeout
00000000 l    df *ABS*	00000000 altera_avalon_lcd_16207_fd.c
00000000 l    df *ABS*	00000000 altera_avalon_sgdma.c
0001bb30 l     F .text	00000060 alt_get_errno
0001c0d8 l     F .text	000000c0 alt_avalon_sgdma_irq
00000000 l    df *ABS*	00000000 altera_avalon_timer_sc.c
0001c244 l     F .text	00000070 alt_avalon_timer_sc_irq
00000000 l    df *ABS*	00000000 altera_avalon_tse.c
00055f16 l     O .bss	00000001 tse_system_count.4487
00055f17 l     O .bss	00000001 is_init.4851
00000000 l    df *ABS*	00000000 altera_avalon_uart_fd.c
00000000 l    df *ABS*	00000000 altera_avalon_uart_init.c
00021910 l     F .text	0000009c altera_avalon_uart_irq
000219ac l     F .text	0000013c altera_avalon_uart_rxirq
00021ae8 l     F .text	000001c0 altera_avalon_uart_txirq
00000000 l    df *ABS*	00000000 altera_avalon_uart_read.c
00021fb8 l     F .text	00000060 alt_get_errno
00000000 l    df *ABS*	00000000 altera_avalon_uart_write.c
00022260 l     F .text	00000060 alt_get_errno
00000000 l    df *ABS*	00000000 ins_tse_mac.c
00000000 l    df *ABS*	00000000 alt_iniche_close.c
00000000 l    df *ABS*	00000000 alt_iniche_dev.c
00000000 l    df *ABS*	00000000 alt_iniche_read.c
00000000 l    df *ABS*	00000000 alt_iniche_write.c
00000000 l    df *ABS*	00000000 ipnet.c
00000000 l    df *ABS*	00000000 ipstart.c
00055f2c l     O .bss	00000004 nclosers
000587b8 l     O .bss	0000003c closers
00000000 l    df *ABS*	00000000 igmp_cmn.c
00000000 l    df *ABS*	00000000 bsdsock.c
00000000 l    df *ABS*	00000000 cksum.c
00053b78 l     O .rwdata	00000004 cksum_select
00000000 l    df *ABS*	00000000 in_utils.c
000587f4 l     O .bss	00000018 tistring
00000000 l    df *ABS*	00000000 netmain.c
00000000 l    df *ABS*	00000000 tk_crnos.c
00000000 l    df *ABS*	00000000 pktalloc.c
00000000 l    df *ABS*	00000000 q.c
00028ab0 l       .text	00000000 done
00028940 l       .text	00000000 asm1
00028a6c l       .text	00000000 loop0
00028968 l       .text	00000000 loop
00028a88 l       .text	00000000 fold
00000000 l    df *ABS*	00000000 brdutils.c
00055f54 l     O .bss	00000004 kbd_init.3746
00055f60 l     O .bss	00000004 cpu_statusreg
00000000 l    df *ABS*	00000000 osportco.c
00000000 l    df *ABS*	00000000 targnios.c
00000000 l    df *ABS*	00000000 nptcp.c
00055f94 l     O .bss	00000004 in_tcptick
00000000 l    df *ABS*	00000000 rawsock.c
00000000 l    df *ABS*	00000000 sockcall.c
0002d1b4 l     F .text	00000098 sockargs
0002c3f0 l     F .text	000001fc t_getname
00000000 l    df *ABS*	00000000 socket.c
00000000 l    df *ABS*	00000000 socket2.c
00000000 l    df *ABS*	00000000 soselect.c
00000000 l    df *ABS*	00000000 tcp_in.c
00000000 l    df *ABS*	00000000 tcp_out.c
00035634 l     F .text	000000e8 bld_options
00000000 l    df *ABS*	00000000 tcp_subr.c
00000000 l    df *ABS*	00000000 tcp_timr.c
00000000 l    df *ABS*	00000000 tcp_usr.c
00000000 l    df *ABS*	00000000 tcp_zio.c
00000000 l    df *ABS*	00000000 tcpport.c
00000000 l    df *ABS*	00000000 udpsock.c
00000000 l    df *ABS*	00000000 alt_alarm_start.c
00000000 l    df *ABS*	00000000 alt_busy_sleep.c
00000000 l    df *ABS*	00000000 alt_close.c
000388b8 l     F .text	00000060 alt_get_errno
00000000 l    df *ABS*	00000000 alt_dcache_flush.c
00000000 l    df *ABS*	00000000 alt_dcache_flush_all.c
00000000 l    df *ABS*	00000000 alt_dev.c
000389d4 l     F .text	0000002c alt_dev_null_write
00000000 l    df *ABS*	00000000 alt_dev_llist_insert.c
00038ab4 l     F .text	00000060 alt_get_errno
00000000 l    df *ABS*	00000000 alt_do_ctors.c
00000000 l    df *ABS*	00000000 alt_do_dtors.c
00000000 l    df *ABS*	00000000 alt_errno.c
00000000 l    df *ABS*	00000000 alt_find_dev.c
00000000 l    df *ABS*	00000000 alt_icache_flush_all.c
00000000 l    df *ABS*	00000000 alt_iic.c
00000000 l    df *ABS*	00000000 alt_iic_isr_register.c
00000000 l    df *ABS*	00000000 alt_io_redirect.c
00038f6c l     F .text	000000c4 alt_open_fd
00000000 l    df *ABS*	00000000 alt_irq_vars.c
00000000 l    df *ABS*	00000000 alt_open.c
000390a8 l     F .text	000000dc alt_file_locked
0003930c l     F .text	00000060 alt_get_errno
00000000 l    df *ABS*	00000000 alt_read.c
0003948c l     F .text	00000060 alt_get_errno
00000000 l    df *ABS*	00000000 alt_release_fd.c
00000000 l    df *ABS*	00000000 alt_remap_cached.c
00000000 l    df *ABS*	00000000 alt_remap_uncached.c
00000000 l    df *ABS*	00000000 alt_tick.c
00000000 l    df *ABS*	00000000 alt_uncached_malloc.c
00000000 l    df *ABS*	00000000 alt_write.c
000398f0 l     F .text	00000060 alt_get_errno
00000000 l    df *ABS*	00000000 altera_nios2_irq.c
00000040 l       *ABS*	00000000 OSCtxSw_SWITCH_PC
00000000 l    df *ABS*	00000000 os_cpu_c.c
00000014 l       *ABS*	00000000 OSTCBNext_OFFSET
00000032 l       *ABS*	00000000 OSTCBPrio_OFFSET
00000000 l       *ABS*	00000000 OSTCBStkPtr_OFFSET
00000000 l    df *ABS*	00000000 altera_avalon_cfi_flash_amd.c
0003a208 l     F .text	000000bc alt_write_word_amd
0003a0e4 l     F .text	00000124 alt_wait_for_command_to_complete_amd
00000000 l    df *ABS*	00000000 altera_avalon_cfi_flash_intel.c
0003a4bc l     F .text	0000018c alt_unlock_block_intel
0003a648 l     F .text	000000dc alt_write_word_intel
00000000 l    df *ABS*	00000000 allports.c
00055fcc l     O .bss	00000004 inside_pktdemux
00000000 l    df *ABS*	00000000 timeouts.c
0003abb4 l     F .text	00000198 check_interval_timers
00055fd8 l     O .bss	00000004 numtimers
00000000 l    df *ABS*	00000000 tk_misc.c
00000000 l    df *ABS*	00000000 alt_iniche_fcntl.c
00000000 l    df *ABS*	00000000 et_arp.c
00055fdc l     O .bss	00000004 arp_timer
00055ff4 l     O .bss	00000004 cachetime
00000000 l    df *ABS*	00000000 iface.c
00000000 l    df *ABS*	00000000 ip.c
00053be8 l     O .rwdata	00000004 uid
00000000 l    df *ABS*	00000000 ip_reasm.c
00000000 l    df *ABS*	00000000 ipdemux.c
00000000 l    df *ABS*	00000000 ipmc.c
00000000 l    df *ABS*	00000000 ipport.c
00000000 l    df *ABS*	00000000 ipraw.c
00000000 l    df *ABS*	00000000 iproute.c
00000000 l    df *ABS*	00000000 udp.c
00056024 l     O .bss	00000002 usocket
00000000 l    df *ABS*	00000000 igmp.c
00000000 l    df *ABS*	00000000 igmp2.c
00000000 l    df *ABS*	00000000 ipopt.c
00000000 l    df *ABS*	00000000 u_mctest.c
00053bf0 l     O .rwdata	00000004 iCounter.4517
00000000 l    df *ABS*	00000000 memdev.c
00000000 l    df *ABS*	00000000 parseip.c
0005880c l     O .bss	0000001e nearBuf.4191
00000000 l    df *ABS*	00000000 tcpcksum.c
00000000 l    df *ABS*	00000000 udp_open.c
00000000 l    df *ABS*	00000000 in_pcb.c
00000000 l    df *ABS*	00000000 vfsfiles.c
00000000 l    df *ABS*	00000000 vfsport.c
00000000 l    df *ABS*	00000000 alt_fcntl.c
00048508 l     F .text	00000060 alt_get_errno
00000000 l    df *ABS*	00000000 alt_find_file.c
00000000 l    df *ABS*	00000000 alt_get_fd.c
00000000 l    df *ABS*	00000000 alt_icache_flush.c
00000000 l    df *ABS*	00000000 icmp.c
00053a8c l     O .rwdata	00000018 dsts
00000000 l    df *ABS*	00000000 atexit.c
00000000 l    df *ABS*	00000000 atoi.c
00000000 l    df *ABS*	00000000 calloc.c
00000000 l    df *ABS*	00000000 exit.c
00000000 l    df *ABS*	00000000 getc.c
00000000 l    df *ABS*	00000000 memcmp.c
00000000 l    df *ABS*	00000000 rget.c
00000000 l    df *ABS*	00000000 strcpy.c
00000000 l    df *ABS*	00000000 strncmp.c
00000000 l    df *ABS*	00000000 strtol.c
00000000 l    df *ABS*	00000000 vprintf.c
00000000 l    df *ABS*	00000000 vsprintf.c
00000000 l    df *ABS*	00000000 __atexit.c
00000000 l    df *ABS*	00000000 __call_atexit.c
0004a354 l     F .text	00000004 register_fini
00000000 l    df *ABS*	00000000 refill.c
0004a6cc l     F .text	0000001c lflush
00000000 l    df *ABS*	00000000 alt_exit.c
0004a6e8 l     F .text	00000040 alt_sim_halt
00004430 g     F .text	0000001c putchar
000dc440 g     O .bss	00000014 soq
00009e2c g     F .text	00000094 _mprec_log10
0001d618 g     F .text	000000e0 alt_tse_get_mac_info
00053b2e g     O .rwdata	00000002 OSTaskNameSize
00009f18 g     F .text	00000088 __any_on
0000b8ec g     F .text	00000070 _isatty_r
0004d75c g     O .rodata	00000028 __mprec_tinytens
0003ca9c g     F .text	00000780 ip_write_internal
0000e290 g     F .text	000000c8 alt_main
00049d94 g     F .text	0000008c strcpy
00028520 g     F .text	000000ac pk_free
00004454 g     F .text	000000a0 _puts_r
000183ac g     F .text	00000048 alt_read_query_entry_32bit
000dc5ec g     O .bss	00000100 alt_irq
0005392c g     O .rwdata	00000009 rtp_priority
0000b95c g     F .text	00000078 _lseek_r
00049790 g     F .text	00000334 icmp_timex
00029b90 g     F .text	00000044 m_freem
00047e6c g     F .text	00000048 vgetc
00028c2c g     F .text	0000001c clock_c
00055fac g     O .bss	00000004 tcp_optionbuf
0003c564 g     F .text	00000084 if_getbynum
000137c0 g     F .text	000000d0 OS_MemInit
00017b34 g     F .text	000002c0 alt_flash_cfi_write
00027c54 g     F .text	00000074 TK_OSTaskQuery
0000089c g     F .text	00000028 alt_2_wireSetDelay
00028920 g       .text	00000000 asm_cksum
00053c00 g       *ABS*	00000000 __flash_rwdata_start
00021514 g     F .text	00000100 marvell_cfg_rgmii
00017700 g     F .text	00000064 OSTimeSet
00047d4c g     F .text	00000120 vgetc_locked
0002946c g     F .text	00000020 post_task_setup
00040494 g     F .text	00000354 ipr_stats
0003706c g     F .text	00000134 tcp_attach
0002b03c g     F .text	00000084 tcp_tick
00026ea4 g     F .text	00000074 print_ipad
00027b50 g     F .text	00000104 tcp_wakeup
0000d0f8 g     F .text	00000088 __eqdf2
00000db8 g     F .text	00000070 dump
00055e68 g     O .bss	00000004 last_flash_sector_offset
00055f30 g     O .bss	00000004 igmp_timers_are_running
00033ec0 g     F .text	0000012c tcp_pulloutofband
0001eb94 g     F .text	000001f0 alt_tse_phy_print_profile
0000ea80 g     F .text	000006b4 OSEventPendMulti
00002758 g     F .text	000000b8 SSS_handle_accept
000dcad4 g       *ABS*	00000000 __alt_heap_start
00039d50 g     F .text	00000020 OSTaskCreateHook
00021284 g     F .text	000000a8 marvell_phy_cfg
0004083c g     F .text	00000400 ip_rcv
00047a9c g     F .text	0000017c vfseek
0002fbec g     F .text	00000120 soqremque
0004268c g     F .text	00000858 udpdemux
00023934 g     F .text	00000104 tse_mac_close
000043b8 g     F .text	00000044 printf
00055ff8 g     O .bss	00000004 rt_mib
00053b06 g     O .rwdata	00000002 OSMboxEn
0004a1fc g     F .text	00000024 vsprintf
0001b59c g     F .text	00000124 alt_avalon_sgdma_do_sync_transfer
0000f188 g     F .text	0000007c OSIntEnter
0b200000 g       *ABS*	00000000 __alt_mem_sram
0000b26c g     F .text	00000068 __sseek
000088e4 g     F .text	000000a4 __sinit
000417e0 g     F .text	00000118 in_delmulti
0000b46c g     F .text	00000130 __swbuf_r
00056010 g     O .bss	00000004 so_evtmap_create
00053b16 g     O .rwdata	00000002 OSQEn
0004601c g     F .text	00000094 in_pcballoc
00053b98 g     O .rwdata	00000002 socket_defaults
00009708 g     F .text	00000084 _setlocale_r
0003b390 g     F .text	00000498 send_arp
000089e4 g     F .text	00000068 __sfmoreglue
00046b08 g     F .text	00000368 vfopen_locked
00055e84 g     O .bss	00000004 SSSLEDCommandQ
0000e73c g     F .text	000000d0 __malloc_unlock
00002810 g     F .text	000001b0 SSS_exec_command
00039dac g     F .text	0000001c OSTaskStatHook
0003aa9c g     F .text	00000058 prep_modules
000263c4 g     F .text	000001d0 bsd_i_sockoptlen
00055ec4 g     O .bss	00000001 OSLockNesting
0000472c g     F .text	00000674 strerror
0001d87c g     F .text	00000e18 getPHYSpeed
00047068 g     F .text	00000040 vfclose
000dc4e0 g     O .bss	0000002c tcb
00053b54 g     O .rwdata	00000002 OSDataSize
0003954c g     F .text	00000038 alt_remap_cached
00055ec5 g     O .bss	00000001 OSRunning
0003c298 g     F .text	000002cc grat_arp
00001d9c g     F .text	000001c8 get_ip_addr
00045718 g     F .text	000000ac inet_pton
0003c6c8 g     F .text	0000009c reg_type
000251cc g     F .text	0000019c igmp_fasttimo
0004722c g     F .text	0000005c vunlink_flag_open_files
0001bcf0 g     F .text	000003e8 alt_avalon_sgdma_construct_descriptor_burst
00037674 g     F .text	0000013c tcp_data_upcall
000dc50c g     O .bss	000000e0 tcpstat
0003fd44 g     F .text	0000035c ip_reasm_copy_queued_fragments_into_reassy_buffer
0002a120 g     F .text	000000a8 dtom
00035538 g     F .text	000000fc tcp_setpersist
0002c7c8 g     F .text	000001a4 t_getsockopt
000041c0 g     F .text	000000e0 memmove
0002a5c4 g     F .text	000005f8 ip_output
00039df0 g     F .text	0000001c OSInitHookBegin
00049ac4 g     F .text	00000054 icmp_du
00053b7c g     O .rwdata	00000004 num_net_tasks
00056038 g     O .bss	00000004 vfiles
00053b4c g     O .rwdata	00000002 OSTmrSize
000089d4 g     F .text	00000010 _cleanup
0003ee3c g     F .text	000002e0 ip_reasm_process_first_fragment
00009fa0 g     F .text	000000bc _Balloc
00001b68 g     F .text	0000013c get_board_mac_addr
00055e78 g     O .bss	00000004 system_dhcp_hostname
00055ec8 g     O .bss	00000004 OSIdleCtr
00020548 g     F .text	00000194 alt_tse_phy_set_adv_1000
00053b68 g     O .rwdata	00000001 max_mac_system
000440b8 g     F .text	000005f0 ip_setmoptions
00037354 g     F .text	00000250 tcp_xout
0001c87c g     F .text	00000a14 alt_tse_system_add_sys
0000d208 g     F .text	00000088 __gtdf2
000451d8 g     F .text	0000002c md_fseek
00039a1c g       .text	00000000 OSStartTsk
00000000  w      *UND*	00000000 __errno
00010654 g     F .text	000002e0 OS_TCBInit
0003f11c g     F .text	000000a0 ip_reassm
00018538 g     F .text	00000048 alt_write_flash_command_32bit_device_16bit_mode
000dc8cc g     O .bss	00000010 udp_mib
00000000 g     F .entry	0000001c __reset
0002d000 g     F .text	000000e4 t_shutdown
0002ca5c g     F .text	00000150 t_recvfrom
00053b52 g     O .rwdata	00000002 OSTmrWheelTblSize
0004489c g     F .text	0000067c u_mctest_run
0001b804 g     F .text	00000070 alt_avalon_sgdma_construct_stream_to_mem_desc_burst
00041968 g     F .text	00000094 prep_ifaces
00000020 g       *ABS*	00000000 __flash_exceptions_start
00055f4c g     O .bss	00000001 to_netmain
0002818c g     F .text	000000dc pk_alloc
00055e7c g     O .bss	00000001 to_sssphytask
00053af2 g     O .rwdata	00000002 OSEventSize
00001778 g     F .text	000002ec alt_SSSErrorHandler
00055ecc g     O .bss	00000001 OSPrioHighRdy
0000b878 g     F .text	00000074 _fstat_r
00051a10 g     O .rwdata	00000120 tse_mac_device
000278cc g     F .text	00000048 tk_nettick
00039d70 g     F .text	00000020 OSTaskDelHook
00018050 g     F .text	000002d8 alt_flash_program_block
00055e98 g     O .bss	00000004 errno
00049d80 g     F .text	00000014 __srget
00030f68 g     F .text	000000cc in_pcbnotify
000399fc g       .text	00000000 OSStartHighRdy
000dc0d4 g     O .bss	00000014 lilfreeq
00000ebc g     F .text	00000624 alt_uCOSIIErrorHandler
00041a24 g     F .text	00000028 evtmap_setup
000022ec g     F .text	000000b8 LEDBlinkTask
00015ed4 g     F .text	00000200 OSTaskCreateExt
00055f50 g     O .bss	00000004 tcp_sleep_timeout
00030618 g     F .text	000001d0 sbdrop
0005600c g     O .bss	00000004 net_system_exit
000dc8dc g     O .bss	00000068 icmp_mib
000360b4 g     F .text	00000078 tcp_getseq
00041e34 g     F .text	000000cc ip_raw_alloc
00020da0 g     F .text	000004e4 alt_tse_phy_set_common_speed
00011ab4 g     F .text	00000068 OSFlagPendGetFlagsRdy
00053b32 g     O .rwdata	00000002 OSTaskStatStkSize
000dbba8 g     O .bss	00000010 pmac_groups
000020f8 g     F .text	000000d0 SSSMonitorPhyTask
0002e28c g     F .text	000007e4 soreceive
00010ac0 g     F .text	00000334 OSFlagAccept
00013ef8 g     F .text	000000c8 OSQFlush
00013890 g     F .text	00000154 OSQAccept
00055eac g     O .bss	00000004 alt_argv
0005baa4 g       *ABS*	00000000 _gp
000407e8 g     F .text	00000054 ip_reasm_send_icmp_timex
0000e414 g     F .text	00000118 usleep
000470a8 g     F .text	00000048 vfflush
000dc3e8 g     O .bss	00000040 resid_semaphore
00026d5c g     F .text	00000148 hexdump
0003ecf4 g     F .text	000000a8 ip_reasm_incr_mem_useage
000294c4 g     F .text	00000034 calloc2
0002587c g     F .text	0000007c igmp_leavegroup
00015d00 g     F .text	000001d4 OSTaskCreate
0001578c g     F .text	00000574 OSTaskChangePrio
00055ec0 g     O .bss	00000004 alt_heapsem
00035f00 g     F .text	000000e8 tcp_close
00010934 g     F .text	0000018c OSDebugInit
000160d4 g     F .text	0000040c OSTaskDel
000482c8 g     F .text	0000006c vferror
0003976c g     F .text	00000064 alt_uncached_malloc
0001c370 g     F .text	00000060 tse_mac_initTransInfo2
0004339c g     F .text	000000c0 udp_alloc
00053794 g     O .rwdata	00000180 alt_fd_list
000d88a4 g     O .bss	00000370 OSFlagTbl
00055f98 g     O .bss	00000008 mbstat
000519f8 g     O .rwdata	00000018 ssspenetask
00049c30 g     F .text	00000090 _getc_r
00049b98 g     F .text	00000098 getc
0000444c g     F .text	00000008 _putchar_r
0000fc04 g     F .text	000000b8 OS_EventTaskRemove
00043ca8 g     F .text	00000158 igmpv2_chk_set_timer
00027914 g     F .text	0000002c TK_OSTimeDly
00038bdc g     F .text	00000094 alt_find_dev
00004120 g     F .text	000000a0 memcpy
0001c5f8 g     F .text	00000058 tse_mac_setMIImode
0003af94 g     F .text	00000080 task_stats
0002baec g     F .text	0000004c DOMAIN_CHECK
0002abbc g     F .text	00000040 in_broadcast
00053b1c g     O .rwdata	00000002 OSRdyTblSize
0001e694 g     F .text	00000048 alt_tse_phy_rd_mdio_addr
00056034 g     O .bss	00000004 vfsystems
000432cc g     F .text	000000d0 udp_socket
00055f20 g     O .bss	00000004 MaxMtu
00030bac g     F .text	00000158 sock_selscan
000222c0 g     F .text	0000015c triple_speed_ethernet_init
000089c8 g     F .text	0000000c _cleanup_r
0000d3a0 g     F .text	000000f8 __floatsidf
0003eaa0 g     F .text	000000d0 ip_reasm_match_frag_with_ire
0002fd5c g     F .text	00000050 socantrcvmore
0001c3d0 g     F .text	000000f0 tse_mac_sTxWrite
000043a4 g     F .text	00000014 perror
00039030 g     F .text	00000078 alt_io_redirect
0000d318 g     F .text	00000088 __ltdf2
00055f74 g     O .bss	00000004 netq_intmask
000456a8 g     F .text	00000070 hextoa
0004a7c4 g       *ABS*	00000000 __DTOR_END__
0002cdd8 g     F .text	00000228 t_send
000387bc g     F .text	000000fc alt_close
00055fa0 g     O .bss	00000002 select_wait
000044f4 g     F .text	00000014 puts
00055e88 g     O .bss	00000004 SSSLEDFreqMailbox
000273f0 g     F .text	00000044 std_out
0005882c g     O .bss	00020000 SSSMonitorPhyTaskStk
000dbbc8 g     O .bss	00000030 tse_iniche_dev_driver_data
00047eb4 g     F .text	00000138 vfslookup_locked
0002da74 g     F .text	0000009c soaccept
0000e80c g     F .text	00000130 OSEventNameGet
00055e7d g     O .bss	00000001 to_ssspenetask
00053b00 g     O .rwdata	00000002 OSFlagMax
00039950 g     F .text	00000020 altera_nios2_irq_init
000dc454 g     O .bss	0000003c tcpmib
0002d24c g     F .text	0000009c t_errno
00041a4c g     F .text	000000f0 ip_raw_open
00009d7c g     F .text	000000b0 __ratio
0000f204 g     F .text	00000100 OSIntExit
00053bec g     O .rwdata	00000004 ipRoutes
000471d4 g     F .text	00000058 vfeof
00036470 g     F .text	0000005c tcp_canceltimers
00053b3a g     O .rwdata	00000002 OSTCBSize
0001b8e8 g     F .text	00000084 alt_avalon_sgdma_construct_mem_to_stream_desc_burst
00055ecd g     O .bss	00000001 OSPrioCur
00019f30 g     F .text	000002c0 altera_avalon_jtag_uart_read
000039cc g     F .text	00000014 malloc
00056030 g     O .bss	00000004 inpcb_cachemiss
000043fc g     F .text	00000034 _printf_r
000458b0 g     F .text	000000c4 inet46_addr
0005602c g     O .bss	00000004 inpcb_cachehits
0000386c g     F .text	00000008 __udivsi3
00053754 g     O .rwdata	0000000b tcp_outflags
000dbbf8 g     O .bss	00000130 tse
0000df34 g     F .text	000000c0 isatty
0001d290 g     F .text	00000178 alt_tse_sys_enable_mdio_sharing
00053b20 g     O .rwdata	00000002 OSStkWidth
0004d66c g     O .rodata	000000c8 __mprec_tens
00046964 g     F .text	0000007c vf_alloc_and_link_vop
00053b14 g     O .rwdata	00000002 OSPtrSize
00055ffc g     O .bss	00000004 ipr_curr_mem
00024e58 g     F .text	0000006c exit_hook
00055f34 g     O .bss	00000004 igmp_cticks
0001d58c g     F .text	0000008c alt_tse_get_mac_info_index
00055f88 g     O .bss	00000004 mheap_sem_ptr
00034258 g     F .text	00000048 ip4_tcpmss
000096e4 g     F .text	00000008 __locale_charset
00053af4 g     O .rwdata	00000002 OSEventTblSize
000dc850 g     O .bss	00000014 netlist
0002ea70 g     F .text	000000a8 soshutdown
00039970 g       .text	00000000 OSCtxSw
0003aa2c g     F .text	0000004c packet_check
0004877c g     F .text	00000090 alt_icache_flush
000dc490 g     O .bss	00000014 mbufq
0002da24 g     F .text	00000050 soabort
00055e8c g     O .bss	00000004 __malloc_top_pad
000006e4 g     F .text	000000a4 alt_2_wireSendByte
00055ed0 g     O .bss	00000004 OSTCBList
00028810 g     F .text	00000110 qdel
0003a8a4 g     F .text	0000014c station_state
00041f9c g     F .text	00000184 rt_lookup
00055fb8 g     O .bss	00000004 alt_fd_list_lock
00053ac8 g     O .rwdata	00000004 __mb_cur_max
000258f8 g     F .text	0000035c igmp_validate
000096ec g     F .text	0000000c _localeconv_r
00024b74 g     F .text	000002e4 ip_startup
0002be28 g     F .text	00000298 t_accept
0002f7dc g     F .text	0000008c soisdisconnecting
0000a698 g     F .text	0000003c __i2b
000090c8 g     F .text	0000049c __sfvwrite_r
0001ba10 g     F .text	00000058 alt_avalon_sgdma_stop
0002452c g     F .text	000003d4 pktdemux
000d8c14 g     O .bss	00000c30 OSMemTbl
00055ed4 g     O .bss	00000001 OSTickStepState
0001e730 g     F .text	00000128 alt_tse_phy_wr_mdio_reg
00028ae4 g     F .text	000000ac kbhit
0002c5ec g     F .text	000001dc t_setsockopt
00004508 g     F .text	00000070 _sbrk_r
0003a2c4 g     F .text	00000084 alt_program_intel
00053914 g     O .rwdata	00000018 icmpdu_types
0001ed84 g     F .text	0000070c alt_tse_mac_group_init
00047288 g     F .text	00000220 vunlink
00022674 g     F .text	00000ae8 tse_mac_init
00053b18 g     O .rwdata	00000002 OSQMax
00026b9c g     F .text	000000b0 ccksum
000469e0 g     F .text	000000d8 vf_alloc_buffer
00056020 g     O .bss	00000004 cachedRoute
00053b80 g     O .rwdata	00000004 lilbufs
000d9844 g     O .bss	00000800 OSTaskStatStk
00045204 g     F .text	00000024 md_ftell
00026c4c g     F .text	00000068 cksum
000133a8 g     F .text	0000010c OSMemNameGet
0002d600 g     F .text	00000130 sofree
00055f28 g     O .bss	00000004 ifNumber
00053af8 g     O .rwdata	00000002 OSFlagEn
0000b9d4 g     F .text	00000078 _read_r
00053b3e g     O .rwdata	00000002 OSTimeTickHookEn
00038918 g     F .text	00000078 alt_dcache_flush
00012350 g     F .text	000000ac OS_FlagUnlink
0001445c g     F .text	00000180 OSQPost
00052338 g     O .rwdata	0000000c __lc_ctype
00053bc0 g     O .rwdata	00000004 alt_max_fd
00018328 g     F .text	00000040 alt_read_query_entry_8bit
000101e0 g     F .text	0000006c OS_MemCopy
00053b88 g     O .rwdata	00000004 bigbufs
000371a0 g     F .text	000000d4 tcp_disconnect
0001024c g     F .text	000000d4 OS_Sched
0000db30 g     F .text	00000138 __unpack_d
0000b754 g     F .text	00000110 _fclose_r
000132a4 g     F .text	00000104 OSMemGet
00012f58 g     F .text	00000130 OSMboxQuery
00016808 g     F .text	000001c4 OSTaskNameSet
0003a348 g     F .text	00000174 alt_erase_block_intel
00008848 g     F .text	00000034 fflush
00055e90 g     O .bss	00000004 __malloc_max_sbrked_mem
00055ed8 g     O .bss	00000004 OSCtxSwCtr
000dc04c g     O .bss	00000064 igmpstats
00039dc8 g     F .text	00000028 OSTimeTickHook
00026594 g     F .text	00000120 bsd_getsockopt
00053b02 g     O .rwdata	00000002 OSFlagNameSize
000dc8b4 g     O .bss	00000018 ire_stats
000023a4 g     F .text	0000009c LEDManagementTask
0003786c g     F .text	000001b8 udp_soinput
00028760 g     F .text	000000b0 putq
0000fcbc g     F .text	00000104 OS_EventTaskRemoveMulti
00055f48 g     O .bss	00000004 iniche_net_ready
00055e70 g     O .bss	00000004 debug
0000ca68 g     F .text	00000074 __adddf3
0000fab0 g     F .text	00000154 OS_EventTaskWaitMulti
00048280 g     F .text	00000048 isvfile
0002ec18 g     F .text	000004d8 sosetopt
00027750 g     F .text	000000f4 netmain
000342a0 g     F .text	0000011c tcp_mss
00009c5c g     F .text	00000120 __b2d
00045324 g     F .text	0000031c parse_ipad
00046944 g     F .text	00000020 get_vfopen_error
00053b1a g     O .rwdata	00000002 OSQSize
0000c028 g     F .text	000005b0 __umoddi3
0000e140 g     F .text	000000f0 lseek
0003aaf4 g     F .text	000000c0 inet_timer
00015038 g     F .text	0000027c OSSemPend
00001d04 g     F .text	00000060 resume_network_tasks
0001e91c g     F .text	00000278 alt_tse_phy_add_profile_default
00020008 g     F .text	00000540 alt_tse_phy_get_cap
00053abc g     O .rwdata	00000004 _global_impure_ptr
00027088 g     F .text	00000164 print_eth
00046e70 g     F .text	00000050 vfopen
0003936c g     F .text	00000120 alt_read
0000ac00 g     F .text	000005f4 _realloc_r
000014e0 g     F .text	00000298 alt_NetworkErrorHandler
00053b04 g     O .rwdata	00000002 OSLowestPrio
000dcad4 g       *ABS*	00000000 __bss_end
00038e74 g     F .text	000000f8 alt_iic_isr_register
0001b460 g     F .text	0000013c alt_avalon_sgdma_do_async_transfer
00029a5c g     F .text	00000134 m_free
00039e44 g     F .text	00000020 OSTCBInitHook
000238f4 g     F .text	00000040 tse_mac_stats
00028268 g     F .text	000002b8 pk_validate
00053b4a g     O .rwdata	00000002 OSTmrCfgTicksPerSec
0003965c g     F .text	00000110 alt_tick
000466c0 g     F .text	0000025c in_pcblookup
00012c98 g     F .text	00000134 OSMboxPost
0000ba4c g     F .text	000005dc __udivdi3
000298b4 g     F .text	000001a8 m_getnbuf
00002bac g     F .text	000001d0 SSSNiosIISimpleSocketServerTask
000285ec g     F .text	000000ac dump_buf_estats
0001fec4 g     F .text	00000144 alt_tse_phy_check_link
00055ff0 g     O .bss	00000004 arpRepsOut
00053aec g     O .rwdata	00000002 OSEventEn
0004d734 g     O .rodata	00000028 __mprec_bigtens
0000a8f4 g     F .text	00000120 __s2b
00053b46 g     O .rwdata	00000002 OSTmrCfgNameSize
0000d570 g     F .text	00000194 __floatunsidf
0003a724 g     F .text	000000f8 netmain_init
00021420 g     F .text	000000f4 marvell_cfg_sgmii
0001fd14 g     F .text	000001b0 alt_tse_phy_restart_an
00009b7c g     F .text	00000060 __mcmp
0002178c g     F .text	00000184 altera_avalon_uart_init
0003588c g     F .text	00000488 tcp_respond
00037ca8 g     F .text	0000033c udp4_sockbind
00053ab4 g     O .rwdata	00000004 __ctype_ptr
00055f78 g     O .bss	00000004 old_mode
00025610 g     F .text	0000026c igmp_joingroup
0002ace4 g     F .text	00000358 so_icmpdu
000089b0 g     F .text	00000018 __fp_lock_all
00056044 g     O .bss	00000004 vfs_dir_stale
00038e2c g     F .text	00000048 alt_ic_irq_enabled
000dbbb8 g     O .bss	00000010 pphy_profiles
000400a0 g     F .text	000000e4 ip_reasm_process_timer_tick
00048334 g     F .text	0000005c vclearerr
00026ab0 g     F .text	000000ec bsd_setsockopt
0002a0c8 g     F .text	00000058 mbuf_len
0001215c g     F .text	000000e4 OS_FlagInit
00002580 g     F .text	00000070 SSS_reset_connection
000395c4 g     F .text	00000098 alt_alarm_stop
00048034 g     F .text	000001e8 strippath
000279b0 g     F .text	000001a0 tcp_sleep
0004a154 g     F .text	00000024 strtol
00037274 g     F .text	000000e0 tcp_usrclosed
0b440000 g       *ABS*	00000000 __alt_mem_descriptor_memory
00055f64 g     O .bss	00000004 cticks_factor
00053b28 g     O .rwdata	00000002 OSTaskIdleStkSize
00046104 g     F .text	00000254 in_pcbbind
00055fbc g     O .bss	00000004 alt_irq_active
00014bc4 g     F .text	000000c0 OSSemAccept
000135d4 g     F .text	000000f0 OSMemPut
00013088 g     F .text	0000021c OSMemCreate
00055edc g     O .bss	00000004 OSIdleCtrMax
000000ec g     F .exceptions	000000d0 alt_irq_handler
0005376c g     O .rwdata	00000028 alt_dev_null
00037634 g     F .text	00000040 tcp_pktfree
00053b9a g     O .rwdata	00000001 tcprexmtthresh
00053b3c g     O .rwdata	00000002 OSTicksPerSec
0003c764 g     F .text	00000098 if_killsocks
0003d21c g     F .text	00000248 ip_write
00040c3c g     F .text	0000060c ip_rcv_phase2
0002c3ac g     F .text	00000044 t_getsockname
0002c0c0 g     F .text	000002a8 t_connect
00053b94 g     O .rwdata	00000004 TCPTV_MSL
000dc0e8 g     O .bss	00000010 memestats
00000e28 g     F .text	00000094 fill
0001fc00 g     F .text	00000114 alt_tse_phy_init
00028b90 g     F .text	00000060 getch
00018840 g     F .text	000000ac alt_set_flash_algorithm_func
00053a0c g     O .rwdata	00000080 vfs_root_path
0002c368 g     F .text	00000044 t_getpeername
0001ba68 g     F .text	00000070 alt_avalon_sgdma_check_descriptor_status
0003ed9c g     F .text	000000a0 ip_reasm_decr_mem_useage
0002fee8 g     F .text	00000080 soreserve
00039970 g       .text	00000000 OSIntCtxSw
000294f8 g     F .text	000000f4 npalloc
00038990 g     F .text	00000044 alt_dcache_flush_all
00009a48 g     F .text	00000070 __hi0bits
0005601c g     O .bss	00000004 ipraw_eps
00027efc g     F .text	00000290 pk_init
00044fd8 g     F .text	00000180 md_fread
00049b44 g     F .text	0000001c calloc
0002315c g     F .text	000002f8 tse_mac_raw_send
0000d498 g     F .text	000000d8 __fixdfsi
000dc6ec g     O .bss	00000064 intimers
0002ffc8 g     F .text	00000048 sbrelease
0003109c g     F .text	000000f0 ifd_clr
000308f8 g     F .text	00000094 sbdroprecord
000271ec g     F .text	00000080 uslash
000397d0 g     F .text	00000120 alt_write
000029c0 g     F .text	000001ec SSS_handle_receive
000183f4 g     F .text	0000003c alt_write_flash_command_8bit_device_8bit_mode
00055fec g     O .bss	00000004 arpRepsIn
0003ad4c g     F .text	0000017c in_timerset
00055ee0 g     O .bss	00000004 OSTCBFreeList
00053c00 g       *ABS*	00000000 __ram_rwdata_end
000152b4 g     F .text	0000017c OSSemPendAbort
000343bc g     F .text	0000117c tcp_output
00055fc8 g     O .bss	00000004 activehost
00053bb8 g     O .rwdata	00000008 alt_dev_list
00027524 g     F .text	0000022c parse_args
00055f7c g     O .bss	00000004 global_TCPwakeup_setIndx
00008ba0 g     F .text	00000058 _fputc_r
00023c28 g     F .text	00000070 write
0001bc18 g     F .text	0000007c alt_avalon_sgdma_enable_desc_poll
000295ec g     F .text	000000b8 npfree
0000ab18 g     F .text	000000e8 _putc_r
0003bae4 g     F .text	00000294 arpReply
00026ce0 g     F .text	0000007c nextarg
00053b40 g     O .rwdata	00000002 OSVersionNbr
0003f74c g     F .text	00000594 ip_reasm_process_subsequent_fragments
00053bf8 g     O .rwdata	00000004 pton_error
0007882c g     O .bss	00020000 SSSInitialTaskStk
000dbd28 g     O .bss	00000014 rcvdq
00031034 g     F .text	00000068 tcp_notify
00051998 g       *ABS*	00000000 __ram_rodata_end
0000de00 g     F .text	000000d4 fstat
0000387c g     F .text	0000002c fprintf
0002db10 g     F .text	000000d4 soconnect
00041f40 g     F .text	0000005c ip_raw_maxalloc
00021614 g     F .text	00000080 DP83848C_link_status_read
00019694 g     F .text	000000dc alt_check_primary_table
00002440 g     F .text	0000007c SSSCreateOSDataStructs
00046644 g     F .text	0000007c in_setpeeraddr
00053ae8 g     O .rwdata	00000004 OSEndiannessTest
00028bf0 g     F .text	0000003c clock_init
000470f0 g     F .text	000000e4 vfgets
0003b118 g     F .text	0000017c et_send
0000a7d4 g     F .text	00000120 __pow5mult
00055e9c g     O .bss	00000004 __nlocale_changed
00003874 g     F .text	00000008 __umodsi3
00017e84 g     F .text	00000068 alt_flash_cfi_read
000185c8 g     F .text	00000034 alt_write_native_8bit
00045640 g     F .text	00000068 inet_addr
0003ec5c g     F .text	00000098 ip_reasm_check_mem_useage
0002eb18 g     F .text	00000100 sorflush
0004a18c g     F .text	00000020 vprintf
000dc1fc g     O .bss	000000fc global_tcb_ext
0003d8ec g     F .text	00000488 ip_fragment_lc
000dbd3c g     O .bss	00000300 netstatic
0002bbc8 g     F .text	0000017c t_bind
0001b874 g     F .text	00000074 alt_avalon_sgdma_construct_mem_to_stream_desc
00053afa g     O .rwdata	00000002 OSFlagGrpSize
00045f38 g     F .text	000000e4 udp_close
0001b96c g     F .text	00000050 alt_avalon_sgdma_register_callback
000291dc g     F .text	0000021c alt_iniche_init
000dcad4 g       *ABS*	00000000 end
00028e14 g     F .text	00000088 UNLOCK_NET_RESOURCE
0002241c g     F .text	00000258 prep_tse_mac
0002c96c g     F .text	000000f0 t_recv
00018430 g     F .text	0000007c alt_write_flash_command_16bit_device_8bit_mode
0001aca0 g     F .text	00000538 altera_avalon_lcd_16207_write
000474a8 g     F .text	000001ac vfread
00024444 g     F .text	000000e8 netclose
00049b2c g     F .text	0000000c _atoi_r
00022018 g     F .text	00000248 altera_avalon_uart_write
0001c6a4 g     F .text	000001d8 alt_tse_phy_add_profile
00018968 g     F .text	00000580 alt_read_cfi_table
00053ba4 g     O .rwdata	00000004 tcp_keepintvl
000198b8 g     F .text	00000138 altera_avalon_jtag_uart_init
000104c4 g     F .text	000000c8 OS_TaskStat
00053b58 g     O .rwdata	00000004 tse_mac_name
00000208 g     F .text	000001a8 get_DE2_115_mac_addr
0005370c g     O .rwdata	00000018 tcp_protosw
0004a7c0 g       *ABS*	00000000 __CTOR_LIST__
00056040 g     O .bss	00000004 vfopen_error
08000000 g       *ABS*	00000000 __alt_stack_pointer
00055fb0 g     O .bss	00000004 tcp_maxidle
00056028 g     O .bss	00000004 firstudp
0001bc94 g     F .text	0000005c alt_avalon_sgdma_disable_desc_poll
0001c2b4 g     F .text	00000090 alt_avalon_timer_sc_init
000216ec g     F .text	00000058 altera_avalon_uart_write_fd
0000d79c g     F .text	00000080 __clzsi2
00021744 g     F .text	00000048 altera_avalon_uart_close_fd
0001a1f0 g     F .text	000002dc altera_avalon_jtag_uart_write
0001b6c0 g     F .text	00000070 alt_avalon_sgdma_construct_mem_to_mem_desc
00017a60 g     F .text	0000009c alt_flash_cfi_init
000088d4 g     F .text	00000004 __sfp_lock_acquire
0000993c g     F .text	000000e4 memchr
0001018c g     F .text	00000054 OS_MemClr
00004e74 g     F .text	00001eac ___vfprintf_internal_r
00039a40 g     F .text	00000310 OSTaskStkInit
000045ec g     F .text	00000060 _sprintf_r
0001b7b0 g     F .text	00000054 alt_avalon_sgdma_construct_stream_to_mem_desc
00008db4 g     F .text	00000314 _free_r
00043e00 g     F .text	00000170 igmpv2_chk4_rtr_alert_opt
0002d0e4 g     F .text	000000d0 t_socketclose
0000f80c g     F .text	00000194 OS_EventTaskRdy
00049d34 g     F .text	0000004c __srget_r
0004a358 g     F .text	000001b0 __call_exitprocs
00023454 g     F .text	000000a8 tse_sgdmaRx_isr
00055ee4 g     O .bss	00000001 OSCPUUsage
000dc03c g     O .bss	00000010 nets
00028d54 g     F .text	000000c0 LOCK_NET_RESOURCE
00055ea0 g     O .bss	00000004 __mlocale_changed
000236a4 g     F .text	00000250 tse_mac_rcv
0002bb38 g     F .text	00000090 t_socket
00053ac4 g     O .rwdata	00000004 __malloc_sbrk_base
000001bc g     F .text	0000004c _start
0003b0c4 g     F .text	00000054 etainit
00055fc0 g     O .bss	00000004 _alt_tick_rate
0003aa78 g     F .text	00000024 mcastlist
00013fc0 g     F .text	00000320 OSQPend
000dc0f8 g     O .bss	000000f0 pktlog
00043910 g     F .text	0000014c igmpv2_process_report
00031200 g     F .text	00000080 ifd_isset
00042548 g     F .text	00000144 del_route
0009882c g     O .bss	00020000 LEDBlinkTaskStk
0001bad8 g     F .text	00000058 alt_avalon_sgdma_open
00004e14 g     F .text	00000008 _user_strerror
000171cc g     F .text	0000014c OSTimeDly
00001d64 g     F .text	00000038 get_mac_addr
0002d510 g     F .text	000000f0 solisten
0000a364 g     F .text	0000014c __lshift
00055fc4 g     O .bss	00000004 _alt_nticks
0001e858 g     F .text	000000c4 alt_tse_phy_rd_mdio_reg
00023bb0 g     F .text	00000078 read
00017798 g     F .text	00000290 alt_sys_init
00035fe8 g     F .text	0000004c tcp_quench
0002726c g     F .text	00000184 ns_printf
0003c5e8 g     F .text	000000e0 isbcast
00028e9c g     F .text	00000214 TK_NEWTASK
0004a220 g     F .text	00000134 __register_exitproc
00055ee5 g     O .bss	00000001 OSTaskCtr
0003eb70 g     F .text	000000ec ip_reasm_determine_type_of_frag
00055f14 g     O .bss	00000001 phy_profile_count
00049e20 g     F .text	000000f0 strncmp
0001d50c g     F .text	00000080 alt_tse_get_mac_group_index
00018368 g     F .text	00000044 alt_read_query_entry_16bit
00017318 g     F .text	00000174 OSTimeDlyHMSM
00039584 g     F .text	00000040 alt_remap_uncached
00041b3c g     F .text	000000c0 ip_raw_close
0000a4b0 g     F .text	000001e8 __multiply
0005395c g     O .rwdata	000000b0 mdlist
00019dc8 g     F .text	00000074 altera_avalon_jtag_uart_close
000250d4 g     F .text	000000f8 igmp_input
0003d814 g     F .text	000000d8 ip_raw_write
00051998 g       *ABS*	00000000 __ram_rwdata_start
00047654 g     F .text	000003e8 vfwrite_locked
0004a7c4 g       *ABS*	00000000 __ram_rodata_start
00058790 g     O .bss	00000028 __malloc_current_mallinfo
00053aee g     O .rwdata	00000002 OSEventMax
00045974 g     F .text	00000074 inet_setport
00018660 g     F .text	000001e0 alt_set_flash_width_func
0000a05c g     F .text	0000017c __d2b
00015430 g     F .text	00000128 OSSemPost
00033d30 g     F .text	00000190 tcp_dooptions
0002f6e0 g     F .text	000000fc soisconnected
00000cdc g     F .text	000000dc hexdump_eeprom
0000f390 g     F .text	000000e4 OSSchedUnlock
000419fc g     F .text	00000028 netexit
000519e0 g     O .rwdata	00000018 sssphytask
00055f44 g     O .bss	00000004 nettick_wakes
0001e6dc g     F .text	00000054 alt_tse_phy_wr_mdio_addr
00055fa4 g     O .bss	00000001 tcpprintfs
0003aec8 g     F .text	000000a8 in_timerkill
000437b0 g     F .text	00000160 igmpv2_input
00019770 g     F .text	00000058 altera_avalon_jtag_uart_read_fd
00026cb4 g     F .text	0000002c do_trap
00048688 g     F .text	000000f4 alt_get_fd
000266b4 g     F .text	00000104 bsd_ioctl
00055ee8 g     O .bss	00000004 OSMemFreeList
0000f4e4 g     F .text	000000ac OSStatInit
0002a3d8 g     F .text	000001ec tcp_rcv
00027044 g     F .text	00000044 panic
00056048 g     O .bss	00000004 vfs_open_files
000249d0 g     F .text	000001a4 ip2mac
00038670 g     F .text	0000014c alt_busy_sleep
00011ec4 g     F .text	000000d4 OSFlagQuery
0000dc68 g     F .text	000000c8 __fpcmp_parts_d
00030d04 g     F .text	00000264 sock_select
0003571c g     F .text	00000058 tcp_init
00055f80 g     O .bss	00000004 cticks
00055f4d g     O .bss	00000001 to_nettick
00053b24 g     O .rwdata	00000002 OSTaskCreateExtEn
0000b6e4 g     F .text	00000070 _close_r
00023c98 g     F .text	0000064c Netinit
0002948c g     F .text	00000038 prep_armintcp
00041678 g     F .text	00000168 in_addmulti
00035774 g     F .text	00000118 tcp_template
00020a84 g     F .text	0000031c alt_tse_phy_get_common_speed
0002a1c8 g     F .text	00000070 remque
00039ecc g     F .text	00000218 alt_erase_block_amd
0004a178 g     F .text	00000014 _vprintf_r
000312f0 g     F .text	00000408 tcp_reass
00045b34 g     F .text	000001cc tcp_cksum
00037fe4 g     F .text	000003dc udp4_socksend
00046ec0 g     F .text	000001a8 vfclose_locked
0003118c g     F .text	00000074 ifd_set
00049cc0 g     F .text	00000074 memcmp
0000f7f0 g     F .text	0000001c OS_Dummy
00019820 g     F .text	00000048 altera_avalon_jtag_uart_close_fd
00055f24 g     O .bss	00000004 NDEBUG
000dcad4 g       *ABS*	00000000 __alt_stack_base
00055e6c g     O .bss	00000004 last_flash_sector
00019868 g     F .text	00000050 altera_avalon_jtag_uart_ioctl_fd
0002ff68 g     F .text	00000060 sbreserve
00055f15 g     O .bss	00000001 mac_group_count
00041bfc g     F .text	00000238 ip_raw_input
000038dc g     F .text	0000009c _fwrite_r
00053b84 g     O .rwdata	00000004 lilbufsiz
00031280 g     F .text	00000070 ifd_get
0002fe4c g     F .text	0000009c sbwakeup
00006d44 g     F .text	0000013c __swsetup_r
00018ee8 g     F .text	000007ac alt_read_cfi_width
000da044 g     O .bss	000001e0 OSQTbl
00033fec g     F .text	0000026c tcp_xmit_timer
000234fc g     F .text	000001a8 tse_sgdma_read_init
0000cea0 g     F .text	00000258 __divdf3
00008a4c g     F .text	000000f0 __sfp
0003c8f8 g     F .text	000001a4 ip_bldhead
00009ec0 g     F .text	00000058 __copybits
00030010 g     F .text	000000a8 sbappend
00051f30 g     O .rwdata	00000408 __malloc_av_
000088e0 g     F .text	00000004 __sinit_lock_release
00055eec g     O .bss	00000004 OSTCBHighRdy
0000cadc g     F .text	000003c4 __muldf3
0003d464 g     F .text	000003b0 ip_write2
0000b350 g     F .text	00000060 __sread
00053be4 g     O .rwdata	00000004 arp_ageout
00055ef0 g     O .bss	00000004 OSQFreeList
0001f490 g     F .text	00000418 alt_tse_mac_get_phy
0003c7fc g     F .text	000000fc ip_init
00048568 g     F .text	00000120 alt_find_file
00041f00 g     F .text	00000040 ip_raw_free
0003b9d0 g     F .text	00000114 make_arp_entry
00038a00 g     F .text	000000b4 alt_dev_llist_insert
0000e634 g     F .text	00000108 __malloc_lock
000038a8 g     F .text	00000034 _fprintf_r
0000e358 g     F .text	000000bc sbrk
000377fc g     F .text	00000070 udp_lookup
0001b9bc g     F .text	00000054 alt_avalon_sgdma_start
0000e93c g     F .text	00000144 OSEventNameSet
0000864c g     F .text	000001fc _fflush_r
00000904 g     F .text	000001ec readRandom
0001d7e4 g     F .text	00000098 alt_tse_mac_set_duplex
0000b630 g     F .text	000000b4 _calloc_r
00055ef4 g     O .bss	00000001 OSRdyGrp
00044f90 g     F .text	00000028 md_fopen
00053724 g     O .rwdata	00000018 udp_protosw
00053ad0 g     O .rwdata	00000008 alt_flash_dev_list
000184f4 g     F .text	00000044 alt_write_flash_command_16bit_device_16bit_mode
000465c8 g     F .text	0000007c in_setsockaddr
00055e68 g       *ABS*	00000000 __bss_start
000300b8 g     F .text	000000e0 sbappendrecord
000dc864 g     O .bss	00000050 ip_mib
000042a0 g     F .text	00000098 memset
0002dbe4 g     F .text	000000a0 sodisconnect
00002270 g     F .text	0000007c main
000006b4 g     F .text	00000030 alt_2_wireStop
00055eb0 g     O .bss	00000004 alt_envp
00055e94 g     O .bss	00000004 __malloc_max_total_mem
00029ef8 g     F .text	000001d0 m_adj
000197c8 g     F .text	00000058 altera_avalon_jtag_uart_write_fd
0000b59c g     F .text	0000001c __swbuf
00045228 g     F .text	000000d8 md_fgetc
0004d8b4 g     O .rodata	00000100 OSUnMapTbl
0003e444 g     F .text	000002b8 ip_dump
00027cf4 g     F .text	00000208 tk_stats
00053b6c g     O .rwdata	00000008 alt_iniche_dev_list
000b882c g     O .bss	00000078 SSSLEDCommandQTbl
0001b2a4 g     F .text	00000164 altera_avalon_lcd_16207_init
00053b60 g     O .rwdata	00000008 alt_sgdma_list
00053b1e g     O .rwdata	00000002 OSSemEn
00055f68 g     O .bss	00000004 OS_TPS
0002b304 g     F .text	000007e8 rawip_usrreq
00011b1c g     F .text	000003a8 OSFlagPost
0000b264 g     F .text	00000008 __sclose
00045850 g     F .text	00000060 print46_addr
08000000 g       *ABS*	00000000 __alt_heap_limit
0000b864 g     F .text	00000014 fclose
0000f9a0 g     F .text	00000110 OS_EventTaskWait
00049f10 g     F .text	00000244 _strtol_r
00026f18 g     F .text	0000012c print_uptime
0001058c g     F .text	000000c8 OS_TaskStatStkChk
000dc944 g     O .bss	00000190 _atexit0
000164e0 g     F .text	00000170 OSTaskDelReq
00053aa8 g     O .rwdata	00000004 SDA
00007098 g     F .text	000015b4 _dtoa_r
000039e0 g     F .text	00000740 _malloc_r
00045300 g     F .text	00000024 md_unlink
0001c564 g     F .text	00000094 tse_mac_SwReset
000460b0 g     F .text	00000054 in_pcbdetach
00053bc4 g     O .rwdata	00000004 alt_errno
00053bf4 g     O .rwdata	00000004 mdlist_size
0000f474 g     F .text	00000070 OSStart
00018580 g     F .text	00000048 alt_write_flash_command_32bit_device_32bit_mode
0004486c g     F .text	00000030 u_mctest_init
0000e5d8 g     F .text	0000005c __env_unlock
0000962c g     F .text	000000b8 _fwalk
000169cc g     F .text	00000218 OSTaskResume
000136c4 g     F .text	000000fc OSMemQuery
000459e8 g     F .text	0000014c convert_ip
0003b828 g     F .text	000001a8 find_oldest_arp
00053b30 g     O .rwdata	00000002 OSTaskStatEn
00055fe4 g     O .bss	00000004 arpReqsIn
00046ab8 g     F .text	00000050 vf_free_buffer
00017eec g     F .text	00000164 alt_write_value_to_flash
000483b4 g     F .text	00000154 alt_fcntl
00053b0a g     O .rwdata	00000002 OSMemMax
000145dc g     F .text	00000188 OSQPostFront
000185fc g     F .text	00000034 alt_write_native_16bit
00001f64 g     F .text	00000194 wait_on_phy
00028ab4 g     F .text	00000030 dtrap
00053b90 g     O .rwdata	00000004 kb_last
0000aa14 g     F .text	00000104 putc
000037ac g     F .text	00000060 __divsi3
0001d448 g     F .text	00000048 alt_tse_mac_set_common_speed
00055ef5 g     O .bss	00000003 OSRdyTbl
00053ae4 g     O .rwdata	00000002 OSDebugEn
0a800000 g       *ABS*	00000000 __alt_mem_cfi_flash
0004d790 g     O .rodata	00000014 __thenan_df
00024ec4 g     F .text	000000d0 ip_exit
00008c88 g     F .text	0000012c _malloc_trim_r
0004a7c4 g       *ABS*	00000000 __CTOR_END__
00053afc g     O .rwdata	00000002 OSFlagNodeSize
00028c48 g     F .text	0000006c cticks_hook
00053b44 g     O .rwdata	00000002 OSTmrCfgMax
0003a9f0 g     F .text	0000003c sysuptime
0000b3b0 g     F .text	000000bc strcmp
00040184 g     F .text	000001c8 ip_reasm_delete_ire
000139e4 g     F .text	00000214 OSQCreate
00028cb4 g     F .text	0000005c irq_Mask
00016650 g     F .text	000001b8 OSTaskNameGet
00055fd0 g     O .bss	00000004 nextppp
00055f5c g     O .bss	00000004 irq_level
000242e4 g     F .text	00000160 fixup_subnet_mask
0004a7c4 g       *ABS*	00000000 __flash_rodata_start
00014764 g     F .text	00000234 OSQPostOpt
0000f590 g     F .text	00000240 OSTimeTick
0003e968 g     F .text	00000138 ip_copypkt
00053b2c g     O .rwdata	00000002 OSTaskMax
0004a7c4 g       *ABS*	00000000 __DTOR_LIST__
00014c84 g     F .text	00000114 OSSemCreate
00055f38 g     O .bss	00000004 igmp_all_hosts_group
00053b50 g     O .rwdata	00000002 OSTmrWheelSize
0002fdac g     F .text	00000038 sbselqueue
00002d7c g     F .text	000009b4 SSSNiosIISimpleSocketServerPeneTask
00055f40 g     O .bss	00000004 netmain_wakes
0003bd78 g     F .text	00000260 arprcv
00027940 g     F .text	00000070 TK_OSTaskResume
00025c54 g     F .text	000003e0 igmp_print_stats
0000d180 g     F .text	00000088 __nedf2
00029744 g     F .text	000000a0 pffindtype
00053b26 g     O .rwdata	00000002 OSTaskDelEn
00053ba8 g     O .rwdata	00000004 tcp_sendspace
00047c18 g     F .text	00000134 vftell
000dc0b0 g     O .bss	00000012 eth_prt_buf
00015558 g     F .text	00000130 OSSemQuery
00013bf8 g     F .text	00000300 OSQDel
000142e0 g     F .text	0000017c OSQPendAbort
00017764 g     F .text	00000034 alt_irq_init
0001d408 g     F .text	00000040 alt_tse_mac_get_common_speed
000008c4 g     F .text	00000040 alt_2_wireInit
000dc428 g     O .bss	00000018 app_semaphore
000394ec g     F .text	00000060 alt_release_fd
00029164 g     F .text	00000078 post_app_sem
00025024 g     F .text	000000b0 igmp_init
00004578 g     F .text	00000074 sprintf
0004d7a4 g     O .rodata	00000100 __clz_tab
00045158 g     F .text	00000080 md_fwrite
00055ea4 g     O .bss	00000004 _PathLocale
00055f6c g     O .bss	00000004 tcp_sleep_count
0002a238 g     F .text	0000007c insque
00049b18 g     F .text	00000014 atexit
0005603c g     O .bss	00000004 vfsfiles
0000b5b8 g     F .text	00000078 _write_r
0004a1ac g     F .text	00000050 _vsprintf_r
00042ee4 g     F .text	000002b8 udp_send
0000f304 g     F .text	0000008c OSSchedLock
00025368 g     F .text	000002a8 igmp_send
0000978c g     F .text	0000001c setlocale
00010df4 g     F .text	0000013c OSFlagCreate
000b88a4 g     O .bss	00020000 LEDManagementTaskStk
00028d10 g     F .text	00000044 irq_Unmask
0002bd44 g     F .text	000000e4 t_listen
00053ab8 g     O .rwdata	00000004 _impure_ptr
000519c8 g     O .rwdata	00000018 ssstask
00055ea8 g     O .bss	00000004 alt_argc
00053aac g     O .rwdata	00000004 SCL
00036968 g     F .text	00000704 tcp_usrreq
00037a24 g     F .text	00000284 udp_usrreq
000296a4 g     F .text	00000054 ncpalloc
00038b78 g     F .text	00000064 _do_dtors
00053af6 g     O .rwdata	00000002 OSEventMultiEn
00053bdc g     O .rwdata	00000004 pingdelay
0003b31c g     F .text	00000074 arp_send_pending
000dbac8 g     O .bss	000000e0 tse_mac_if
000434c8 g     F .text	000002e8 igmpv1_input
0004a508 g     F .text	000001c4 __srefill_r
00000680 g     F .text	00000034 alt_2_wireStart
000293f8 g     F .text	00000074 pre_task_setup
00055f8c g     O .bss	00000004 rcvdq_sem_ptr
00026298 g     F .text	0000012c bsd_getsockname
0004034c g     F .text	00000148 ip_reasm_mark_compact_rfq
000003b0 g     F .text	00000144 FindLastFlashSectorOffset
00010f30 g     F .text	000002a8 OSFlagDel
00055ef8 g     O .bss	00000004 OSEventFreeList
00001a64 g     F .text	00000104 ws_ipset
00000020 g       .exceptions	00000000 alt_irq_entry
00012b1c g     F .text	0000017c OSMboxPendAbort
00055fe0 g     O .bss	00000004 arpcache
00049440 g     F .text	00000350 icmp_destun
000418f8 g     F .text	00000070 lookup_mcast
00047fec g     F .text	00000048 vfslookup
00041248 g     F .text	00000430 ip_demux
00009bdc g     F .text	00000080 __ulp
0000b1f4 g     F .text	00000040 __isinfd
00055f70 g     O .bss	00000004 tcp_wakeup_count
00011470 g     F .text	00000644 OSFlagPend
00053b42 g     O .rwdata	00000002 OSTmrEn
00008998 g     F .text	00000018 __fp_unlock_all
000290b0 g     F .text	000000b4 wait_app_sem
0001b408 g     F .text	00000058 altera_avalon_lcd_16207_write_fd
000375a4 g     F .text	00000090 tcp_pktalloc
00008b3c g     F .text	00000064 fputc
00053b74 g     O .rwdata	00000004 ipmcfail_str
00055f84 g     O .bss	00000004 memtrapsize
00029bd4 g     F .text	00000324 m_copy
00053bb0 g     O .rwdata	00000008 alt_fs_list
000dc4a4 g     O .bss	00000014 mfreeq
00010390 g     F .text	00000080 OS_StrCopy
0002d4b4 g     F .text	0000005c sobind
00044f18 g     F .text	00000078 init_memdev
00055e7e g     O .bss	00000001 to_ssstask
000184ac g     F .text	00000048 alt_write_flash_command_32bit_device_8bit_mode
0002a2b4 g     F .text	00000124 nptcp_init
00053b0c g     O .rwdata	00000002 OSMemNameSize
000dc2f8 g     O .bss	000000f0 global_TCPwakeup_set
00039e0c g     F .text	0000001c OSInitHookEnd
0002f868 g     F .text	000000bc soisdisconnected
00000020 g       *ABS*	00000000 __ram_exceptions_start
0003b294 g     F .text	00000088 arp_free_pending
00053b38 g     O .rwdata	00000002 OSTCBPrioTblMax
000096f8 g     F .text	00000010 localeconv
0002d730 g     F .text	000002f4 soclose
000dc1e8 g     O .bss	00000014 bigfreeq
0b420000 g       *ABS*	00000000 __alt_mem_onchip_memory2
00053b34 g     O .rwdata	00000002 OSTaskStatStkChkEn
00053bd8 g     O .rwdata	00000004 prompt
00053ba0 g     O .rwdata	00000004 tcp_keepidle
000208ec g     F .text	00000198 alt_tse_phy_set_adv_10
0002b130 g     F .text	000001d4 rawip_soinput
000124a0 g     F .text	00000114 OSMboxCreate
00038ca0 g     F .text	00000050 alt_ic_isr_register
00047a3c g     F .text	00000060 vfwrite
00053b08 g     O .rwdata	00000002 OSMemEn
0002fb40 g     F .text	000000ac soqinsque
00056014 g     O .bss	00000004 so_evtmap_delete
00003978 g     F .text	00000040 fwrite
00053b12 g     O .rwdata	00000002 OSMutexEn
00051998 g     O .rwdata	00000030 devices
00056000 g     O .bss	00000004 h_ireq
00053c00 g       *ABS*	00000000 _edata
0003dd74 g     F .text	00000624 ip_fragment
00021694 g     F .text	00000058 altera_avalon_uart_read_fd
00023a8c g     F .text	00000124 iniche_devices_init
000dc4b8 g     O .bss	00000028 tcp_saveti
00027434 g     F .text	000000f0 con_page
000dcad4 g       *ABS*	00000000 _end
0002f0f0 g     F .text	00000540 sogetopt
0000dd30 g     F .text	0000007c alt_flash_open_dev
00055efc g     O .bss	00000001 OSIntNesting
0001f8a8 g     F .text	00000238 alt_tse_mac_associate_phy
000536dc g     O .rwdata	00000030 nettasks
000285cc g     F .text	00000020 pk_get_max_intrsafe_buf_len
0003e6fc g     F .text	0000026c iproute
0002abfc g     F .text	000000e8 np_stripoptions
00056018 g     O .bss	00000001 so_evtmap
000001bc g       *ABS*	00000000 __ram_exceptions_end
00019e3c g     F .text	000000f4 altera_avalon_jtag_uart_ioctl
00008bf8 g     F .text	00000074 _fputs_r
00000af0 g     F .text	000001ec writeByte
0001748c g     F .text	00000210 OSTimeDlyResume
000024bc g     F .text	000000c4 SSSCreateTasks
00042120 g     F .text	00000428 add_route
0001131c g     F .text	00000154 OSFlagNameSet
00024900 g     F .text	000000d0 c_older
00012854 g     F .text	000002c8 OSMboxPend
00030588 g     F .text	00000090 sbflush
00044fb8 g     F .text	00000020 md_fclose
00027cc8 g     F .text	0000002c tk_yield
00016be4 g     F .text	000001fc OSTaskStkChk
00038d8c g     F .text	000000a0 alt_ic_irq_disable
0002dc84 g     F .text	00000608 sosend
00053b0e g     O .rwdata	00000002 OSMemSize
0003e398 g     F .text	000000ac ip_mymach
0001bb90 g     F .text	00000088 alt_avalon_sgdma_construct_descriptor
0000b2d4 g     F .text	0000007c __swrite
00055f58 g     O .bss	00000004 cticks_initialized
00053be0 g     O .rwdata	00000004 deflength
0002cbac g     F .text	0000022c t_sendto
00053ac0 g     O .rwdata	00000004 __malloc_trim_threshold
00004338 g     F .text	0000006c _perror_r
00055f00 g     O .bss	00000004 OSTCBCur
0002d2e8 g     F .text	000001cc socreate
00049b60 g     F .text	00000038 exit
000dc750 g     O .bss	00000100 arp_table
00056054 g     O .bss	00000004 icmpdu_hook
00053b10 g     O .rwdata	00000002 OSMemTblSize
00009564 g     F .text	000000c8 _fwalk_reent
0003af70 g     F .text	00000024 create_apptasks
00053b9c g     O .rwdata	00000004 tcp_ttl
0000a1d8 g     F .text	0000018c __mdiff
0000ddac g     F .text	00000054 alt_flash_close_dev
000296f8 g     F .text	0000004c ncpfree
0000380c g     F .text	00000060 __modsi3
00055f1c g     O .bss	00000004 MaxLnh
0001c650 g     F .text	00000054 tse_mac_setGMIImode
000457c4 g     F .text	0000008c inet_ntop
0004345c g     F .text	0000002c udp_maxalloc
0002132c g     F .text	000000f4 marvell_cfg_gmii
000123fc g     F .text	000000a4 OSMboxAccept
08000000 g       *ABS*	00000000 __alt_data_end
00000020 g     F .exceptions	00000000 alt_exception
000088d8 g     F .text	00000004 __sfp_lock_release
0000f134 g     F .text	00000054 OSInit
00000000 g       *ABS*	00000000 __alt_mem_sdram
0001fae0 g     F .text	00000120 alt_tse_phy_cfg_pcs
0001700c g     F .text	00000144 OSTaskQuery
0003a81c g     F .text	00000088 icmp_port_du
00055fb4 g     O .bss	00000004 tcp_iss
00014b18 g     F .text	000000ac OS_QInit
00049b38 g     F .text	0000000c atoi
00053b8c g     O .rwdata	00000004 bigbufsiz
00010410 g     F .text	00000058 OS_StrLen
00036034 g     F .text	00000080 tcp_putseq
000134b4 g     F .text	00000120 OSMemNameSet
0004cb68 g     O .rodata	00000101 _ctype_
00030198 g     F .text	00000208 sbappendaddr
0005604c g     O .bss	00000004 vfs_total_rw_space
000446a8 g     F .text	00000140 ip_getmoptions
00053b2a g     O .rwdata	00000002 OSTaskProfileEn
0004319c g     F .text	00000130 udpswap
00055f04 g     O .bss	00000004 OSTime
00055f90 g     O .bss	00000004 nextslow
0003612c g     F .text	00000344 tcp_slowtimo
00021ca8 g     F .text	00000060 altera_avalon_uart_close
00035d14 g     F .text	00000118 tcp_newtcpcb
0003bfd8 g     F .text	000001a8 send_via_arp
0003fce0 g     F .text	00000064 ip_reasm_find_ire
000da224 g     O .bss	00000800 OSTaskIdleStk
0004a728 g     F .text	0000002c _exit
0004821c g     F .text	00000064 isvfile_locked
0000b234 g     F .text	00000030 __isnand
00012dcc g     F .text	0000018c OSMboxPostOpt
00026948 g     F .text	00000168 bsd_select
0003851c g     F .text	00000154 alt_alarm_start
000111d8 g     F .text	00000144 OSFlagNameGet
00043488 g     F .text	00000040 udp_free
00055e74 g     O .bss	00000004 bus
00028698 g     F .text	000000c8 getq
00048390 g     F .text	00000024 prep_vfs
0001769c g     F .text	00000064 OSTimeGet
00053bd4 g     O .rwdata	00000004 name
000307e8 g     F .text	00000110 sbdropend
0000d704 g     F .text	00000098 __muldi3
000097a8 g     F .text	00000194 __smakebuf_r
00018630 g     F .text	00000030 alt_write_native_32bit
0003c180 g     F .text	00000118 cb_arpent_tmo
00004da0 g     F .text	00000074 strlen
00043f70 g     F .text	00000148 IPADDR_TO_NETP
000267b8 g     F .text	00000030 bsd_inet_ntoa
00053ab0 g     O .rwdata	00000004 device
00039d90 g     F .text	0000001c OSTaskSwHook
00039184 g     F .text	00000188 open
00045d00 g     F .text	00000238 udp_open
000daa24 g     O .bss	00000b40 OSEventTbl
0002fd0c g     F .text	00000050 socantsendmore
00056050 g     O .bss	00000004 vfs_total_dyna_files
0000d290 g     F .text	00000088 __gedf2
00053aa4 g     O .rwdata	00000004 alt_2_wireDelay
000025f0 g     F .text	00000168 SSS_send_menu
000db564 g     O .bss	00000510 OSTCBTbl
00055fe8 g     O .bss	00000004 arpReqsOut
00015688 g     F .text	00000104 OSSemSet
00053bfc g     O .rwdata	00000004 http_root_path
0003f1bc g     F .text	00000590 ip_reasm_compute_overlap
00017df4 g     F .text	00000090 alt_flash_cfi_get_info
0001c4c0 g     F .text	000000a4 tse_mac_aRxRead
00038c70 g     F .text	00000030 alt_icache_flush_all
0000464c g     F .text	000000e0 strchr
000dc0c2 g     O .bss	00000012 ipreturn
00056008 g     O .bss	00000004 port_prep
0005375f g     O .rwdata	0000000d tcp_backoff
0002f674 g     F .text	0000006c soisconnecting
000021c8 g     F .text	000000a8 SSSInitialTask
00008c6c g     F .text	0000001c fputs
00053bc8 g     O .rwdata	00000004 alt_priority_mask
00043a5c g     F .text	0000024c igmpv2_process_query
0003098c g     F .text	00000220 t_select
00014d98 g     F .text	000002a0 OSSemDel
000383c0 g     F .text	0000015c udp4_sockaddr
00055f08 g     O .bss	00000004 OSFlagFreeList
00046358 g     F .text	00000210 in_pcbconnect
00055fa8 g     O .bss	00000004 dropline
00056004 g     O .bss	00000004 ire_cticks
00038cf0 g     F .text	0000009c alt_ic_irq_enable
00000788 g     F .text	00000114 alt_2_wireReadByte
00053af0 g     O .rwdata	00000002 OSEventNameSize
000125b4 g     F .text	000002a0 OSMboxDel
00006d20 g     F .text	00000024 __vfprintf_internal
00027844 g     F .text	00000088 tk_netmain
00046568 g     F .text	00000060 in_pcbdisconnect
00055f0c g     O .bss	00000001 OSStatRdy
000dba74 g     O .bss	00000054 OSTCBPrioTbl
00021d08 g     F .text	000002b0 altera_avalon_uart_read
0000e52c g     F .text	000000ac __env_lock
00053b36 g     O .rwdata	00000002 OSTaskSwHookEn
00053938 g     O .rwdata	00000024 mdio
0001d6f8 g     F .text	000000ec alt_tse_mac_set_speed
0001b730 g     F .text	00000080 alt_avalon_sgdma_construct_mem_to_mem_desc_burst
00026034 g     F .text	00000138 bsd_accept
00053bac g     O .rwdata	00000004 tcp_recvspace
0000c9e8 g     F .text	00000080 __subdf3
000377b0 g     F .text	0000004c tcpinit
00055f3c g     O .bss	00000004 igmp_all_rtrs_group
0002b0c0 g     F .text	00000070 rawip_lookup
00001ca4 g     F .text	00000060 suspend_network_tasks
0003b014 g     F .text	000000b0 fcntl
00009ab8 g     F .text	000000c4 __lo0bits
000303a0 g     F .text	000001e8 sbcompress
00053bcc g     O .rwdata	00000008 alt_alarm_list
00035e2c g     F .text	000000d4 tcp_drop
00053afe g     O .rwdata	00000002 OSFlagWidth
00038b14 g     F .text	00000064 _do_ctors
000206dc g     F .text	00000210 alt_tse_phy_set_adv_100
000364cc g     F .text	0000049c tcp_timers
00024f94 g     F .text	00000090 if_netnumber
000447e8 g     F .text	00000084 ip_freemoptions
0002f630 g     F .text	00000044 sohasoutofband
000316f8 g     F .text	00002638 tcp_input
0002616c g     F .text	0000012c bsd_getpeername
000267e8 g     F .text	00000160 bsd_recvfrom
00023a38 g     F .text	00000054 close
00039e64 g     F .text	00000068 alt_program_amd
00055eb8 g     O .bss	00000004 alt_envsem
00055f10 g     O .bss	00000004 OSIdleCtrRun
0000f7d0 g     F .text	00000020 OSVersion
00053b48 g     O .rwdata	00000002 OSTmrCfgWheelSize
0000e054 g     F .text	00000080 alt_load
00017150 g     F .text	0000007c OS_TaskStkClr
0004691c g     F .text	00000028 set_vfopen_error
0000d81c g     F .text	00000314 __pack_d
00053b22 g     O .rwdata	00000002 OSTaskCreateEn
0001d490 g     F .text	0000007c alt_tse_get_system_index
0005373c g     O .rwdata	00000018 rawip_protosw
0002fde4 g     F .text	00000068 sbwait
0000fdc0 g     F .text	00000068 OS_EventWaitListInit
0001c198 g     F .text	000000ac alt_avalon_sgdma_init
00055fd4 g     O .bss	00000004 port_1s_callout
00039e28 g     F .text	0000001c OSTaskIdleHook
000039b8 g     F .text	00000014 free
000088dc g     F .text	00000004 __sinit_lock_acquire
00055f18 g     O .bss	00000001 number_of_tse_mac
0000a6d4 g     F .text	00000100 __multadd
00009a20 g     F .text	00000028 _Bfree
00016de0 g     F .text	0000022c OSTaskSuspend
0001c344 g     F .text	0000002c no_printf
0002f924 g     F .text	0000021c sonewconn
0004880c g     F .text	00000c34 icmprcv
000297e4 g     F .text	000000d0 pffindproto
00010468 g     F .text	0000005c OS_TaskIdle
00053b4e g     O .rwdata	00000002 OSTmrTblSize
00014998 g     F .text	00000180 OSQQuery



Disassembly of section .entry:

00000000 <__reset>:
   0:	00840014 	movui	r2,4096
   4:	1001483a 	initi	r2
   8:	10bff804 	addi	r2,r2,-32
   c:	00bffd16 	blt	zero,r2,4 <__reset+0x4>
  10:	00400034 	movhi	at,0
  14:	08406f14 	ori	at,at,444
  18:	0800683a 	jmp	at
  1c:	00000000 	call	0 <__reset>

Disassembly of section .exceptions:

00000020 <alt_exception>:
  20:	deffed04 	addi	sp,sp,-76
  24:	dfc00015 	stw	ra,0(sp)
  28:	d8400215 	stw	at,8(sp)
  2c:	d8800315 	stw	r2,12(sp)
  30:	d8c00415 	stw	r3,16(sp)
  34:	d9000515 	stw	r4,20(sp)
  38:	d9400615 	stw	r5,24(sp)
  3c:	d9800715 	stw	r6,28(sp)
  40:	d9c00815 	stw	r7,32(sp)
  44:	000b307a 	rdctl	r5,estatus
  48:	da000915 	stw	r8,36(sp)
  4c:	da400a15 	stw	r9,40(sp)
  50:	da800b15 	stw	r10,44(sp)
  54:	dac00c15 	stw	r11,48(sp)
  58:	db000d15 	stw	r12,52(sp)
  5c:	db400e15 	stw	r13,56(sp)
  60:	db800f15 	stw	r14,60(sp)
  64:	dbc01015 	stw	r15,64(sp)
  68:	d9401115 	stw	r5,68(sp)
  6c:	ebffff04 	addi	r15,ea,-4
  70:	dbc01215 	stw	r15,72(sp)
  74:	0009313a 	rdctl	r4,ipending
  78:	2880004c 	andi	r2,r5,1
  7c:	10000326 	beq	r2,zero,8c <OSCtxSw_SWITCH_PC+0x4c>
  80:	20000226 	beq	r4,zero,8c <OSCtxSw_SWITCH_PC+0x4c>
  84:	00000ec0 	call	ec <alt_irq_handler>
  88:	00000306 	br	98 <OSCtxSw_SWITCH_PC+0x58>
  8c:	df401215 	stw	ea,72(sp)
  90:	e8bfff17 	ldw	r2,-4(ea)
  94:	003da03a 	break	0
  98:	d9401117 	ldw	r5,68(sp)
  9c:	df401217 	ldw	ea,72(sp)
  a0:	dfc00017 	ldw	ra,0(sp)
  a4:	2801707a 	wrctl	estatus,r5
  a8:	d8400217 	ldw	at,8(sp)
  ac:	d8800317 	ldw	r2,12(sp)
  b0:	d8c00417 	ldw	r3,16(sp)
  b4:	d9000517 	ldw	r4,20(sp)
  b8:	d9400617 	ldw	r5,24(sp)
  bc:	d9800717 	ldw	r6,28(sp)
  c0:	d9c00817 	ldw	r7,32(sp)
  c4:	da000917 	ldw	r8,36(sp)
  c8:	da400a17 	ldw	r9,40(sp)
  cc:	da800b17 	ldw	r10,44(sp)
  d0:	dac00c17 	ldw	r11,48(sp)
  d4:	db000d17 	ldw	r12,52(sp)
  d8:	db400e17 	ldw	r13,56(sp)
  dc:	db800f17 	ldw	r14,60(sp)
  e0:	dbc01017 	ldw	r15,64(sp)
  e4:	dec01304 	addi	sp,sp,76
  e8:	ef80083a 	eret

000000ec <alt_irq_handler>:
  ec:	defff904 	addi	sp,sp,-28
  f0:	dfc00615 	stw	ra,24(sp)
  f4:	df000515 	stw	fp,20(sp)
  f8:	df000504 	addi	fp,sp,20
  fc:	000f1880 	call	f188 <OSIntEnter>
 100:	0005313a 	rdctl	r2,ipending
 104:	e0bffc15 	stw	r2,-16(fp)
 108:	e0bffc17 	ldw	r2,-16(fp)
 10c:	e0bfff15 	stw	r2,-4(fp)
 110:	e03ffd15 	stw	zero,-12(fp)
 114:	00800044 	movi	r2,1
 118:	e0bffe15 	stw	r2,-8(fp)
 11c:	e0ffff17 	ldw	r3,-4(fp)
 120:	e0bffe17 	ldw	r2,-8(fp)
 124:	1884703a 	and	r2,r3,r2
 128:	1005003a 	cmpeq	r2,r2,zero
 12c:	1000161e 	bne	r2,zero,188 <alt_irq_handler+0x9c>
 130:	e0bffd17 	ldw	r2,-12(fp)
 134:	00c003b4 	movhi	r3,14
 138:	18f17b04 	addi	r3,r3,-14868
 13c:	100490fa 	slli	r2,r2,3
 140:	10c5883a 	add	r2,r2,r3
 144:	11400017 	ldw	r5,0(r2)
 148:	e0bffd17 	ldw	r2,-12(fp)
 14c:	00c003b4 	movhi	r3,14
 150:	18f17b04 	addi	r3,r3,-14868
 154:	100490fa 	slli	r2,r2,3
 158:	10c5883a 	add	r2,r2,r3
 15c:	10800104 	addi	r2,r2,4
 160:	11000017 	ldw	r4,0(r2)
 164:	283ee83a 	callr	r5
 168:	0005313a 	rdctl	r2,ipending
 16c:	e0bffb15 	stw	r2,-20(fp)
 170:	e0bffb17 	ldw	r2,-20(fp)
 174:	e0bfff15 	stw	r2,-4(fp)
 178:	e0bfff17 	ldw	r2,-4(fp)
 17c:	1004c03a 	cmpne	r2,r2,zero
 180:	103fe31e 	bne	r2,zero,110 <alt_irq_handler+0x24>
 184:	00000706 	br	1a4 <alt_irq_handler+0xb8>
 188:	e0bffe17 	ldw	r2,-8(fp)
 18c:	1085883a 	add	r2,r2,r2
 190:	e0bffe15 	stw	r2,-8(fp)
 194:	e0bffd17 	ldw	r2,-12(fp)
 198:	10800044 	addi	r2,r2,1
 19c:	e0bffd15 	stw	r2,-12(fp)
 1a0:	003fde06 	br	11c <alt_irq_handler+0x30>
 1a4:	000f2040 	call	f204 <OSIntExit>
 1a8:	e037883a 	mov	sp,fp
 1ac:	dfc00117 	ldw	ra,4(sp)
 1b0:	df000017 	ldw	fp,0(sp)
 1b4:	dec00204 	addi	sp,sp,8
 1b8:	f800283a 	ret

Disassembly of section .text:

000001bc <_start>:
     1bc:	00820014 	movui	r2,2048
     1c0:	10000033 	initd	0(r2)
     1c4:	10bff804 	addi	r2,r2,-32
     1c8:	00bffd16 	blt	zero,r2,1c0 <_start+0x4>
     1cc:	06c20034 	movhi	sp,2048
     1d0:	dec00014 	ori	sp,sp,0
     1d4:	06800174 	movhi	gp,5
     1d8:	d6aea914 	ori	gp,gp,47780
     1dc:	00800174 	movhi	r2,5
     1e0:	10979a14 	ori	r2,r2,24168
     1e4:	00c00374 	movhi	r3,13
     1e8:	18f2b514 	ori	r3,r3,51924
     1ec:	10c00326 	beq	r2,r3,1fc <_start+0x40>
     1f0:	10000015 	stw	zero,0(r2)
     1f4:	10800104 	addi	r2,r2,4
     1f8:	10fffd36 	bltu	r2,r3,1f0 <_start+0x34>
     1fc:	000e0540 	call	e054 <alt_load>
     200:	000e2900 	call	e290 <alt_main>

00000204 <alt_after_alt_main>:
     204:	003fff06 	br	204 <alt_after_alt_main>

00000208 <get_DE2_115_mac_addr>:
     208:	defff804 	addi	sp,sp,-32
     20c:	dfc00715 	stw	ra,28(sp)
     210:	df000615 	stw	fp,24(sp)
     214:	df000604 	addi	fp,sp,24
     218:	e13fff15 	stw	r4,-4(fp)
     21c:	e03ffe15 	stw	zero,-8(fp)
     220:	d128f104 	addi	r4,gp,-23612
     224:	00003b00 	call	3b0 <FindLastFlashSectorOffset>
     228:	e0bffe15 	stw	r2,-8(fp)
     22c:	e0bffe17 	ldw	r2,-8(fp)
     230:	1004c03a 	cmpne	r2,r2,zero
     234:	1000051e 	bne	r2,zero,24c <get_DE2_115_mac_addr+0x44>
     238:	d0a8f117 	ldw	r2,-23612(gp)
     23c:	00c2a034 	movhi	r3,2688
     240:	10c5883a 	add	r2,r2,r3
     244:	d0a8f215 	stw	r2,-23608(gp)
     248:	00000306 	br	258 <get_DE2_115_mac_addr+0x50>
     24c:	01000174 	movhi	r4,5
     250:	2129f104 	addi	r4,r4,-22588
     254:	00044f40 	call	44f4 <puts>
     258:	e0bffe17 	ldw	r2,-8(fp)
     25c:	1004c03a 	cmpne	r2,r2,zero
     260:	1000091e 	bne	r2,zero,288 <get_DE2_115_mac_addr+0x80>
     264:	d0a8f217 	ldw	r2,-23608(gp)
     268:	10800037 	ldwio	r2,0(r2)
     26c:	e0bffd15 	stw	r2,-12(fp)
     270:	e0bffd17 	ldw	r2,-12(fp)
     274:	1096bfa0 	cmpeqi	r2,r2,23294
     278:	1000031e 	bne	r2,zero,288 <get_DE2_115_mac_addr+0x80>
     27c:	01000174 	movhi	r4,5
     280:	2129fd04 	addi	r4,r4,-22540
     284:	00044f40 	call	44f4 <puts>
     288:	e0bffe17 	ldw	r2,-8(fp)
     28c:	1004c03a 	cmpne	r2,r2,zero
     290:	1000411e 	bne	r2,zero,398 <get_DE2_115_mac_addr+0x190>
     294:	d0a8f217 	ldw	r2,-23608(gp)
     298:	10800104 	addi	r2,r2,4
     29c:	10800023 	ldbuio	r2,0(r2)
     2a0:	1007883a 	mov	r3,r2
     2a4:	e0bfff17 	ldw	r2,-4(fp)
     2a8:	10c00005 	stb	r3,0(r2)
     2ac:	e0bfff17 	ldw	r2,-4(fp)
     2b0:	10c00044 	addi	r3,r2,1
     2b4:	d0a8f217 	ldw	r2,-23608(gp)
     2b8:	10800144 	addi	r2,r2,5
     2bc:	10800023 	ldbuio	r2,0(r2)
     2c0:	18800005 	stb	r2,0(r3)
     2c4:	e0bfff17 	ldw	r2,-4(fp)
     2c8:	10c00084 	addi	r3,r2,2
     2cc:	d0a8f217 	ldw	r2,-23608(gp)
     2d0:	10800184 	addi	r2,r2,6
     2d4:	10800023 	ldbuio	r2,0(r2)
     2d8:	18800005 	stb	r2,0(r3)
     2dc:	e0bfff17 	ldw	r2,-4(fp)
     2e0:	10c000c4 	addi	r3,r2,3
     2e4:	d0a8f217 	ldw	r2,-23608(gp)
     2e8:	108001c4 	addi	r2,r2,7
     2ec:	10800023 	ldbuio	r2,0(r2)
     2f0:	18800005 	stb	r2,0(r3)
     2f4:	e0bfff17 	ldw	r2,-4(fp)
     2f8:	10c00104 	addi	r3,r2,4
     2fc:	d0a8f217 	ldw	r2,-23608(gp)
     300:	10800204 	addi	r2,r2,8
     304:	10800023 	ldbuio	r2,0(r2)
     308:	18800005 	stb	r2,0(r3)
     30c:	e0bfff17 	ldw	r2,-4(fp)
     310:	10c00144 	addi	r3,r2,5
     314:	d0a8f217 	ldw	r2,-23608(gp)
     318:	10800244 	addi	r2,r2,9
     31c:	10800023 	ldbuio	r2,0(r2)
     320:	18800005 	stb	r2,0(r3)
     324:	e0bfff17 	ldw	r2,-4(fp)
     328:	10800003 	ldbu	r2,0(r2)
     32c:	11403fcc 	andi	r5,r2,255
     330:	e0bfff17 	ldw	r2,-4(fp)
     334:	10800044 	addi	r2,r2,1
     338:	10800003 	ldbu	r2,0(r2)
     33c:	11803fcc 	andi	r6,r2,255
     340:	e0bfff17 	ldw	r2,-4(fp)
     344:	10800084 	addi	r2,r2,2
     348:	10800003 	ldbu	r2,0(r2)
     34c:	11c03fcc 	andi	r7,r2,255
     350:	e0bfff17 	ldw	r2,-4(fp)
     354:	108000c4 	addi	r2,r2,3
     358:	10800003 	ldbu	r2,0(r2)
     35c:	10c03fcc 	andi	r3,r2,255
     360:	e0bfff17 	ldw	r2,-4(fp)
     364:	10800104 	addi	r2,r2,4
     368:	10800003 	ldbu	r2,0(r2)
     36c:	11003fcc 	andi	r4,r2,255
     370:	e0bfff17 	ldw	r2,-4(fp)
     374:	10800144 	addi	r2,r2,5
     378:	10800003 	ldbu	r2,0(r2)
     37c:	10803fcc 	andi	r2,r2,255
     380:	d8c00015 	stw	r3,0(sp)
     384:	d9000115 	stw	r4,4(sp)
     388:	d8800215 	stw	r2,8(sp)
     38c:	01000174 	movhi	r4,5
     390:	212a0504 	addi	r4,r4,-22508
     394:	00043b80 	call	43b8 <printf>
     398:	e0bffe17 	ldw	r2,-8(fp)
     39c:	e037883a 	mov	sp,fp
     3a0:	dfc00117 	ldw	ra,4(sp)
     3a4:	df000017 	ldw	fp,0(sp)
     3a8:	dec00204 	addi	sp,sp,8
     3ac:	f800283a 	ret

000003b0 <FindLastFlashSectorOffset>:
     3b0:	defff304 	addi	sp,sp,-52
     3b4:	dfc00c15 	stw	ra,48(sp)
     3b8:	df000b15 	stw	fp,44(sp)
     3bc:	df000b04 	addi	fp,sp,44
     3c0:	e13fff15 	stw	r4,-4(fp)
     3c4:	e03ff815 	stw	zero,-32(fp)
     3c8:	01000174 	movhi	r4,5
     3cc:	212a1604 	addi	r4,r4,-22440
     3d0:	000dd300 	call	dd30 <alt_flash_open_dev>
     3d4:	e0bffc15 	stw	r2,-16(fp)
     3d8:	e0bffc17 	ldw	r2,-16(fp)
     3dc:	1004c03a 	cmpne	r2,r2,zero
     3e0:	1000021e 	bne	r2,zero,3ec <FindLastFlashSectorOffset+0x3c>
     3e4:	00bfffc4 	movi	r2,-1
     3e8:	e0bff815 	stw	r2,-32(fp)
     3ec:	e0bff817 	ldw	r2,-32(fp)
     3f0:	1004c03a 	cmpne	r2,r2,zero
     3f4:	10000d1e 	bne	r2,zero,42c <FindLastFlashSectorOffset+0x7c>
     3f8:	e0bffc17 	ldw	r2,-16(fp)
     3fc:	e0bff515 	stw	r2,-44(fp)
     400:	e0bffd04 	addi	r2,fp,-12
     404:	e0bff615 	stw	r2,-40(fp)
     408:	e0bffe04 	addi	r2,fp,-8
     40c:	e0bff715 	stw	r2,-36(fp)
     410:	e0bff517 	ldw	r2,-44(fp)
     414:	10800717 	ldw	r2,28(r2)
     418:	e13ff517 	ldw	r4,-44(fp)
     41c:	e17ff617 	ldw	r5,-40(fp)
     420:	e1bff717 	ldw	r6,-36(fp)
     424:	103ee83a 	callr	r2
     428:	e0bff815 	stw	r2,-32(fp)
     42c:	e0bff817 	ldw	r2,-32(fp)
     430:	1004c03a 	cmpne	r2,r2,zero
     434:	1000231e 	bne	r2,zero,4c4 <FindLastFlashSectorOffset+0x114>
     438:	e0bffd17 	ldw	r2,-12(fp)
     43c:	e0bffb15 	stw	r2,-20(fp)
     440:	00800044 	movi	r2,1
     444:	e0bff915 	stw	r2,-28(fp)
     448:	00001206 	br	494 <FindLastFlashSectorOffset+0xe4>
     44c:	e0bff917 	ldw	r2,-28(fp)
     450:	1004913a 	slli	r2,r2,4
     454:	1007883a 	mov	r3,r2
     458:	e0bffd17 	ldw	r2,-12(fp)
     45c:	1885883a 	add	r2,r3,r2
     460:	10c00017 	ldw	r3,0(r2)
     464:	e0bffb17 	ldw	r2,-20(fp)
     468:	10800017 	ldw	r2,0(r2)
     46c:	10c0060e 	bge	r2,r3,488 <FindLastFlashSectorOffset+0xd8>
     470:	e0bff917 	ldw	r2,-28(fp)
     474:	1004913a 	slli	r2,r2,4
     478:	1007883a 	mov	r3,r2
     47c:	e0bffd17 	ldw	r2,-12(fp)
     480:	1885883a 	add	r2,r3,r2
     484:	e0bffb15 	stw	r2,-20(fp)
     488:	e0bff917 	ldw	r2,-28(fp)
     48c:	10800044 	addi	r2,r2,1
     490:	e0bff915 	stw	r2,-28(fp)
     494:	e0fffe17 	ldw	r3,-8(fp)
     498:	e0bff917 	ldw	r2,-28(fp)
     49c:	10ffeb16 	blt	r2,r3,44c <FindLastFlashSectorOffset+0x9c>
     4a0:	e0bffb17 	ldw	r2,-20(fp)
     4a4:	10c00017 	ldw	r3,0(r2)
     4a8:	e0bffb17 	ldw	r2,-20(fp)
     4ac:	10800117 	ldw	r2,4(r2)
     4b0:	1887883a 	add	r3,r3,r2
     4b4:	e0bffb17 	ldw	r2,-20(fp)
     4b8:	10800317 	ldw	r2,12(r2)
     4bc:	1885c83a 	sub	r2,r3,r2
     4c0:	e0bffa15 	stw	r2,-24(fp)
     4c4:	e0bff817 	ldw	r2,-32(fp)
     4c8:	1004c03a 	cmpne	r2,r2,zero
     4cc:	1000031e 	bne	r2,zero,4dc <FindLastFlashSectorOffset+0x12c>
     4d0:	e0fffa17 	ldw	r3,-24(fp)
     4d4:	e0bfff17 	ldw	r2,-4(fp)
     4d8:	10c00015 	stw	r3,0(r2)
     4dc:	e0bff817 	ldw	r2,-32(fp)
     4e0:	e037883a 	mov	sp,fp
     4e4:	dfc00117 	ldw	ra,4(sp)
     4e8:	df000017 	ldw	fp,0(sp)
     4ec:	dec00204 	addi	sp,sp,8
     4f0:	f800283a 	ret

000004f4 <pulldownSDA>:
     4f4:	defffe04 	addi	sp,sp,-8
     4f8:	dfc00115 	stw	ra,4(sp)
     4fc:	df000015 	stw	fp,0(sp)
     500:	d839883a 	mov	fp,sp
     504:	d0a8f417 	ldw	r2,-23600(gp)
     508:	10800117 	ldw	r2,4(r2)
     50c:	10000035 	stwio	zero,0(r2)
     510:	00005280 	call	528 <setupDelay>
     514:	e037883a 	mov	sp,fp
     518:	dfc00117 	ldw	ra,4(sp)
     51c:	df000017 	ldw	fp,0(sp)
     520:	dec00204 	addi	sp,sp,8
     524:	f800283a 	ret

00000528 <setupDelay>:
     528:	defffd04 	addi	sp,sp,-12
     52c:	dfc00215 	stw	ra,8(sp)
     530:	df000115 	stw	fp,4(sp)
     534:	df000104 	addi	fp,sp,4
     538:	e03fff15 	stw	zero,-4(fp)
     53c:	00000306 	br	54c <setupDelay+0x24>
     540:	e0bfff17 	ldw	r2,-4(fp)
     544:	10800044 	addi	r2,r2,1
     548:	e0bfff15 	stw	r2,-4(fp)
     54c:	d0e00017 	ldw	r3,-32768(gp)
     550:	e0bfff17 	ldw	r2,-4(fp)
     554:	10fffa16 	blt	r2,r3,540 <setupDelay+0x18>
     558:	01000044 	movi	r4,1
     55c:	000e4140 	call	e414 <usleep>
     560:	e037883a 	mov	sp,fp
     564:	dfc00117 	ldw	ra,4(sp)
     568:	df000017 	ldw	fp,0(sp)
     56c:	dec00204 	addi	sp,sp,8
     570:	f800283a 	ret

00000574 <pullupSDA>:
     574:	defffe04 	addi	sp,sp,-8
     578:	dfc00115 	stw	ra,4(sp)
     57c:	df000015 	stw	fp,0(sp)
     580:	d839883a 	mov	fp,sp
     584:	d0a8f417 	ldw	r2,-23600(gp)
     588:	10800117 	ldw	r2,4(r2)
     58c:	1007883a 	mov	r3,r2
     590:	00800044 	movi	r2,1
     594:	18800035 	stwio	r2,0(r3)
     598:	00005280 	call	528 <setupDelay>
     59c:	e037883a 	mov	sp,fp
     5a0:	dfc00117 	ldw	ra,4(sp)
     5a4:	df000017 	ldw	fp,0(sp)
     5a8:	dec00204 	addi	sp,sp,8
     5ac:	f800283a 	ret

000005b0 <pulldownSCL>:
     5b0:	defffe04 	addi	sp,sp,-8
     5b4:	dfc00115 	stw	ra,4(sp)
     5b8:	df000015 	stw	fp,0(sp)
     5bc:	d839883a 	mov	fp,sp
     5c0:	d0a8f417 	ldw	r2,-23600(gp)
     5c4:	10800017 	ldw	r2,0(r2)
     5c8:	10000035 	stwio	zero,0(r2)
     5cc:	00005280 	call	528 <setupDelay>
     5d0:	e037883a 	mov	sp,fp
     5d4:	dfc00117 	ldw	ra,4(sp)
     5d8:	df000017 	ldw	fp,0(sp)
     5dc:	dec00204 	addi	sp,sp,8
     5e0:	f800283a 	ret

000005e4 <pullupSCL>:
     5e4:	defffe04 	addi	sp,sp,-8
     5e8:	dfc00115 	stw	ra,4(sp)
     5ec:	df000015 	stw	fp,0(sp)
     5f0:	d839883a 	mov	fp,sp
     5f4:	d0a8f417 	ldw	r2,-23600(gp)
     5f8:	10800017 	ldw	r2,0(r2)
     5fc:	1007883a 	mov	r3,r2
     600:	00800044 	movi	r2,1
     604:	18800035 	stwio	r2,0(r3)
     608:	00005280 	call	528 <setupDelay>
     60c:	e037883a 	mov	sp,fp
     610:	dfc00117 	ldw	ra,4(sp)
     614:	df000017 	ldw	fp,0(sp)
     618:	dec00204 	addi	sp,sp,8
     61c:	f800283a 	ret

00000620 <readSDA>:
     620:	defffe04 	addi	sp,sp,-8
     624:	df000115 	stw	fp,4(sp)
     628:	df000104 	addi	fp,sp,4
     62c:	e03fff15 	stw	zero,-4(fp)
     630:	d0a8f417 	ldw	r2,-23600(gp)
     634:	10800117 	ldw	r2,4(r2)
     638:	10800104 	addi	r2,r2,4
     63c:	10000035 	stwio	zero,0(r2)
     640:	d0a8f417 	ldw	r2,-23600(gp)
     644:	10800117 	ldw	r2,4(r2)
     648:	10800037 	ldwio	r2,0(r2)
     64c:	1080004c 	andi	r2,r2,1
     650:	e0bfff15 	stw	r2,-4(fp)
     654:	d0a8f417 	ldw	r2,-23600(gp)
     658:	10800117 	ldw	r2,4(r2)
     65c:	10800104 	addi	r2,r2,4
     660:	1007883a 	mov	r3,r2
     664:	00800044 	movi	r2,1
     668:	18800035 	stwio	r2,0(r3)
     66c:	e0bfff17 	ldw	r2,-4(fp)
     670:	e037883a 	mov	sp,fp
     674:	df000017 	ldw	fp,0(sp)
     678:	dec00104 	addi	sp,sp,4
     67c:	f800283a 	ret

00000680 <alt_2_wireStart>:
     680:	defffe04 	addi	sp,sp,-8
     684:	dfc00115 	stw	ra,4(sp)
     688:	df000015 	stw	fp,0(sp)
     68c:	d839883a 	mov	fp,sp
     690:	00005e40 	call	5e4 <pullupSCL>
     694:	00005740 	call	574 <pullupSDA>
     698:	00004f40 	call	4f4 <pulldownSDA>
     69c:	00005b00 	call	5b0 <pulldownSCL>
     6a0:	e037883a 	mov	sp,fp
     6a4:	dfc00117 	ldw	ra,4(sp)
     6a8:	df000017 	ldw	fp,0(sp)
     6ac:	dec00204 	addi	sp,sp,8
     6b0:	f800283a 	ret

000006b4 <alt_2_wireStop>:
     6b4:	defffe04 	addi	sp,sp,-8
     6b8:	dfc00115 	stw	ra,4(sp)
     6bc:	df000015 	stw	fp,0(sp)
     6c0:	d839883a 	mov	fp,sp
     6c4:	00004f40 	call	4f4 <pulldownSDA>
     6c8:	00005e40 	call	5e4 <pullupSCL>
     6cc:	00005740 	call	574 <pullupSDA>
     6d0:	e037883a 	mov	sp,fp
     6d4:	dfc00117 	ldw	ra,4(sp)
     6d8:	df000017 	ldw	fp,0(sp)
     6dc:	dec00204 	addi	sp,sp,8
     6e0:	f800283a 	ret

000006e4 <alt_2_wireSendByte>:
     6e4:	defffb04 	addi	sp,sp,-20
     6e8:	dfc00415 	stw	ra,16(sp)
     6ec:	df000315 	stw	fp,12(sp)
     6f0:	df000304 	addi	fp,sp,12
     6f4:	e13fff15 	stw	r4,-4(fp)
     6f8:	008001c4 	movi	r2,7
     6fc:	e0bffe15 	stw	r2,-8(fp)
     700:	00000f06 	br	740 <alt_2_wireSendByte+0x5c>
     704:	e0ffff17 	ldw	r3,-4(fp)
     708:	e0bffe17 	ldw	r2,-8(fp)
     70c:	1885d83a 	sra	r2,r3,r2
     710:	1080004c 	andi	r2,r2,1
     714:	10803fcc 	andi	r2,r2,255
     718:	1005003a 	cmpeq	r2,r2,zero
     71c:	1000021e 	bne	r2,zero,728 <alt_2_wireSendByte+0x44>
     720:	00005740 	call	574 <pullupSDA>
     724:	00000106 	br	72c <alt_2_wireSendByte+0x48>
     728:	00004f40 	call	4f4 <pulldownSDA>
     72c:	00005e40 	call	5e4 <pullupSCL>
     730:	00005b00 	call	5b0 <pulldownSCL>
     734:	e0bffe17 	ldw	r2,-8(fp)
     738:	10bfffc4 	addi	r2,r2,-1
     73c:	e0bffe15 	stw	r2,-8(fp)
     740:	e0bffe17 	ldw	r2,-8(fp)
     744:	1004403a 	cmpge	r2,r2,zero
     748:	103fee1e 	bne	r2,zero,704 <alt_2_wireSendByte+0x20>
     74c:	00005740 	call	574 <pullupSDA>
     750:	d0a8f417 	ldw	r2,-23600(gp)
     754:	10800117 	ldw	r2,4(r2)
     758:	10800104 	addi	r2,r2,4
     75c:	10000035 	stwio	zero,0(r2)
     760:	00005e40 	call	5e4 <pullupSCL>
     764:	00006200 	call	620 <readSDA>
     768:	e0bffd15 	stw	r2,-12(fp)
     76c:	00005b00 	call	5b0 <pulldownSCL>
     770:	e0bffd17 	ldw	r2,-12(fp)
     774:	e037883a 	mov	sp,fp
     778:	dfc00117 	ldw	ra,4(sp)
     77c:	df000017 	ldw	fp,0(sp)
     780:	dec00204 	addi	sp,sp,8
     784:	f800283a 	ret

00000788 <alt_2_wireReadByte>:
     788:	defff804 	addi	sp,sp,-32
     78c:	dfc00715 	stw	ra,28(sp)
     790:	df000615 	stw	fp,24(sp)
     794:	df000604 	addi	fp,sp,24
     798:	e13ffd15 	stw	r4,-12(fp)
     79c:	e03ffb15 	stw	zero,-20(fp)
     7a0:	00005740 	call	574 <pullupSDA>
     7a4:	008001c4 	movi	r2,7
     7a8:	e0bffc15 	stw	r2,-16(fp)
     7ac:	00000c06 	br	7e0 <alt_2_wireReadByte+0x58>
     7b0:	00005e40 	call	5e4 <pullupSCL>
     7b4:	00006200 	call	620 <readSDA>
     7b8:	1007883a 	mov	r3,r2
     7bc:	e0bffc17 	ldw	r2,-16(fp)
     7c0:	1886983a 	sll	r3,r3,r2
     7c4:	e0bffb17 	ldw	r2,-20(fp)
     7c8:	10c4b03a 	or	r2,r2,r3
     7cc:	e0bffb15 	stw	r2,-20(fp)
     7d0:	00005b00 	call	5b0 <pulldownSCL>
     7d4:	e0bffc17 	ldw	r2,-16(fp)
     7d8:	10bfffc4 	addi	r2,r2,-1
     7dc:	e0bffc15 	stw	r2,-16(fp)
     7e0:	e0bffc17 	ldw	r2,-16(fp)
     7e4:	1004403a 	cmpge	r2,r2,zero
     7e8:	103ff11e 	bne	r2,zero,7b0 <alt_2_wireReadByte+0x28>
     7ec:	e0bffd17 	ldw	r2,-12(fp)
     7f0:	e0bfff15 	stw	r2,-4(fp)
     7f4:	e0ffff17 	ldw	r3,-4(fp)
     7f8:	18800060 	cmpeqi	r2,r3,1
     7fc:	1000111e 	bne	r2,zero,844 <alt_2_wireReadByte+0xbc>
     800:	e0ffff17 	ldw	r3,-4(fp)
     804:	188000a0 	cmpeqi	r2,r3,2
     808:	1000131e 	bne	r2,zero,858 <alt_2_wireReadByte+0xd0>
     80c:	e0ffff17 	ldw	r3,-4(fp)
     810:	1805003a 	cmpeq	r2,r3,zero
     814:	1000011e 	bne	r2,zero,81c <alt_2_wireReadByte+0x94>
     818:	00001406 	br	86c <alt_2_wireReadByte+0xe4>
     81c:	00005e40 	call	5e4 <pullupSCL>
     820:	00006200 	call	620 <readSDA>
     824:	e0bffa15 	stw	r2,-24(fp)
     828:	00005b00 	call	5b0 <pulldownSCL>
     82c:	e0bffa17 	ldw	r2,-24(fp)
     830:	1005003a 	cmpeq	r2,r2,zero
     834:	1000111e 	bne	r2,zero,87c <alt_2_wireReadByte+0xf4>
     838:	00bfffc4 	movi	r2,-1
     83c:	e0bffe15 	stw	r2,-8(fp)
     840:	00001006 	br	884 <alt_2_wireReadByte+0xfc>
     844:	00004f40 	call	4f4 <pulldownSDA>
     848:	00005e40 	call	5e4 <pullupSCL>
     84c:	00005b00 	call	5b0 <pulldownSCL>
     850:	00005740 	call	574 <pullupSDA>
     854:	00000906 	br	87c <alt_2_wireReadByte+0xf4>
     858:	00005740 	call	574 <pullupSDA>
     85c:	00005e40 	call	5e4 <pullupSCL>
     860:	00005b00 	call	5b0 <pulldownSCL>
     864:	00004f40 	call	4f4 <pulldownSDA>
     868:	00000406 	br	87c <alt_2_wireReadByte+0xf4>
     86c:	00006b40 	call	6b4 <alt_2_wireStop>
     870:	00ffffc4 	movi	r3,-1
     874:	e0fffe15 	stw	r3,-8(fp)
     878:	00000206 	br	884 <alt_2_wireReadByte+0xfc>
     87c:	e0bffb17 	ldw	r2,-20(fp)
     880:	e0bffe15 	stw	r2,-8(fp)
     884:	e0bffe17 	ldw	r2,-8(fp)
     888:	e037883a 	mov	sp,fp
     88c:	dfc00117 	ldw	ra,4(sp)
     890:	df000017 	ldw	fp,0(sp)
     894:	dec00204 	addi	sp,sp,8
     898:	f800283a 	ret

0000089c <alt_2_wireSetDelay>:
     89c:	defffe04 	addi	sp,sp,-8
     8a0:	df000115 	stw	fp,4(sp)
     8a4:	df000104 	addi	fp,sp,4
     8a8:	e13fff15 	stw	r4,-4(fp)
     8ac:	e0bfff17 	ldw	r2,-4(fp)
     8b0:	d0a00015 	stw	r2,-32768(gp)
     8b4:	e037883a 	mov	sp,fp
     8b8:	df000017 	ldw	fp,0(sp)
     8bc:	dec00104 	addi	sp,sp,4
     8c0:	f800283a 	ret

000008c4 <alt_2_wireInit>:
     8c4:	defffe04 	addi	sp,sp,-8
     8c8:	df000115 	stw	fp,4(sp)
     8cc:	df000104 	addi	fp,sp,4
     8d0:	e13fff15 	stw	r4,-4(fp)
     8d4:	e0bfff17 	ldw	r2,-4(fp)
     8d8:	d0a8f415 	stw	r2,-23600(gp)
     8dc:	d0a8f417 	ldw	r2,-23600(gp)
     8e0:	10800117 	ldw	r2,4(r2)
     8e4:	10800104 	addi	r2,r2,4
     8e8:	1007883a 	mov	r3,r2
     8ec:	00800044 	movi	r2,1
     8f0:	18800035 	stwio	r2,0(r3)
     8f4:	e037883a 	mov	sp,fp
     8f8:	df000017 	ldw	fp,0(sp)
     8fc:	dec00104 	addi	sp,sp,4
     900:	f800283a 	ret

00000904 <readRandom>:
     904:	defff604 	addi	sp,sp,-40
     908:	dfc00915 	stw	ra,36(sp)
     90c:	df000815 	stw	fp,32(sp)
     910:	df000804 	addi	fp,sp,32
     914:	e13ffa15 	stw	r4,-24(fp)
     918:	e17ffb15 	stw	r5,-20(fp)
     91c:	e1bffc15 	stw	r6,-16(fp)
     920:	e1fffd15 	stw	r7,-12(fp)
     924:	00006800 	call	680 <alt_2_wireStart>
     928:	e0bffa17 	ldw	r2,-24(fp)
     92c:	10c00217 	ldw	r3,8(r2)
     930:	e0bffb17 	ldw	r2,-20(fp)
     934:	1081c00c 	andi	r2,r2,1792
     938:	1005d1fa 	srai	r2,r2,7
     93c:	1888b03a 	or	r4,r3,r2
     940:	00006e40 	call	6e4 <alt_2_wireSendByte>
     944:	1005003a 	cmpeq	r2,r2,zero
     948:	10000c1e 	bne	r2,zero,97c <readRandom+0x78>
     94c:	00800174 	movhi	r2,5
     950:	108eae04 	addi	r2,r2,15032
     954:	10800017 	ldw	r2,0(r2)
     958:	11000317 	ldw	r4,12(r2)
     95c:	01400174 	movhi	r5,5
     960:	296a1a04 	addi	r5,r5,-22424
     964:	e1bffb17 	ldw	r6,-20(fp)
     968:	000387c0 	call	387c <fprintf>
     96c:	00006b40 	call	6b4 <alt_2_wireStop>
     970:	00bfffc4 	movi	r2,-1
     974:	e0bfff15 	stw	r2,-4(fp)
     978:	00005706 	br	ad8 <readRandom+0x1d4>
     97c:	e0bffb17 	ldw	r2,-20(fp)
     980:	11003fcc 	andi	r4,r2,255
     984:	00006e40 	call	6e4 <alt_2_wireSendByte>
     988:	1005003a 	cmpeq	r2,r2,zero
     98c:	10000c1e 	bne	r2,zero,9c0 <readRandom+0xbc>
     990:	00800174 	movhi	r2,5
     994:	108eae04 	addi	r2,r2,15032
     998:	10800017 	ldw	r2,0(r2)
     99c:	11000317 	ldw	r4,12(r2)
     9a0:	01400174 	movhi	r5,5
     9a4:	296a2504 	addi	r5,r5,-22380
     9a8:	e1bffb17 	ldw	r6,-20(fp)
     9ac:	000387c0 	call	387c <fprintf>
     9b0:	00006b40 	call	6b4 <alt_2_wireStop>
     9b4:	00bfffc4 	movi	r2,-1
     9b8:	e0bfff15 	stw	r2,-4(fp)
     9bc:	00004606 	br	ad8 <readRandom+0x1d4>
     9c0:	00006800 	call	680 <alt_2_wireStart>
     9c4:	e0bffa17 	ldw	r2,-24(fp)
     9c8:	10c00317 	ldw	r3,12(r2)
     9cc:	e0bffb17 	ldw	r2,-20(fp)
     9d0:	1081c00c 	andi	r2,r2,1792
     9d4:	1005d1fa 	srai	r2,r2,7
     9d8:	1888b03a 	or	r4,r3,r2
     9dc:	00006e40 	call	6e4 <alt_2_wireSendByte>
     9e0:	1005003a 	cmpeq	r2,r2,zero
     9e4:	10000c1e 	bne	r2,zero,a18 <readRandom+0x114>
     9e8:	00800174 	movhi	r2,5
     9ec:	108eae04 	addi	r2,r2,15032
     9f0:	10800017 	ldw	r2,0(r2)
     9f4:	11000317 	ldw	r4,12(r2)
     9f8:	01400174 	movhi	r5,5
     9fc:	296a3104 	addi	r5,r5,-22332
     a00:	e1bffb17 	ldw	r6,-20(fp)
     a04:	000387c0 	call	387c <fprintf>
     a08:	00006b40 	call	6b4 <alt_2_wireStop>
     a0c:	00bfffc4 	movi	r2,-1
     a10:	e0bfff15 	stw	r2,-4(fp)
     a14:	00003006 	br	ad8 <readRandom+0x1d4>
     a18:	e03ff915 	stw	zero,-28(fp)
     a1c:	00002906 	br	ac4 <readRandom+0x1c0>
     a20:	e0bffd17 	ldw	r2,-12(fp)
     a24:	10ffffc4 	addi	r3,r2,-1
     a28:	e0bff917 	ldw	r2,-28(fp)
     a2c:	1880031e 	bne	r3,r2,a3c <readRandom+0x138>
     a30:	00800084 	movi	r2,2
     a34:	e0bffe15 	stw	r2,-8(fp)
     a38:	00000206 	br	a44 <readRandom+0x140>
     a3c:	00800044 	movi	r2,1
     a40:	e0bffe15 	stw	r2,-8(fp)
     a44:	e13ffe17 	ldw	r4,-8(fp)
     a48:	00007880 	call	788 <alt_2_wireReadByte>
     a4c:	e0bff815 	stw	r2,-32(fp)
     a50:	e0bff817 	ldw	r2,-32(fp)
     a54:	1004403a 	cmpge	r2,r2,zero
     a58:	10000e1e 	bne	r2,zero,a94 <readRandom+0x190>
     a5c:	00800174 	movhi	r2,5
     a60:	108eae04 	addi	r2,r2,15032
     a64:	10800017 	ldw	r2,0(r2)
     a68:	11000317 	ldw	r4,12(r2)
     a6c:	e0fffb17 	ldw	r3,-20(fp)
     a70:	e0bff917 	ldw	r2,-28(fp)
     a74:	188d883a 	add	r6,r3,r2
     a78:	01400174 	movhi	r5,5
     a7c:	296a3c04 	addi	r5,r5,-22288
     a80:	000387c0 	call	387c <fprintf>
     a84:	00006b40 	call	6b4 <alt_2_wireStop>
     a88:	00bfffc4 	movi	r2,-1
     a8c:	e0bfff15 	stw	r2,-4(fp)
     a90:	00001106 	br	ad8 <readRandom+0x1d4>
     a94:	e0bff917 	ldw	r2,-28(fp)
     a98:	1007883a 	mov	r3,r2
     a9c:	e0bffc17 	ldw	r2,-16(fp)
     aa0:	1889883a 	add	r4,r3,r2
     aa4:	e0bff817 	ldw	r2,-32(fp)
     aa8:	1007883a 	mov	r3,r2
     aac:	00bfffc4 	movi	r2,-1
     ab0:	1884703a 	and	r2,r3,r2
     ab4:	20800005 	stb	r2,0(r4)
     ab8:	e0bff917 	ldw	r2,-28(fp)
     abc:	10800044 	addi	r2,r2,1
     ac0:	e0bff915 	stw	r2,-28(fp)
     ac4:	e0fff917 	ldw	r3,-28(fp)
     ac8:	e0bffd17 	ldw	r2,-12(fp)
     acc:	18bfd416 	blt	r3,r2,a20 <readRandom+0x11c>
     ad0:	00006b40 	call	6b4 <alt_2_wireStop>
     ad4:	e03fff15 	stw	zero,-4(fp)
     ad8:	e0bfff17 	ldw	r2,-4(fp)
     adc:	e037883a 	mov	sp,fp
     ae0:	dfc00117 	ldw	ra,4(sp)
     ae4:	df000017 	ldw	fp,0(sp)
     ae8:	dec00204 	addi	sp,sp,8
     aec:	f800283a 	ret

00000af0 <writeByte>:
     af0:	defff804 	addi	sp,sp,-32
     af4:	dfc00715 	stw	ra,28(sp)
     af8:	df000615 	stw	fp,24(sp)
     afc:	df000604 	addi	fp,sp,24
     b00:	e13ffc15 	stw	r4,-16(fp)
     b04:	e17ffd15 	stw	r5,-12(fp)
     b08:	e1bffe15 	stw	r6,-8(fp)
     b0c:	e03ffa15 	stw	zero,-24(fp)
     b10:	0009883a 	mov	r4,zero
     b14:	00006e40 	call	6e4 <alt_2_wireSendByte>
     b18:	00006800 	call	680 <alt_2_wireStart>
     b1c:	e0bffc17 	ldw	r2,-16(fp)
     b20:	10c00217 	ldw	r3,8(r2)
     b24:	e0bffd17 	ldw	r2,-12(fp)
     b28:	1081c00c 	andi	r2,r2,1792
     b2c:	1005d1fa 	srai	r2,r2,7
     b30:	1884b03a 	or	r2,r3,r2
     b34:	e0bffa15 	stw	r2,-24(fp)
     b38:	e13ffa17 	ldw	r4,-24(fp)
     b3c:	00006e40 	call	6e4 <alt_2_wireSendByte>
     b40:	1005003a 	cmpeq	r2,r2,zero
     b44:	10000c1e 	bne	r2,zero,b78 <writeByte+0x88>
     b48:	00800174 	movhi	r2,5
     b4c:	108eae04 	addi	r2,r2,15032
     b50:	10800017 	ldw	r2,0(r2)
     b54:	11000317 	ldw	r4,12(r2)
     b58:	01400174 	movhi	r5,5
     b5c:	296a4404 	addi	r5,r5,-22256
     b60:	e1bffd17 	ldw	r6,-12(fp)
     b64:	000387c0 	call	387c <fprintf>
     b68:	00006b40 	call	6b4 <alt_2_wireStop>
     b6c:	00bfffc4 	movi	r2,-1
     b70:	e0bfff15 	stw	r2,-4(fp)
     b74:	00005306 	br	cc4 <writeByte+0x1d4>
     b78:	e0bffd17 	ldw	r2,-12(fp)
     b7c:	11003fcc 	andi	r4,r2,255
     b80:	00006e40 	call	6e4 <alt_2_wireSendByte>
     b84:	1005003a 	cmpeq	r2,r2,zero
     b88:	10000c1e 	bne	r2,zero,bbc <writeByte+0xcc>
     b8c:	00800174 	movhi	r2,5
     b90:	108eae04 	addi	r2,r2,15032
     b94:	10800017 	ldw	r2,0(r2)
     b98:	11000317 	ldw	r4,12(r2)
     b9c:	01400174 	movhi	r5,5
     ba0:	296a4f04 	addi	r5,r5,-22212
     ba4:	e1bffd17 	ldw	r6,-12(fp)
     ba8:	000387c0 	call	387c <fprintf>
     bac:	00006b40 	call	6b4 <alt_2_wireStop>
     bb0:	00bfffc4 	movi	r2,-1
     bb4:	e0bfff15 	stw	r2,-4(fp)
     bb8:	00004206 	br	cc4 <writeByte+0x1d4>
     bbc:	e0bffe17 	ldw	r2,-8(fp)
     bc0:	11003fcc 	andi	r4,r2,255
     bc4:	00006e40 	call	6e4 <alt_2_wireSendByte>
     bc8:	1005003a 	cmpeq	r2,r2,zero
     bcc:	10000c1e 	bne	r2,zero,c00 <writeByte+0x110>
     bd0:	00800174 	movhi	r2,5
     bd4:	108eae04 	addi	r2,r2,15032
     bd8:	10800017 	ldw	r2,0(r2)
     bdc:	11000317 	ldw	r4,12(r2)
     be0:	01400174 	movhi	r5,5
     be4:	296a5b04 	addi	r5,r5,-22164
     be8:	e1bffd17 	ldw	r6,-12(fp)
     bec:	000387c0 	call	387c <fprintf>
     bf0:	00006b40 	call	6b4 <alt_2_wireStop>
     bf4:	00bfffc4 	movi	r2,-1
     bf8:	e0bfff15 	stw	r2,-4(fp)
     bfc:	00003106 	br	cc4 <writeByte+0x1d4>
     c00:	00006b40 	call	6b4 <alt_2_wireStop>
     c04:	e03ffb15 	stw	zero,-20(fp)
     c08:	00001f06 	br	c88 <writeByte+0x198>
     c0c:	00006800 	call	680 <alt_2_wireStart>
     c10:	e13ffa17 	ldw	r4,-24(fp)
     c14:	00006e40 	call	6e4 <alt_2_wireSendByte>
     c18:	1004c03a 	cmpne	r2,r2,zero
     c1c:	1000171e 	bne	r2,zero,c7c <writeByte+0x18c>
     c20:	e0bffb17 	ldw	r2,-20(fp)
     c24:	10800048 	cmpgei	r2,r2,1
     c28:	1000081e 	bne	r2,zero,c4c <writeByte+0x15c>
     c2c:	00800174 	movhi	r2,5
     c30:	108eae04 	addi	r2,r2,15032
     c34:	10800017 	ldw	r2,0(r2)
     c38:	11000317 	ldw	r4,12(r2)
     c3c:	01400174 	movhi	r5,5
     c40:	296a6504 	addi	r5,r5,-22124
     c44:	e1bffd17 	ldw	r6,-12(fp)
     c48:	000387c0 	call	387c <fprintf>
     c4c:	00800174 	movhi	r2,5
     c50:	108eae04 	addi	r2,r2,15032
     c54:	10800017 	ldw	r2,0(r2)
     c58:	11000317 	ldw	r4,12(r2)
     c5c:	01400174 	movhi	r5,5
     c60:	296a7504 	addi	r5,r5,-22060
     c64:	e1bffd17 	ldw	r6,-12(fp)
     c68:	e1fffb17 	ldw	r7,-20(fp)
     c6c:	000387c0 	call	387c <fprintf>
     c70:	00006b40 	call	6b4 <alt_2_wireStop>
     c74:	e03fff15 	stw	zero,-4(fp)
     c78:	00001206 	br	cc4 <writeByte+0x1d4>
     c7c:	e0bffb17 	ldw	r2,-20(fp)
     c80:	10800044 	addi	r2,r2,1
     c84:	e0bffb15 	stw	r2,-20(fp)
     c88:	e0bffb17 	ldw	r2,-20(fp)
     c8c:	1080fa10 	cmplti	r2,r2,1000
     c90:	103fde1e 	bne	r2,zero,c0c <writeByte+0x11c>
     c94:	00800174 	movhi	r2,5
     c98:	108eae04 	addi	r2,r2,15032
     c9c:	10800017 	ldw	r2,0(r2)
     ca0:	11000317 	ldw	r4,12(r2)
     ca4:	01400174 	movhi	r5,5
     ca8:	296a7e04 	addi	r5,r5,-22024
     cac:	e1bffd17 	ldw	r6,-12(fp)
     cb0:	e1fffb17 	ldw	r7,-20(fp)
     cb4:	000387c0 	call	387c <fprintf>
     cb8:	00006b40 	call	6b4 <alt_2_wireStop>
     cbc:	00bfffc4 	movi	r2,-1
     cc0:	e0bfff15 	stw	r2,-4(fp)
     cc4:	e0bfff17 	ldw	r2,-4(fp)
     cc8:	e037883a 	mov	sp,fp
     ccc:	dfc00117 	ldw	ra,4(sp)
     cd0:	df000017 	ldw	fp,0(sp)
     cd4:	dec00204 	addi	sp,sp,8
     cd8:	f800283a 	ret

00000cdc <hexdump_eeprom>:
     cdc:	defff904 	addi	sp,sp,-28
     ce0:	dfc00615 	stw	ra,24(sp)
     ce4:	df000515 	stw	fp,20(sp)
     ce8:	df000504 	addi	fp,sp,20
     cec:	e13ffd15 	stw	r4,-12(fp)
     cf0:	e17ffe15 	stw	r5,-8(fp)
     cf4:	e1bfff15 	stw	r6,-4(fp)
     cf8:	e03ffc15 	stw	zero,-16(fp)
     cfc:	00002606 	br	d98 <hexdump_eeprom+0xbc>
     d00:	e0bffc17 	ldw	r2,-16(fp)
     d04:	e0ffff17 	ldw	r3,-4(fp)
     d08:	10cb883a 	add	r5,r2,r3
     d0c:	01000174 	movhi	r4,5
     d10:	212a8b04 	addi	r4,r4,-21972
     d14:	00043b80 	call	43b8 <printf>
     d18:	e03ffb15 	stw	zero,-20(fp)
     d1c:	00001106 	br	d64 <hexdump_eeprom+0x88>
     d20:	e0fffc17 	ldw	r3,-16(fp)
     d24:	e0bffb17 	ldw	r2,-20(fp)
     d28:	1885883a 	add	r2,r3,r2
     d2c:	1007883a 	mov	r3,r2
     d30:	e0bffd17 	ldw	r2,-12(fp)
     d34:	1885883a 	add	r2,r3,r2
     d38:	10800003 	ldbu	r2,0(r2)
     d3c:	10803fcc 	andi	r2,r2,255
     d40:	1080201c 	xori	r2,r2,128
     d44:	10bfe004 	addi	r2,r2,-128
     d48:	11403fcc 	andi	r5,r2,255
     d4c:	01000174 	movhi	r4,5
     d50:	212a8e04 	addi	r4,r4,-21960
     d54:	00043b80 	call	43b8 <printf>
     d58:	e0bffb17 	ldw	r2,-20(fp)
     d5c:	10800044 	addi	r2,r2,1
     d60:	e0bffb15 	stw	r2,-20(fp)
     d64:	e0bffb17 	ldw	r2,-20(fp)
     d68:	10800408 	cmpgei	r2,r2,16
     d6c:	1000051e 	bne	r2,zero,d84 <hexdump_eeprom+0xa8>
     d70:	e0fffc17 	ldw	r3,-16(fp)
     d74:	e0bffb17 	ldw	r2,-20(fp)
     d78:	1887883a 	add	r3,r3,r2
     d7c:	e0bffe17 	ldw	r2,-8(fp)
     d80:	18bfe716 	blt	r3,r2,d20 <hexdump_eeprom+0x44>
     d84:	01000284 	movi	r4,10
     d88:	00044300 	call	4430 <putchar>
     d8c:	e0bffc17 	ldw	r2,-16(fp)
     d90:	10800404 	addi	r2,r2,16
     d94:	e0bffc15 	stw	r2,-16(fp)
     d98:	e0fffc17 	ldw	r3,-16(fp)
     d9c:	e0bffe17 	ldw	r2,-8(fp)
     da0:	18bfd716 	blt	r3,r2,d00 <hexdump_eeprom+0x24>
     da4:	e037883a 	mov	sp,fp
     da8:	dfc00117 	ldw	ra,4(sp)
     dac:	df000017 	ldw	fp,0(sp)
     db0:	dec00204 	addi	sp,sp,8
     db4:	f800283a 	ret

00000db8 <dump>:
     db8:	defffa04 	addi	sp,sp,-24
     dbc:	dfc00515 	stw	ra,20(sp)
     dc0:	df000415 	stw	fp,16(sp)
     dc4:	df000404 	addi	fp,sp,16
     dc8:	e13ffd15 	stw	r4,-12(fp)
     dcc:	e17ffe15 	stw	r5,-8(fp)
     dd0:	e1bfff15 	stw	r6,-4(fp)
     dd4:	e13fff17 	ldw	r4,-4(fp)
     dd8:	00039cc0 	call	39cc <malloc>
     ddc:	e0bffc15 	stw	r2,-16(fp)
     de0:	e13ffd17 	ldw	r4,-12(fp)
     de4:	e17ffe17 	ldw	r5,-8(fp)
     de8:	e1bffc17 	ldw	r6,-16(fp)
     dec:	e1ffff17 	ldw	r7,-4(fp)
     df0:	00009040 	call	904 <readRandom>
     df4:	1004c03a 	cmpne	r2,r2,zero
     df8:	1000041e 	bne	r2,zero,e0c <dump+0x54>
     dfc:	e13ffc17 	ldw	r4,-16(fp)
     e00:	e17fff17 	ldw	r5,-4(fp)
     e04:	e1bffe17 	ldw	r6,-8(fp)
     e08:	0000cdc0 	call	cdc <hexdump_eeprom>
     e0c:	e13ffc17 	ldw	r4,-16(fp)
     e10:	00039b80 	call	39b8 <free>
     e14:	e037883a 	mov	sp,fp
     e18:	dfc00117 	ldw	ra,4(sp)
     e1c:	df000017 	ldw	fp,0(sp)
     e20:	dec00204 	addi	sp,sp,8
     e24:	f800283a 	ret

00000e28 <fill>:
     e28:	defffb04 	addi	sp,sp,-20
     e2c:	dfc00415 	stw	ra,16(sp)
     e30:	df000315 	stw	fp,12(sp)
     e34:	df000304 	addi	fp,sp,12
     e38:	e13ffe15 	stw	r4,-8(fp)
     e3c:	e17fff05 	stb	r5,-4(fp)
     e40:	e03ffd15 	stw	zero,-12(fp)
     e44:	00000906 	br	e6c <fill+0x44>
     e48:	e1bfff07 	ldb	r6,-4(fp)
     e4c:	e13ffe17 	ldw	r4,-8(fp)
     e50:	e17ffd17 	ldw	r5,-12(fp)
     e54:	0000af00 	call	af0 <writeByte>
     e58:	1004c03a 	cmpne	r2,r2,zero
     e5c:	1000121e 	bne	r2,zero,ea8 <fill+0x80>
     e60:	e0bffd17 	ldw	r2,-12(fp)
     e64:	10800044 	addi	r2,r2,1
     e68:	e0bffd15 	stw	r2,-12(fp)
     e6c:	e0bffe17 	ldw	r2,-8(fp)
     e70:	10c00117 	ldw	r3,4(r2)
     e74:	e0bffd17 	ldw	r2,-12(fp)
     e78:	10fff316 	blt	r2,r3,e48 <fill+0x20>
     e7c:	00800174 	movhi	r2,5
     e80:	108eae04 	addi	r2,r2,15032
     e84:	10800017 	ldw	r2,0(r2)
     e88:	11000317 	ldw	r4,12(r2)
     e8c:	e0bffe17 	ldw	r2,-8(fp)
     e90:	11800117 	ldw	r6,4(r2)
     e94:	e0bfff07 	ldb	r2,-4(fp)
     e98:	11c03fcc 	andi	r7,r2,255
     e9c:	01400174 	movhi	r5,5
     ea0:	296a9004 	addi	r5,r5,-21952
     ea4:	000387c0 	call	387c <fprintf>
     ea8:	e037883a 	mov	sp,fp
     eac:	dfc00117 	ldw	ra,4(sp)
     eb0:	df000017 	ldw	fp,0(sp)
     eb4:	dec00204 	addi	sp,sp,8
     eb8:	f800283a 	ret

00000ebc <alt_uCOSIIErrorHandler>:
     ebc:	defff904 	addi	sp,sp,-28
     ec0:	dfc00615 	stw	ra,24(sp)
     ec4:	df000515 	stw	fp,20(sp)
     ec8:	df000504 	addi	fp,sp,20
     ecc:	e17ffd15 	stw	r5,-12(fp)
     ed0:	e13ffc05 	stb	r4,-16(fp)
     ed4:	e0bffc03 	ldbu	r2,-16(fp)
     ed8:	1005003a 	cmpeq	r2,r2,zero
     edc:	10017b1e 	bne	r2,zero,14cc <alt_uCOSIIErrorHandler+0x610>
     ee0:	00800084 	movi	r2,2
     ee4:	e0bffb15 	stw	r2,-20(fp)
     ee8:	000f3040 	call	f304 <OSSchedLock>
     eec:	e0bffc03 	ldbu	r2,-16(fp)
     ef0:	e0bffe15 	stw	r2,-8(fp)
     ef4:	e0fffe17 	ldw	r3,-8(fp)
     ef8:	18800a20 	cmpeqi	r2,r3,40
     efc:	1000371e 	bne	r2,zero,fdc <alt_uCOSIIErrorHandler+0x120>
     f00:	e0fffe17 	ldw	r3,-8(fp)
     f04:	18800a48 	cmpgei	r2,r3,41
     f08:	10001a1e 	bne	r2,zero,f74 <alt_uCOSIIErrorHandler+0xb8>
     f0c:	e0fffe17 	ldw	r3,-8(fp)
     f10:	18800120 	cmpeqi	r2,r3,4
     f14:	1000761e 	bne	r2,zero,10f0 <alt_uCOSIIErrorHandler+0x234>
     f18:	e0fffe17 	ldw	r3,-8(fp)
     f1c:	18800148 	cmpgei	r2,r3,5
     f20:	10000a1e 	bne	r2,zero,f4c <alt_uCOSIIErrorHandler+0x90>
     f24:	e0fffe17 	ldw	r3,-8(fp)
     f28:	188000a0 	cmpeqi	r2,r3,2
     f2c:	1000911e 	bne	r2,zero,1174 <alt_uCOSIIErrorHandler+0x2b8>
     f30:	e0fffe17 	ldw	r3,-8(fp)
     f34:	188000c8 	cmpgei	r2,r3,3
     f38:	1000771e 	bne	r2,zero,1118 <alt_uCOSIIErrorHandler+0x25c>
     f3c:	e0fffe17 	ldw	r3,-8(fp)
     f40:	18800060 	cmpeqi	r2,r3,1
     f44:	10005e1e 	bne	r2,zero,10c0 <alt_uCOSIIErrorHandler+0x204>
     f48:	0000d806 	br	12ac <alt_uCOSIIErrorHandler+0x3f0>
     f4c:	e0fffe17 	ldw	r3,-8(fp)
     f50:	18800520 	cmpeqi	r2,r3,20
     f54:	10004f1e 	bne	r2,zero,1094 <alt_uCOSIIErrorHandler+0x1d8>
     f58:	e0fffe17 	ldw	r3,-8(fp)
     f5c:	188007a0 	cmpeqi	r2,r3,30
     f60:	1000ad1e 	bne	r2,zero,1218 <alt_uCOSIIErrorHandler+0x35c>
     f64:	e0fffe17 	ldw	r3,-8(fp)
     f68:	188002a0 	cmpeqi	r2,r3,10
     f6c:	1000761e 	bne	r2,zero,1148 <alt_uCOSIIErrorHandler+0x28c>
     f70:	0000ce06 	br	12ac <alt_uCOSIIErrorHandler+0x3f0>
     f74:	e0fffe17 	ldw	r3,-8(fp)
     f78:	18801020 	cmpeqi	r2,r3,64
     f7c:	10009c1e 	bne	r2,zero,11f0 <alt_uCOSIIErrorHandler+0x334>
     f80:	e0fffe17 	ldw	r3,-8(fp)
     f84:	18801048 	cmpgei	r2,r3,65
     f88:	10000a1e 	bne	r2,zero,fb4 <alt_uCOSIIErrorHandler+0xf8>
     f8c:	e0fffe17 	ldw	r3,-8(fp)
     f90:	18800f60 	cmpeqi	r2,r3,61
     f94:	10008b1e 	bne	r2,zero,11c4 <alt_uCOSIIErrorHandler+0x308>
     f98:	e0fffe17 	ldw	r3,-8(fp)
     f9c:	18800fa0 	cmpeqi	r2,r3,62
     fa0:	10007e1e 	bne	r2,zero,119c <alt_uCOSIIErrorHandler+0x2e0>
     fa4:	e0fffe17 	ldw	r3,-8(fp)
     fa8:	18800aa0 	cmpeqi	r2,r3,42
     fac:	1000151e 	bne	r2,zero,1004 <alt_uCOSIIErrorHandler+0x148>
     fb0:	0000be06 	br	12ac <alt_uCOSIIErrorHandler+0x3f0>
     fb4:	e0fffe17 	ldw	r3,-8(fp)
     fb8:	18801920 	cmpeqi	r2,r3,100
     fbc:	1000a11e 	bne	r2,zero,1244 <alt_uCOSIIErrorHandler+0x388>
     fc0:	e0fffe17 	ldw	r3,-8(fp)
     fc4:	18803fe0 	cmpeqi	r2,r3,255
     fc8:	1000aa1e 	bne	r2,zero,1274 <alt_uCOSIIErrorHandler+0x3b8>
     fcc:	e0fffe17 	ldw	r3,-8(fp)
     fd0:	188010a0 	cmpeqi	r2,r3,66
     fd4:	10001d1e 	bne	r2,zero,104c <alt_uCOSIIErrorHandler+0x190>
     fd8:	0000b406 	br	12ac <alt_uCOSIIErrorHandler+0x3f0>
     fdc:	00800174 	movhi	r2,5
     fe0:	108eae04 	addi	r2,r2,15032
     fe4:	10800017 	ldw	r2,0(r2)
     fe8:	11c00317 	ldw	r7,12(r2)
     fec:	01000174 	movhi	r4,5
     ff0:	212a9904 	addi	r4,r4,-21916
     ff4:	01400044 	movi	r5,1
     ff8:	01800c44 	movi	r6,49
     ffc:	00039780 	call	3978 <fwrite>
    1000:	0000c106 	br	1308 <alt_uCOSIIErrorHandler+0x44c>
    1004:	00800174 	movhi	r2,5
    1008:	108eae04 	addi	r2,r2,15032
    100c:	10800017 	ldw	r2,0(r2)
    1010:	11c00317 	ldw	r7,12(r2)
    1014:	01000174 	movhi	r4,5
    1018:	212aa604 	addi	r4,r4,-21864
    101c:	01400044 	movi	r5,1
    1020:	01800c44 	movi	r6,49
    1024:	00039780 	call	3978 <fwrite>
    1028:	00800174 	movhi	r2,5
    102c:	108eae04 	addi	r2,r2,15032
    1030:	10800017 	ldw	r2,0(r2)
    1034:	11000317 	ldw	r4,12(r2)
    1038:	01400174 	movhi	r5,5
    103c:	296ab304 	addi	r5,r5,-21812
    1040:	01800504 	movi	r6,20
    1044:	000387c0 	call	387c <fprintf>
    1048:	0000af06 	br	1308 <alt_uCOSIIErrorHandler+0x44c>
    104c:	00800174 	movhi	r2,5
    1050:	108eae04 	addi	r2,r2,15032
    1054:	10800017 	ldw	r2,0(r2)
    1058:	11c00317 	ldw	r7,12(r2)
    105c:	01000174 	movhi	r4,5
    1060:	212ac004 	addi	r4,r4,-21760
    1064:	01400044 	movi	r5,1
    1068:	01800a04 	movi	r6,40
    106c:	00039780 	call	3978 <fwrite>
    1070:	00800174 	movhi	r2,5
    1074:	108eae04 	addi	r2,r2,15032
    1078:	10800017 	ldw	r2,0(r2)
    107c:	11000317 	ldw	r4,12(r2)
    1080:	01400174 	movhi	r5,5
    1084:	296acb04 	addi	r5,r5,-21716
    1088:	01800284 	movi	r6,10
    108c:	000387c0 	call	387c <fprintf>
    1090:	00009d06 	br	1308 <alt_uCOSIIErrorHandler+0x44c>
    1094:	e03ffb15 	stw	zero,-20(fp)
    1098:	00800174 	movhi	r2,5
    109c:	108eae04 	addi	r2,r2,15032
    10a0:	10800017 	ldw	r2,0(r2)
    10a4:	11c00317 	ldw	r7,12(r2)
    10a8:	01000174 	movhi	r4,5
    10ac:	212ad404 	addi	r4,r4,-21680
    10b0:	01400044 	movi	r5,1
    10b4:	01800c84 	movi	r6,50
    10b8:	00039780 	call	3978 <fwrite>
    10bc:	00009206 	br	1308 <alt_uCOSIIErrorHandler+0x44c>
    10c0:	00800044 	movi	r2,1
    10c4:	e0bffb15 	stw	r2,-20(fp)
    10c8:	00800174 	movhi	r2,5
    10cc:	108eae04 	addi	r2,r2,15032
    10d0:	10800017 	ldw	r2,0(r2)
    10d4:	11c00317 	ldw	r7,12(r2)
    10d8:	01000174 	movhi	r4,5
    10dc:	212ae104 	addi	r4,r4,-21628
    10e0:	01400044 	movi	r5,1
    10e4:	01801244 	movi	r6,73
    10e8:	00039780 	call	3978 <fwrite>
    10ec:	00008606 	br	1308 <alt_uCOSIIErrorHandler+0x44c>
    10f0:	00800174 	movhi	r2,5
    10f4:	108eae04 	addi	r2,r2,15032
    10f8:	10800017 	ldw	r2,0(r2)
    10fc:	11c00317 	ldw	r7,12(r2)
    1100:	01000174 	movhi	r4,5
    1104:	212af404 	addi	r4,r4,-21552
    1108:	01400044 	movi	r5,1
    110c:	01800c44 	movi	r6,49
    1110:	00039780 	call	3978 <fwrite>
    1114:	00007c06 	br	1308 <alt_uCOSIIErrorHandler+0x44c>
    1118:	00800044 	movi	r2,1
    111c:	e0bffb15 	stw	r2,-20(fp)
    1120:	00800174 	movhi	r2,5
    1124:	108eae04 	addi	r2,r2,15032
    1128:	10800017 	ldw	r2,0(r2)
    112c:	11c00317 	ldw	r7,12(r2)
    1130:	01000174 	movhi	r4,5
    1134:	212b0104 	addi	r4,r4,-21500
    1138:	01400044 	movi	r5,1
    113c:	01800a44 	movi	r6,41
    1140:	00039780 	call	3978 <fwrite>
    1144:	00007006 	br	1308 <alt_uCOSIIErrorHandler+0x44c>
    1148:	e03ffb15 	stw	zero,-20(fp)
    114c:	00800174 	movhi	r2,5
    1150:	108eae04 	addi	r2,r2,15032
    1154:	10800017 	ldw	r2,0(r2)
    1158:	11c00317 	ldw	r7,12(r2)
    115c:	01000174 	movhi	r4,5
    1160:	212b0c04 	addi	r4,r4,-21456
    1164:	01400044 	movi	r5,1
    1168:	01800a04 	movi	r6,40
    116c:	00039780 	call	3978 <fwrite>
    1170:	00006506 	br	1308 <alt_uCOSIIErrorHandler+0x44c>
    1174:	00800174 	movhi	r2,5
    1178:	108eae04 	addi	r2,r2,15032
    117c:	10800017 	ldw	r2,0(r2)
    1180:	11c00317 	ldw	r7,12(r2)
    1184:	01000174 	movhi	r4,5
    1188:	212b1704 	addi	r4,r4,-21412
    118c:	01400044 	movi	r5,1
    1190:	01800b04 	movi	r6,44
    1194:	00039780 	call	3978 <fwrite>
    1198:	00005b06 	br	1308 <alt_uCOSIIErrorHandler+0x44c>
    119c:	00800174 	movhi	r2,5
    11a0:	108eae04 	addi	r2,r2,15032
    11a4:	10800017 	ldw	r2,0(r2)
    11a8:	11c00317 	ldw	r7,12(r2)
    11ac:	01000174 	movhi	r4,5
    11b0:	212b2304 	addi	r4,r4,-21364
    11b4:	01400044 	movi	r5,1
    11b8:	01800884 	movi	r6,34
    11bc:	00039780 	call	3978 <fwrite>
    11c0:	00005106 	br	1308 <alt_uCOSIIErrorHandler+0x44c>
    11c4:	e03ffb15 	stw	zero,-20(fp)
    11c8:	00800174 	movhi	r2,5
    11cc:	108eae04 	addi	r2,r2,15032
    11d0:	10800017 	ldw	r2,0(r2)
    11d4:	11c00317 	ldw	r7,12(r2)
    11d8:	01000174 	movhi	r4,5
    11dc:	212b2c04 	addi	r4,r4,-21328
    11e0:	01400044 	movi	r5,1
    11e4:	01800bc4 	movi	r6,47
    11e8:	00039780 	call	3978 <fwrite>
    11ec:	00004606 	br	1308 <alt_uCOSIIErrorHandler+0x44c>
    11f0:	00800174 	movhi	r2,5
    11f4:	108eae04 	addi	r2,r2,15032
    11f8:	10800017 	ldw	r2,0(r2)
    11fc:	11c00317 	ldw	r7,12(r2)
    1200:	01000174 	movhi	r4,5
    1204:	212b3804 	addi	r4,r4,-21280
    1208:	01400044 	movi	r5,1
    120c:	018009c4 	movi	r6,39
    1210:	00039780 	call	3978 <fwrite>
    1214:	00003c06 	br	1308 <alt_uCOSIIErrorHandler+0x44c>
    1218:	e03ffb15 	stw	zero,-20(fp)
    121c:	00800174 	movhi	r2,5
    1220:	108eae04 	addi	r2,r2,15032
    1224:	10800017 	ldw	r2,0(r2)
    1228:	11c00317 	ldw	r7,12(r2)
    122c:	01000174 	movhi	r4,5
    1230:	212b4204 	addi	r4,r4,-21240
    1234:	01400044 	movi	r5,1
    1238:	01800a84 	movi	r6,42
    123c:	00039780 	call	3978 <fwrite>
    1240:	00003106 	br	1308 <alt_uCOSIIErrorHandler+0x44c>
    1244:	00800044 	movi	r2,1
    1248:	e0bffb15 	stw	r2,-20(fp)
    124c:	00800174 	movhi	r2,5
    1250:	108eae04 	addi	r2,r2,15032
    1254:	10800017 	ldw	r2,0(r2)
    1258:	11c00317 	ldw	r7,12(r2)
    125c:	01000174 	movhi	r4,5
    1260:	212b4d04 	addi	r4,r4,-21196
    1264:	01400044 	movi	r5,1
    1268:	01800c04 	movi	r6,48
    126c:	00039780 	call	3978 <fwrite>
    1270:	00002506 	br	1308 <alt_uCOSIIErrorHandler+0x44c>
    1274:	00800084 	movi	r2,2
    1278:	e0bffb15 	stw	r2,-20(fp)
    127c:	01000174 	movhi	r4,5
    1280:	212b5a04 	addi	r4,r4,-21144
    1284:	00043b80 	call	43b8 <printf>
    1288:	00800174 	movhi	r2,5
    128c:	108eae04 	addi	r2,r2,15032
    1290:	10800017 	ldw	r2,0(r2)
    1294:	11000317 	ldw	r4,12(r2)
    1298:	e1bffd17 	ldw	r6,-12(fp)
    129c:	01400174 	movhi	r5,5
    12a0:	296b6a04 	addi	r5,r5,-21080
    12a4:	000387c0 	call	387c <fprintf>
    12a8:	00001706 	br	1308 <alt_uCOSIIErrorHandler+0x44c>
    12ac:	01000174 	movhi	r4,5
    12b0:	212b7504 	addi	r4,r4,-21036
    12b4:	00044f40 	call	44f4 <puts>
    12b8:	00800174 	movhi	r2,5
    12bc:	108eae04 	addi	r2,r2,15032
    12c0:	10800017 	ldw	r2,0(r2)
    12c4:	11c00317 	ldw	r7,12(r2)
    12c8:	01000174 	movhi	r4,5
    12cc:	212b8304 	addi	r4,r4,-20980
    12d0:	01400044 	movi	r5,1
    12d4:	01800404 	movi	r6,16
    12d8:	00039780 	call	3978 <fwrite>
    12dc:	00800174 	movhi	r2,5
    12e0:	108eae04 	addi	r2,r2,15032
    12e4:	10800017 	ldw	r2,0(r2)
    12e8:	11000317 	ldw	r4,12(r2)
    12ec:	e1bffc03 	ldbu	r6,-16(fp)
    12f0:	01400174 	movhi	r5,5
    12f4:	296b8804 	addi	r5,r5,-20960
    12f8:	000387c0 	call	387c <fprintf>
    12fc:	01000174 	movhi	r4,5
    1300:	212b8d04 	addi	r4,r4,-20940
    1304:	00043a40 	call	43a4 <perror>
    1308:	e0bffb17 	ldw	r2,-20(fp)
    130c:	e0bfff15 	stw	r2,-4(fp)
    1310:	e0ffff17 	ldw	r3,-4(fp)
    1314:	18800060 	cmpeqi	r2,r3,1
    1318:	1000071e 	bne	r2,zero,1338 <alt_uCOSIIErrorHandler+0x47c>
    131c:	e0ffff17 	ldw	r3,-4(fp)
    1320:	18800070 	cmpltui	r2,r3,1
    1324:	10003f1e 	bne	r2,zero,1424 <alt_uCOSIIErrorHandler+0x568>
    1328:	e0ffff17 	ldw	r3,-4(fp)
    132c:	188000a0 	cmpeqi	r2,r3,2
    1330:	10001d1e 	bne	r2,zero,13a8 <alt_uCOSIIErrorHandler+0x4ec>
    1334:	00005806 	br	1498 <alt_uCOSIIErrorHandler+0x5dc>
    1338:	01000174 	movhi	r4,5
    133c:	212b9b04 	addi	r4,r4,-20884
    1340:	00043b80 	call	43b8 <printf>
    1344:	00800174 	movhi	r2,5
    1348:	108eae04 	addi	r2,r2,15032
    134c:	10800017 	ldw	r2,0(r2)
    1350:	11c00317 	ldw	r7,12(r2)
    1354:	01000174 	movhi	r4,5
    1358:	212ba804 	addi	r4,r4,-20832
    135c:	01400044 	movi	r5,1
    1360:	01800904 	movi	r6,36
    1364:	00039780 	call	3978 <fwrite>
    1368:	00800174 	movhi	r2,5
    136c:	108eae04 	addi	r2,r2,15032
    1370:	10800017 	ldw	r2,0(r2)
    1374:	11c00317 	ldw	r7,12(r2)
    1378:	01000174 	movhi	r4,5
    137c:	212bb204 	addi	r4,r4,-20792
    1380:	01400044 	movi	r5,1
    1384:	01800a04 	movi	r6,40
    1388:	00039780 	call	3978 <fwrite>
    138c:	000f3900 	call	f390 <OSSchedUnlock>
    1390:	01003fc4 	movi	r4,255
    1394:	00160d40 	call	160d4 <OSTaskDel>
    1398:	e13ffc03 	ldbu	r4,-16(fp)
    139c:	000b883a 	mov	r5,zero
    13a0:	0000ebc0 	call	ebc <alt_uCOSIIErrorHandler>
    13a4:	00004806 	br	14c8 <alt_uCOSIIErrorHandler+0x60c>
    13a8:	01000174 	movhi	r4,5
    13ac:	212bbd04 	addi	r4,r4,-20748
    13b0:	00043b80 	call	43b8 <printf>
    13b4:	00800174 	movhi	r2,5
    13b8:	108eae04 	addi	r2,r2,15032
    13bc:	10800017 	ldw	r2,0(r2)
    13c0:	11c00317 	ldw	r7,12(r2)
    13c4:	01000174 	movhi	r4,5
    13c8:	212bcb04 	addi	r4,r4,-20692
    13cc:	01400044 	movi	r5,1
    13d0:	01800984 	movi	r6,38
    13d4:	00039780 	call	3978 <fwrite>
    13d8:	00800174 	movhi	r2,5
    13dc:	108eae04 	addi	r2,r2,15032
    13e0:	10800017 	ldw	r2,0(r2)
    13e4:	11c00317 	ldw	r7,12(r2)
    13e8:	01000174 	movhi	r4,5
    13ec:	212bd504 	addi	r4,r4,-20652
    13f0:	01400044 	movi	r5,1
    13f4:	01800bc4 	movi	r6,47
    13f8:	00039780 	call	3978 <fwrite>
    13fc:	00800174 	movhi	r2,5
    1400:	108eae04 	addi	r2,r2,15032
    1404:	10800017 	ldw	r2,0(r2)
    1408:	11c00317 	ldw	r7,12(r2)
    140c:	01000174 	movhi	r4,5
    1410:	212be104 	addi	r4,r4,-20604
    1414:	01400044 	movi	r5,1
    1418:	01800cc4 	movi	r6,51
    141c:	00039780 	call	3978 <fwrite>
    1420:	003fff06 	br	1420 <alt_uCOSIIErrorHandler+0x564>
    1424:	00800174 	movhi	r2,5
    1428:	108eae04 	addi	r2,r2,15032
    142c:	10800017 	ldw	r2,0(r2)
    1430:	11c00317 	ldw	r7,12(r2)
    1434:	01000174 	movhi	r4,5
    1438:	212bee04 	addi	r4,r4,-20552
    143c:	01400044 	movi	r5,1
    1440:	01800904 	movi	r6,36
    1444:	00039780 	call	3978 <fwrite>
    1448:	00800174 	movhi	r2,5
    144c:	108eae04 	addi	r2,r2,15032
    1450:	10800017 	ldw	r2,0(r2)
    1454:	11c00317 	ldw	r7,12(r2)
    1458:	01000174 	movhi	r4,5
    145c:	212bf804 	addi	r4,r4,-20512
    1460:	01400044 	movi	r5,1
    1464:	01800c84 	movi	r6,50
    1468:	00039780 	call	3978 <fwrite>
    146c:	00800174 	movhi	r2,5
    1470:	108eae04 	addi	r2,r2,15032
    1474:	10800017 	ldw	r2,0(r2)
    1478:	11c00317 	ldw	r7,12(r2)
    147c:	01000174 	movhi	r4,5
    1480:	212c0504 	addi	r4,r4,-20460
    1484:	01400044 	movi	r5,1
    1488:	01800f84 	movi	r6,62
    148c:	00039780 	call	3978 <fwrite>
    1490:	000f3900 	call	f390 <OSSchedUnlock>
    1494:	00000d06 	br	14cc <alt_uCOSIIErrorHandler+0x610>
    1498:	01000174 	movhi	r4,5
    149c:	212c1504 	addi	r4,r4,-20396
    14a0:	00044f40 	call	44f4 <puts>
    14a4:	00800174 	movhi	r2,5
    14a8:	108eae04 	addi	r2,r2,15032
    14ac:	10800017 	ldw	r2,0(r2)
    14b0:	11c00317 	ldw	r7,12(r2)
    14b4:	01000174 	movhi	r4,5
    14b8:	212c2304 	addi	r4,r4,-20340
    14bc:	01400044 	movi	r5,1
    14c0:	01800ac4 	movi	r6,43
    14c4:	00039780 	call	3978 <fwrite>
    14c8:	003fff06 	br	14c8 <alt_uCOSIIErrorHandler+0x60c>
    14cc:	e037883a 	mov	sp,fp
    14d0:	dfc00117 	ldw	ra,4(sp)
    14d4:	df000017 	ldw	fp,0(sp)
    14d8:	dec00204 	addi	sp,sp,8
    14dc:	f800283a 	ret

000014e0 <alt_NetworkErrorHandler>:
    14e0:	defffa04 	addi	sp,sp,-24
    14e4:	dfc00515 	stw	ra,20(sp)
    14e8:	df000415 	stw	fp,16(sp)
    14ec:	df000404 	addi	fp,sp,16
    14f0:	e17ffe15 	stw	r5,-8(fp)
    14f4:	e13ffd05 	stb	r4,-12(fp)
    14f8:	e0bffd03 	ldbu	r2,-12(fp)
    14fc:	1005003a 	cmpeq	r2,r2,zero
    1500:	1000981e 	bne	r2,zero,1764 <alt_NetworkErrorHandler+0x284>
    1504:	00800084 	movi	r2,2
    1508:	e0bffc15 	stw	r2,-16(fp)
    150c:	000f3040 	call	f304 <OSSchedLock>
    1510:	e0bffd03 	ldbu	r2,-12(fp)
    1514:	10803fd8 	cmpnei	r2,r2,255
    1518:	1000111e 	bne	r2,zero,1560 <alt_NetworkErrorHandler+0x80>
    151c:	00800084 	movi	r2,2
    1520:	e0bffc15 	stw	r2,-16(fp)
    1524:	01000174 	movhi	r4,5
    1528:	212c2e04 	addi	r4,r4,-20296
    152c:	00043b80 	call	43b8 <printf>
    1530:	00800174 	movhi	r2,5
    1534:	108eae04 	addi	r2,r2,15032
    1538:	10800017 	ldw	r2,0(r2)
    153c:	11000317 	ldw	r4,12(r2)
    1540:	e1bffe17 	ldw	r6,-8(fp)
    1544:	01400174 	movhi	r5,5
    1548:	296c3d04 	addi	r5,r5,-20236
    154c:	000387c0 	call	387c <fprintf>
    1550:	01000174 	movhi	r4,5
    1554:	212c4104 	addi	r4,r4,-20220
    1558:	00043a40 	call	43a4 <perror>
    155c:	00001006 	br	15a0 <alt_NetworkErrorHandler+0xc0>
    1560:	00800044 	movi	r2,1
    1564:	e0bffc15 	stw	r2,-16(fp)
    1568:	01000174 	movhi	r4,5
    156c:	212c4704 	addi	r4,r4,-20196
    1570:	00044f40 	call	44f4 <puts>
    1574:	00800174 	movhi	r2,5
    1578:	108eae04 	addi	r2,r2,15032
    157c:	10800017 	ldw	r2,0(r2)
    1580:	11000317 	ldw	r4,12(r2)
    1584:	e1bffd03 	ldbu	r6,-12(fp)
    1588:	01400174 	movhi	r5,5
    158c:	296c4d04 	addi	r5,r5,-20172
    1590:	000387c0 	call	387c <fprintf>
    1594:	01000174 	movhi	r4,5
    1598:	212c4104 	addi	r4,r4,-20220
    159c:	00043a40 	call	43a4 <perror>
    15a0:	e0bffc17 	ldw	r2,-16(fp)
    15a4:	e0bfff15 	stw	r2,-4(fp)
    15a8:	e0ffff17 	ldw	r3,-4(fp)
    15ac:	18800060 	cmpeqi	r2,r3,1
    15b0:	1000071e 	bne	r2,zero,15d0 <alt_NetworkErrorHandler+0xf0>
    15b4:	e0ffff17 	ldw	r3,-4(fp)
    15b8:	18800070 	cmpltui	r2,r3,1
    15bc:	10003f1e 	bne	r2,zero,16bc <alt_NetworkErrorHandler+0x1dc>
    15c0:	e0ffff17 	ldw	r3,-4(fp)
    15c4:	188000a0 	cmpeqi	r2,r3,2
    15c8:	10001d1e 	bne	r2,zero,1640 <alt_NetworkErrorHandler+0x160>
    15cc:	00005806 	br	1730 <alt_NetworkErrorHandler+0x250>
    15d0:	01000174 	movhi	r4,5
    15d4:	212c5404 	addi	r4,r4,-20144
    15d8:	00043b80 	call	43b8 <printf>
    15dc:	00800174 	movhi	r2,5
    15e0:	108eae04 	addi	r2,r2,15032
    15e4:	10800017 	ldw	r2,0(r2)
    15e8:	11c00317 	ldw	r7,12(r2)
    15ec:	01000174 	movhi	r4,5
    15f0:	212c6004 	addi	r4,r4,-20096
    15f4:	01400044 	movi	r5,1
    15f8:	018007c4 	movi	r6,31
    15fc:	00039780 	call	3978 <fwrite>
    1600:	00800174 	movhi	r2,5
    1604:	108eae04 	addi	r2,r2,15032
    1608:	10800017 	ldw	r2,0(r2)
    160c:	11c00317 	ldw	r7,12(r2)
    1610:	01000174 	movhi	r4,5
    1614:	212c6804 	addi	r4,r4,-20064
    1618:	01400044 	movi	r5,1
    161c:	018008c4 	movi	r6,35
    1620:	00039780 	call	3978 <fwrite>
    1624:	000f3900 	call	f390 <OSSchedUnlock>
    1628:	01003fc4 	movi	r4,255
    162c:	00160d40 	call	160d4 <OSTaskDel>
    1630:	e13ffd03 	ldbu	r4,-12(fp)
    1634:	000b883a 	mov	r5,zero
    1638:	0000ebc0 	call	ebc <alt_uCOSIIErrorHandler>
    163c:	00004806 	br	1760 <alt_NetworkErrorHandler+0x280>
    1640:	01000174 	movhi	r4,5
    1644:	212c7104 	addi	r4,r4,-20028
    1648:	00043b80 	call	43b8 <printf>
    164c:	00800174 	movhi	r2,5
    1650:	108eae04 	addi	r2,r2,15032
    1654:	10800017 	ldw	r2,0(r2)
    1658:	11c00317 	ldw	r7,12(r2)
    165c:	01000174 	movhi	r4,5
    1660:	212c7d04 	addi	r4,r4,-19980
    1664:	01400044 	movi	r5,1
    1668:	01800884 	movi	r6,34
    166c:	00039780 	call	3978 <fwrite>
    1670:	00800174 	movhi	r2,5
    1674:	108eae04 	addi	r2,r2,15032
    1678:	10800017 	ldw	r2,0(r2)
    167c:	11c00317 	ldw	r7,12(r2)
    1680:	01000174 	movhi	r4,5
    1684:	212c8604 	addi	r4,r4,-19944
    1688:	01400044 	movi	r5,1
    168c:	01800a84 	movi	r6,42
    1690:	00039780 	call	3978 <fwrite>
    1694:	00800174 	movhi	r2,5
    1698:	108eae04 	addi	r2,r2,15032
    169c:	10800017 	ldw	r2,0(r2)
    16a0:	11c00317 	ldw	r7,12(r2)
    16a4:	01000174 	movhi	r4,5
    16a8:	212c9104 	addi	r4,r4,-19900
    16ac:	01400044 	movi	r5,1
    16b0:	01800b84 	movi	r6,46
    16b4:	00039780 	call	3978 <fwrite>
    16b8:	003fff06 	br	16b8 <alt_NetworkErrorHandler+0x1d8>
    16bc:	00800174 	movhi	r2,5
    16c0:	108eae04 	addi	r2,r2,15032
    16c4:	10800017 	ldw	r2,0(r2)
    16c8:	11c00317 	ldw	r7,12(r2)
    16cc:	01000174 	movhi	r4,5
    16d0:	212c9d04 	addi	r4,r4,-19852
    16d4:	01400044 	movi	r5,1
    16d8:	01800804 	movi	r6,32
    16dc:	00039780 	call	3978 <fwrite>
    16e0:	00800174 	movhi	r2,5
    16e4:	108eae04 	addi	r2,r2,15032
    16e8:	10800017 	ldw	r2,0(r2)
    16ec:	11c00317 	ldw	r7,12(r2)
    16f0:	01000174 	movhi	r4,5
    16f4:	212ca604 	addi	r4,r4,-19816
    16f8:	01400044 	movi	r5,1
    16fc:	01800d84 	movi	r6,54
    1700:	00039780 	call	3978 <fwrite>
    1704:	00800174 	movhi	r2,5
    1708:	108eae04 	addi	r2,r2,15032
    170c:	10800017 	ldw	r2,0(r2)
    1710:	11c00317 	ldw	r7,12(r2)
    1714:	01000174 	movhi	r4,5
    1718:	212cb404 	addi	r4,r4,-19760
    171c:	01400044 	movi	r5,1
    1720:	01800e44 	movi	r6,57
    1724:	00039780 	call	3978 <fwrite>
    1728:	000f3900 	call	f390 <OSSchedUnlock>
    172c:	00000d06 	br	1764 <alt_NetworkErrorHandler+0x284>
    1730:	01000174 	movhi	r4,5
    1734:	212cc304 	addi	r4,r4,-19700
    1738:	00044f40 	call	44f4 <puts>
    173c:	00800174 	movhi	r2,5
    1740:	108eae04 	addi	r2,r2,15032
    1744:	10800017 	ldw	r2,0(r2)
    1748:	11c00317 	ldw	r7,12(r2)
    174c:	01000174 	movhi	r4,5
    1750:	212cd004 	addi	r4,r4,-19648
    1754:	01400044 	movi	r5,1
    1758:	01800984 	movi	r6,38
    175c:	00039780 	call	3978 <fwrite>
    1760:	003fff06 	br	1760 <alt_NetworkErrorHandler+0x280>
    1764:	e037883a 	mov	sp,fp
    1768:	dfc00117 	ldw	ra,4(sp)
    176c:	df000017 	ldw	fp,0(sp)
    1770:	dec00204 	addi	sp,sp,8
    1774:	f800283a 	ret

00001778 <alt_SSSErrorHandler>:
    1778:	defff804 	addi	sp,sp,-32
    177c:	dfc00715 	stw	ra,28(sp)
    1780:	df000615 	stw	fp,24(sp)
    1784:	df000604 	addi	fp,sp,24
    1788:	e17ffc15 	stw	r5,-16(fp)
    178c:	e13ffb05 	stb	r4,-20(fp)
    1790:	e0bffb03 	ldbu	r2,-20(fp)
    1794:	1005003a 	cmpeq	r2,r2,zero
    1798:	1000ad1e 	bne	r2,zero,1a50 <alt_SSSErrorHandler+0x2d8>
    179c:	e0bffb03 	ldbu	r2,-20(fp)
    17a0:	1004c03a 	cmpne	r2,r2,zero
    17a4:	1000021e 	bne	r2,zero,17b0 <alt_SSSErrorHandler+0x38>
    17a8:	e03ffe15 	stw	zero,-8(fp)
    17ac:	00000206 	br	17b8 <alt_SSSErrorHandler+0x40>
    17b0:	00800084 	movi	r2,2
    17b4:	e0bffe15 	stw	r2,-8(fp)
    17b8:	e0fffe17 	ldw	r3,-8(fp)
    17bc:	e0fffa15 	stw	r3,-24(fp)
    17c0:	000f3040 	call	f304 <OSSchedLock>
    17c4:	e0bffb03 	ldbu	r2,-20(fp)
    17c8:	e0bffd15 	stw	r2,-12(fp)
    17cc:	e0fffd17 	ldw	r3,-12(fp)
    17d0:	188007a0 	cmpeqi	r2,r3,30
    17d4:	1000121e 	bne	r2,zero,1820 <alt_SSSErrorHandler+0xa8>
    17d8:	e0fffd17 	ldw	r3,-12(fp)
    17dc:	18803fe0 	cmpeqi	r2,r3,255
    17e0:	1000011e 	bne	r2,zero,17e8 <alt_SSSErrorHandler+0x70>
    17e4:	00001906 	br	184c <alt_SSSErrorHandler+0xd4>
    17e8:	00800084 	movi	r2,2
    17ec:	e0bffa15 	stw	r2,-24(fp)
    17f0:	01000174 	movhi	r4,5
    17f4:	212cda04 	addi	r4,r4,-19608
    17f8:	00043b80 	call	43b8 <printf>
    17fc:	00800174 	movhi	r2,5
    1800:	108eae04 	addi	r2,r2,15032
    1804:	10800017 	ldw	r2,0(r2)
    1808:	11000317 	ldw	r4,12(r2)
    180c:	e1bffc17 	ldw	r6,-16(fp)
    1810:	01400174 	movhi	r5,5
    1814:	296ce804 	addi	r5,r5,-19552
    1818:	000387c0 	call	387c <fprintf>
    181c:	00001b06 	br	188c <alt_SSSErrorHandler+0x114>
    1820:	e03ffa15 	stw	zero,-24(fp)
    1824:	00800174 	movhi	r2,5
    1828:	108eae04 	addi	r2,r2,15032
    182c:	10800017 	ldw	r2,0(r2)
    1830:	11c00317 	ldw	r7,12(r2)
    1834:	01000174 	movhi	r4,5
    1838:	212ceb04 	addi	r4,r4,-19540
    183c:	01400044 	movi	r5,1
    1840:	01800c84 	movi	r6,50
    1844:	00039780 	call	3978 <fwrite>
    1848:	00001006 	br	188c <alt_SSSErrorHandler+0x114>
    184c:	00800084 	movi	r2,2
    1850:	e0bffa15 	stw	r2,-24(fp)
    1854:	01000174 	movhi	r4,5
    1858:	212cf804 	addi	r4,r4,-19488
    185c:	00044f40 	call	44f4 <puts>
    1860:	00800174 	movhi	r2,5
    1864:	108eae04 	addi	r2,r2,15032
    1868:	10800017 	ldw	r2,0(r2)
    186c:	11000317 	ldw	r4,12(r2)
    1870:	e1bffb03 	ldbu	r6,-20(fp)
    1874:	01400174 	movhi	r5,5
    1878:	296cfd04 	addi	r5,r5,-19468
    187c:	000387c0 	call	387c <fprintf>
    1880:	01000174 	movhi	r4,5
    1884:	212d0304 	addi	r4,r4,-19444
    1888:	00043a40 	call	43a4 <perror>
    188c:	e0bffa17 	ldw	r2,-24(fp)
    1890:	e0bfff15 	stw	r2,-4(fp)
    1894:	e0ffff17 	ldw	r3,-4(fp)
    1898:	18800060 	cmpeqi	r2,r3,1
    189c:	1000071e 	bne	r2,zero,18bc <alt_SSSErrorHandler+0x144>
    18a0:	e0ffff17 	ldw	r3,-4(fp)
    18a4:	18800070 	cmpltui	r2,r3,1
    18a8:	10003f1e 	bne	r2,zero,19a8 <alt_SSSErrorHandler+0x230>
    18ac:	e0ffff17 	ldw	r3,-4(fp)
    18b0:	188000a0 	cmpeqi	r2,r3,2
    18b4:	10001d1e 	bne	r2,zero,192c <alt_SSSErrorHandler+0x1b4>
    18b8:	00005806 	br	1a1c <alt_SSSErrorHandler+0x2a4>
    18bc:	01000174 	movhi	r4,5
    18c0:	212d0804 	addi	r4,r4,-19424
    18c4:	00043b80 	call	43b8 <printf>
    18c8:	00800174 	movhi	r2,5
    18cc:	108eae04 	addi	r2,r2,15032
    18d0:	10800017 	ldw	r2,0(r2)
    18d4:	11c00317 	ldw	r7,12(r2)
    18d8:	01000174 	movhi	r4,5
    18dc:	212d1304 	addi	r4,r4,-19380
    18e0:	01400044 	movi	r5,1
    18e4:	018006c4 	movi	r6,27
    18e8:	00039780 	call	3978 <fwrite>
    18ec:	00800174 	movhi	r2,5
    18f0:	108eae04 	addi	r2,r2,15032
    18f4:	10800017 	ldw	r2,0(r2)
    18f8:	11c00317 	ldw	r7,12(r2)
    18fc:	01000174 	movhi	r4,5
    1900:	212d1a04 	addi	r4,r4,-19352
    1904:	01400044 	movi	r5,1
    1908:	018007c4 	movi	r6,31
    190c:	00039780 	call	3978 <fwrite>
    1910:	000f3900 	call	f390 <OSSchedUnlock>
    1914:	01003fc4 	movi	r4,255
    1918:	00160d40 	call	160d4 <OSTaskDel>
    191c:	e13ffb03 	ldbu	r4,-20(fp)
    1920:	000b883a 	mov	r5,zero
    1924:	0000ebc0 	call	ebc <alt_uCOSIIErrorHandler>
    1928:	00004806 	br	1a4c <alt_SSSErrorHandler+0x2d4>
    192c:	01000174 	movhi	r4,5
    1930:	212d2204 	addi	r4,r4,-19320
    1934:	00043b80 	call	43b8 <printf>
    1938:	00800174 	movhi	r2,5
    193c:	108eae04 	addi	r2,r2,15032
    1940:	10800017 	ldw	r2,0(r2)
    1944:	11c00317 	ldw	r7,12(r2)
    1948:	01000174 	movhi	r4,5
    194c:	212d2d04 	addi	r4,r4,-19276
    1950:	01400044 	movi	r5,1
    1954:	01800784 	movi	r6,30
    1958:	00039780 	call	3978 <fwrite>
    195c:	00800174 	movhi	r2,5
    1960:	108eae04 	addi	r2,r2,15032
    1964:	10800017 	ldw	r2,0(r2)
    1968:	11c00317 	ldw	r7,12(r2)
    196c:	01000174 	movhi	r4,5
    1970:	212d3504 	addi	r4,r4,-19244
    1974:	01400044 	movi	r5,1
    1978:	01800984 	movi	r6,38
    197c:	00039780 	call	3978 <fwrite>
    1980:	00800174 	movhi	r2,5
    1984:	108eae04 	addi	r2,r2,15032
    1988:	10800017 	ldw	r2,0(r2)
    198c:	11c00317 	ldw	r7,12(r2)
    1990:	01000174 	movhi	r4,5
    1994:	212d3f04 	addi	r4,r4,-19204
    1998:	01400044 	movi	r5,1
    199c:	01800a84 	movi	r6,42
    19a0:	00039780 	call	3978 <fwrite>
    19a4:	003fff06 	br	19a4 <alt_SSSErrorHandler+0x22c>
    19a8:	00800174 	movhi	r2,5
    19ac:	108eae04 	addi	r2,r2,15032
    19b0:	10800017 	ldw	r2,0(r2)
    19b4:	11c00317 	ldw	r7,12(r2)
    19b8:	01000174 	movhi	r4,5
    19bc:	212d4a04 	addi	r4,r4,-19160
    19c0:	01400044 	movi	r5,1
    19c4:	018006c4 	movi	r6,27
    19c8:	00039780 	call	3978 <fwrite>
    19cc:	00800174 	movhi	r2,5
    19d0:	108eae04 	addi	r2,r2,15032
    19d4:	10800017 	ldw	r2,0(r2)
    19d8:	11c00317 	ldw	r7,12(r2)
    19dc:	01000174 	movhi	r4,5
    19e0:	212d5104 	addi	r4,r4,-19132
    19e4:	01400044 	movi	r5,1
    19e8:	01800f44 	movi	r6,61
    19ec:	00039780 	call	3978 <fwrite>
    19f0:	00800174 	movhi	r2,5
    19f4:	108eae04 	addi	r2,r2,15032
    19f8:	10800017 	ldw	r2,0(r2)
    19fc:	11c00317 	ldw	r7,12(r2)
    1a00:	01000174 	movhi	r4,5
    1a04:	212d6104 	addi	r4,r4,-19068
    1a08:	01400044 	movi	r5,1
    1a0c:	01800b84 	movi	r6,46
    1a10:	00039780 	call	3978 <fwrite>
    1a14:	000f3900 	call	f390 <OSSchedUnlock>
    1a18:	00000d06 	br	1a50 <alt_SSSErrorHandler+0x2d8>
    1a1c:	01000174 	movhi	r4,5
    1a20:	212d6d04 	addi	r4,r4,-19020
    1a24:	00044f40 	call	44f4 <puts>
    1a28:	00800174 	movhi	r2,5
    1a2c:	108eae04 	addi	r2,r2,15032
    1a30:	10800017 	ldw	r2,0(r2)
    1a34:	11c00317 	ldw	r7,12(r2)
    1a38:	01000174 	movhi	r4,5
    1a3c:	212d7904 	addi	r4,r4,-18972
    1a40:	01400044 	movi	r5,1
    1a44:	01800844 	movi	r6,33
    1a48:	00039780 	call	3978 <fwrite>
    1a4c:	003fff06 	br	1a4c <alt_SSSErrorHandler+0x2d4>
    1a50:	e037883a 	mov	sp,fp
    1a54:	dfc00117 	ldw	ra,4(sp)
    1a58:	df000017 	ldw	fp,0(sp)
    1a5c:	dec00204 	addi	sp,sp,8
    1a60:	f800283a 	ret

00001a64 <ws_ipset>:
    1a64:	defffc04 	addi	sp,sp,-16
    1a68:	dfc00315 	stw	ra,12(sp)
    1a6c:	df000215 	stw	fp,8(sp)
    1a70:	df000204 	addi	fp,sp,8
    1a74:	e13ffe15 	stw	r4,-8(fp)
    1a78:	e17fff15 	stw	r5,-4(fp)
    1a7c:	e0bfff17 	ldw	r2,-4(fp)
    1a80:	10800198 	cmpnei	r2,r2,6
    1a84:	1000321e 	bne	r2,zero,1b50 <ws_ipset+0xec>
    1a88:	e0bffe17 	ldw	r2,-8(fp)
    1a8c:	00c003b4 	movhi	r3,14
    1a90:	18f00f04 	addi	r3,r3,-16324
    1a94:	1085883a 	add	r2,r2,r2
    1a98:	1085883a 	add	r2,r2,r2
    1a9c:	10c5883a 	add	r2,r2,r3
    1aa0:	10800017 	ldw	r2,0(r2)
    1aa4:	11400104 	addi	r5,r2,4
    1aa8:	01000174 	movhi	r4,5
    1aac:	212d9104 	addi	r4,r4,-18876
    1ab0:	00043b80 	call	43b8 <printf>
    1ab4:	e0bffe17 	ldw	r2,-8(fp)
    1ab8:	00c003b4 	movhi	r3,14
    1abc:	18f00f04 	addi	r3,r3,-16324
    1ac0:	1085883a 	add	r2,r2,r2
    1ac4:	1085883a 	add	r2,r2,r2
    1ac8:	10c5883a 	add	r2,r2,r3
    1acc:	10800017 	ldw	r2,0(r2)
    1ad0:	11000a17 	ldw	r4,40(r2)
    1ad4:	0026ea40 	call	26ea4 <print_ipad>
    1ad8:	100b883a 	mov	r5,r2
    1adc:	01000174 	movhi	r4,5
    1ae0:	212d9f04 	addi	r4,r4,-18820
    1ae4:	00043b80 	call	43b8 <printf>
    1ae8:	e0bffe17 	ldw	r2,-8(fp)
    1aec:	00c003b4 	movhi	r3,14
    1af0:	18f00f04 	addi	r3,r3,-16324
    1af4:	1085883a 	add	r2,r2,r2
    1af8:	1085883a 	add	r2,r2,r2
    1afc:	10c5883a 	add	r2,r2,r3
    1b00:	10800017 	ldw	r2,0(r2)
    1b04:	11000c17 	ldw	r4,48(r2)
    1b08:	0026ea40 	call	26ea4 <print_ipad>
    1b0c:	100b883a 	mov	r5,r2
    1b10:	01000174 	movhi	r4,5
    1b14:	212da404 	addi	r4,r4,-18800
    1b18:	00043b80 	call	43b8 <printf>
    1b1c:	e0bffe17 	ldw	r2,-8(fp)
    1b20:	00c003b4 	movhi	r3,14
    1b24:	18f00f04 	addi	r3,r3,-16324
    1b28:	1085883a 	add	r2,r2,r2
    1b2c:	1085883a 	add	r2,r2,r2
    1b30:	10c5883a 	add	r2,r2,r3
    1b34:	10800017 	ldw	r2,0(r2)
    1b38:	11000d17 	ldw	r4,52(r2)
    1b3c:	0026ea40 	call	26ea4 <print_ipad>
    1b40:	100b883a 	mov	r5,r2
    1b44:	01000174 	movhi	r4,5
    1b48:	212da904 	addi	r4,r4,-18780
    1b4c:	00043b80 	call	43b8 <printf>
    1b50:	0005883a 	mov	r2,zero
    1b54:	e037883a 	mov	sp,fp
    1b58:	dfc00117 	ldw	ra,4(sp)
    1b5c:	df000017 	ldw	fp,0(sp)
    1b60:	dec00204 	addi	sp,sp,8
    1b64:	f800283a 	ret

00001b68 <get_board_mac_addr>:
    1b68:	defff704 	addi	sp,sp,-36
    1b6c:	dfc00815 	stw	ra,32(sp)
    1b70:	df000715 	stw	fp,28(sp)
    1b74:	df000704 	addi	fp,sp,28
    1b78:	e13ffe15 	stw	r4,-8(fp)
    1b7c:	e17fff15 	stw	r5,-4(fp)
    1b80:	e03ffd15 	stw	zero,-12(fp)
    1b84:	e03ffc15 	stw	zero,-16(fp)
    1b88:	01000174 	movhi	r4,5
    1b8c:	212dae04 	addi	r4,r4,-18760
    1b90:	00044f40 	call	44f4 <puts>
    1b94:	e13ffe17 	ldw	r4,-8(fp)
    1b98:	00002080 	call	208 <get_DE2_115_mac_addr>
    1b9c:	e0bffd15 	stw	r2,-12(fp)
    1ba0:	e0bffd17 	ldw	r2,-12(fp)
    1ba4:	1004c03a 	cmpne	r2,r2,zero
    1ba8:	1000021e 	bne	r2,zero,1bb4 <get_board_mac_addr+0x4c>
    1bac:	00800044 	movi	r2,1
    1bb0:	e0bffc15 	stw	r2,-16(fp)
    1bb4:	e0bffc17 	ldw	r2,-16(fp)
    1bb8:	1005003a 	cmpeq	r2,r2,zero
    1bbc:	10001e1e 	bne	r2,zero,1c38 <get_board_mac_addr+0xd0>
    1bc0:	e0bffe17 	ldw	r2,-8(fp)
    1bc4:	10800003 	ldbu	r2,0(r2)
    1bc8:	11403fcc 	andi	r5,r2,255
    1bcc:	e0bffe17 	ldw	r2,-8(fp)
    1bd0:	10800044 	addi	r2,r2,1
    1bd4:	10800003 	ldbu	r2,0(r2)
    1bd8:	11803fcc 	andi	r6,r2,255
    1bdc:	e0bffe17 	ldw	r2,-8(fp)
    1be0:	10800084 	addi	r2,r2,2
    1be4:	10800003 	ldbu	r2,0(r2)
    1be8:	11c03fcc 	andi	r7,r2,255
    1bec:	e0bffe17 	ldw	r2,-8(fp)
    1bf0:	108000c4 	addi	r2,r2,3
    1bf4:	10800003 	ldbu	r2,0(r2)
    1bf8:	10c03fcc 	andi	r3,r2,255
    1bfc:	e0bffe17 	ldw	r2,-8(fp)
    1c00:	10800104 	addi	r2,r2,4
    1c04:	10800003 	ldbu	r2,0(r2)
    1c08:	11003fcc 	andi	r4,r2,255
    1c0c:	e0bffe17 	ldw	r2,-8(fp)
    1c10:	10800144 	addi	r2,r2,5
    1c14:	10800003 	ldbu	r2,0(r2)
    1c18:	10803fcc 	andi	r2,r2,255
    1c1c:	d8c00015 	stw	r3,0(sp)
    1c20:	d9000115 	stw	r4,4(sp)
    1c24:	d8800215 	stw	r2,8(sp)
    1c28:	01000174 	movhi	r4,5
    1c2c:	212db704 	addi	r4,r4,-18724
    1c30:	00043b80 	call	43b8 <printf>
    1c34:	00001506 	br	1c8c <get_board_mac_addr+0x124>
    1c38:	01000174 	movhi	r4,5
    1c3c:	212dc604 	addi	r4,r4,-18664
    1c40:	00044f40 	call	44f4 <puts>
    1c44:	01000174 	movhi	r4,5
    1c48:	212dd604 	addi	r4,r4,-18600
    1c4c:	00044f40 	call	44f4 <puts>
    1c50:	01000174 	movhi	r4,5
    1c54:	212ddf04 	addi	r4,r4,-18564
    1c58:	00043b80 	call	43b8 <printf>
    1c5c:	01000174 	movhi	r4,5
    1c60:	212dee04 	addi	r4,r4,-18504
    1c64:	00044f40 	call	44f4 <puts>
    1c68:	01000174 	movhi	r4,5
    1c6c:	212dfa04 	addi	r4,r4,-18456
    1c70:	00044f40 	call	44f4 <puts>
    1c74:	01000174 	movhi	r4,5
    1c78:	212dfc04 	addi	r4,r4,-18448
    1c7c:	00044f40 	call	44f4 <puts>
    1c80:	01000174 	movhi	r4,5
    1c84:	212e0b04 	addi	r4,r4,-18388
    1c88:	00044f40 	call	44f4 <puts>
    1c8c:	e0bffd17 	ldw	r2,-12(fp)
    1c90:	e037883a 	mov	sp,fp
    1c94:	dfc00117 	ldw	ra,4(sp)
    1c98:	df000017 	ldw	fp,0(sp)
    1c9c:	dec00204 	addi	sp,sp,8
    1ca0:	f800283a 	ret

00001ca4 <suspend_network_tasks>:
    1ca4:	defffc04 	addi	sp,sp,-16
    1ca8:	dfc00315 	stw	ra,12(sp)
    1cac:	df000215 	stw	fp,8(sp)
    1cb0:	dc000115 	stw	r16,4(sp)
    1cb4:	df000104 	addi	fp,sp,4
    1cb8:	e03fff05 	stb	zero,-4(fp)
    1cbc:	01000284 	movi	r4,10
    1cc0:	0016de00 	call	16de0 <OSTaskSuspend>
    1cc4:	1021883a 	mov	r16,r2
    1cc8:	01000084 	movi	r4,2
    1ccc:	0016de00 	call	16de0 <OSTaskSuspend>
    1cd0:	8084b03a 	or	r2,r16,r2
    1cd4:	1021883a 	mov	r16,r2
    1cd8:	010000c4 	movi	r4,3
    1cdc:	0016de00 	call	16de0 <OSTaskSuspend>
    1ce0:	8084b03a 	or	r2,r16,r2
    1ce4:	e0bfff05 	stb	r2,-4(fp)
    1ce8:	e0bfff03 	ldbu	r2,-4(fp)
    1cec:	e037883a 	mov	sp,fp
    1cf0:	dfc00217 	ldw	ra,8(sp)
    1cf4:	df000117 	ldw	fp,4(sp)
    1cf8:	dc000017 	ldw	r16,0(sp)
    1cfc:	dec00304 	addi	sp,sp,12
    1d00:	f800283a 	ret

00001d04 <resume_network_tasks>:
    1d04:	defffc04 	addi	sp,sp,-16
    1d08:	dfc00315 	stw	ra,12(sp)
    1d0c:	df000215 	stw	fp,8(sp)
    1d10:	dc000115 	stw	r16,4(sp)
    1d14:	df000104 	addi	fp,sp,4
    1d18:	e03fff05 	stb	zero,-4(fp)
    1d1c:	01000084 	movi	r4,2
    1d20:	00169cc0 	call	169cc <OSTaskResume>
    1d24:	1021883a 	mov	r16,r2
    1d28:	010000c4 	movi	r4,3
    1d2c:	00169cc0 	call	169cc <OSTaskResume>
    1d30:	8084b03a 	or	r2,r16,r2
    1d34:	1021883a 	mov	r16,r2
    1d38:	01000284 	movi	r4,10
    1d3c:	00169cc0 	call	169cc <OSTaskResume>
    1d40:	8084b03a 	or	r2,r16,r2
    1d44:	e0bfff05 	stb	r2,-4(fp)
    1d48:	e0bfff03 	ldbu	r2,-4(fp)
    1d4c:	e037883a 	mov	sp,fp
    1d50:	dfc00217 	ldw	ra,8(sp)
    1d54:	df000117 	ldw	fp,4(sp)
    1d58:	dc000017 	ldw	r16,0(sp)
    1d5c:	dec00304 	addi	sp,sp,12
    1d60:	f800283a 	ret

00001d64 <get_mac_addr>:
    1d64:	defffc04 	addi	sp,sp,-16
    1d68:	dfc00315 	stw	ra,12(sp)
    1d6c:	df000215 	stw	fp,8(sp)
    1d70:	df000204 	addi	fp,sp,8
    1d74:	e13ffe15 	stw	r4,-8(fp)
    1d78:	e17fff15 	stw	r5,-4(fp)
    1d7c:	d1600317 	ldw	r5,-32756(gp)
    1d80:	e13fff17 	ldw	r4,-4(fp)
    1d84:	0001b680 	call	1b68 <get_board_mac_addr>
    1d88:	e037883a 	mov	sp,fp
    1d8c:	dfc00117 	ldw	ra,4(sp)
    1d90:	df000017 	ldw	fp,0(sp)
    1d94:	dec00204 	addi	sp,sp,8
    1d98:	f800283a 	ret

00001d9c <get_ip_addr>:
    1d9c:	defff904 	addi	sp,sp,-28
    1da0:	dfc00615 	stw	ra,24(sp)
    1da4:	df000515 	stw	fp,20(sp)
    1da8:	df000504 	addi	fp,sp,20
    1dac:	e13ffc15 	stw	r4,-16(fp)
    1db0:	e17ffd15 	stw	r5,-12(fp)
    1db4:	e1bffe15 	stw	r6,-8(fp)
    1db8:	e1ffff15 	stw	r7,-4(fp)
    1dbc:	e0fffd17 	ldw	r3,-12(fp)
    1dc0:	00878074 	movhi	r2,7681
    1dc4:	10aa3004 	addi	r2,r2,-22336
    1dc8:	18800015 	stw	r2,0(r3)
    1dcc:	e0ffff17 	ldw	r3,-4(fp)
    1dd0:	00804074 	movhi	r2,257
    1dd4:	10aa3004 	addi	r2,r2,-22336
    1dd8:	18800015 	stw	r2,0(r3)
    1ddc:	e0fffe17 	ldw	r3,-8(fp)
    1de0:	00bfffd4 	movui	r2,65535
    1de4:	18800015 	stw	r2,0(r3)
    1de8:	e0800217 	ldw	r2,8(fp)
    1dec:	10000015 	stw	zero,0(r2)
    1df0:	e0bffd17 	ldw	r2,-12(fp)
    1df4:	10800017 	ldw	r2,0(r2)
    1df8:	1004d63a 	srli	r2,r2,24
    1dfc:	10c03fcc 	andi	r3,r2,255
    1e00:	e0bffd17 	ldw	r2,-12(fp)
    1e04:	10800017 	ldw	r2,0(r2)
    1e08:	1004d23a 	srli	r2,r2,8
    1e0c:	10bfc00c 	andi	r2,r2,65280
    1e10:	1886b03a 	or	r3,r3,r2
    1e14:	e0bffd17 	ldw	r2,-12(fp)
    1e18:	10800017 	ldw	r2,0(r2)
    1e1c:	10bfc00c 	andi	r2,r2,65280
    1e20:	1004923a 	slli	r2,r2,8
    1e24:	1886b03a 	or	r3,r3,r2
    1e28:	e0bffd17 	ldw	r2,-12(fp)
    1e2c:	10800017 	ldw	r2,0(r2)
    1e30:	10803fcc 	andi	r2,r2,255
    1e34:	1004963a 	slli	r2,r2,24
    1e38:	1884b03a 	or	r2,r3,r2
    1e3c:	1004d63a 	srli	r2,r2,24
    1e40:	11403fcc 	andi	r5,r2,255
    1e44:	e0bffd17 	ldw	r2,-12(fp)
    1e48:	10800017 	ldw	r2,0(r2)
    1e4c:	1004d63a 	srli	r2,r2,24
    1e50:	10c03fcc 	andi	r3,r2,255
    1e54:	e0bffd17 	ldw	r2,-12(fp)
    1e58:	10800017 	ldw	r2,0(r2)
    1e5c:	1004d23a 	srli	r2,r2,8
    1e60:	10bfc00c 	andi	r2,r2,65280
    1e64:	1886b03a 	or	r3,r3,r2
    1e68:	e0bffd17 	ldw	r2,-12(fp)
    1e6c:	10800017 	ldw	r2,0(r2)
    1e70:	10bfc00c 	andi	r2,r2,65280
    1e74:	1004923a 	slli	r2,r2,8
    1e78:	1886b03a 	or	r3,r3,r2
    1e7c:	e0bffd17 	ldw	r2,-12(fp)
    1e80:	10800017 	ldw	r2,0(r2)
    1e84:	10803fcc 	andi	r2,r2,255
    1e88:	1004963a 	slli	r2,r2,24
    1e8c:	1884b03a 	or	r2,r3,r2
    1e90:	1004d43a 	srli	r2,r2,16
    1e94:	11803fcc 	andi	r6,r2,255
    1e98:	e0bffd17 	ldw	r2,-12(fp)
    1e9c:	10800017 	ldw	r2,0(r2)
    1ea0:	1004d63a 	srli	r2,r2,24
    1ea4:	10c03fcc 	andi	r3,r2,255
    1ea8:	e0bffd17 	ldw	r2,-12(fp)
    1eac:	10800017 	ldw	r2,0(r2)
    1eb0:	1004d23a 	srli	r2,r2,8
    1eb4:	10bfc00c 	andi	r2,r2,65280
    1eb8:	1886b03a 	or	r3,r3,r2
    1ebc:	e0bffd17 	ldw	r2,-12(fp)
    1ec0:	10800017 	ldw	r2,0(r2)
    1ec4:	10bfc00c 	andi	r2,r2,65280
    1ec8:	1004923a 	slli	r2,r2,8
    1ecc:	1886b03a 	or	r3,r3,r2
    1ed0:	e0bffd17 	ldw	r2,-12(fp)
    1ed4:	10800017 	ldw	r2,0(r2)
    1ed8:	10803fcc 	andi	r2,r2,255
    1edc:	1004963a 	slli	r2,r2,24
    1ee0:	1884b03a 	or	r2,r3,r2
    1ee4:	1004d23a 	srli	r2,r2,8
    1ee8:	11c03fcc 	andi	r7,r2,255
    1eec:	e0bffd17 	ldw	r2,-12(fp)
    1ef0:	10800017 	ldw	r2,0(r2)
    1ef4:	1004d63a 	srli	r2,r2,24
    1ef8:	10c03fcc 	andi	r3,r2,255
    1efc:	e0bffd17 	ldw	r2,-12(fp)
    1f00:	10800017 	ldw	r2,0(r2)
    1f04:	1004d23a 	srli	r2,r2,8
    1f08:	10bfc00c 	andi	r2,r2,65280
    1f0c:	1886b03a 	or	r3,r3,r2
    1f10:	e0bffd17 	ldw	r2,-12(fp)
    1f14:	10800017 	ldw	r2,0(r2)
    1f18:	10bfc00c 	andi	r2,r2,65280
    1f1c:	1004923a 	slli	r2,r2,8
    1f20:	1886b03a 	or	r3,r3,r2
    1f24:	e0bffd17 	ldw	r2,-12(fp)
    1f28:	10800017 	ldw	r2,0(r2)
    1f2c:	10803fcc 	andi	r2,r2,255
    1f30:	1004963a 	slli	r2,r2,24
    1f34:	1884b03a 	or	r2,r3,r2
    1f38:	10803fcc 	andi	r2,r2,255
    1f3c:	d8800015 	stw	r2,0(sp)
    1f40:	01000174 	movhi	r4,5
    1f44:	212e1b04 	addi	r4,r4,-18324
    1f48:	00043b80 	call	43b8 <printf>
    1f4c:	00800044 	movi	r2,1
    1f50:	e037883a 	mov	sp,fp
    1f54:	dfc00117 	ldw	ra,4(sp)
    1f58:	df000017 	ldw	fp,0(sp)
    1f5c:	dec00204 	addi	sp,sp,8
    1f60:	f800283a 	ret

00001f64 <wait_on_phy>:
    1f64:	defffa04 	addi	sp,sp,-24
    1f68:	dfc00515 	stw	ra,20(sp)
    1f6c:	df000415 	stw	fp,16(sp)
    1f70:	df000404 	addi	fp,sp,16
    1f74:	e03ffd15 	stw	zero,-12(fp)
    1f78:	0082d134 	movhi	r2,2884
    1f7c:	10880004 	addi	r2,r2,8192
    1f80:	e0bffc15 	stw	r2,-16(fp)
    1f84:	e03fff15 	stw	zero,-4(fp)
    1f88:	00001b06 	br	1ff8 <wait_on_phy+0x94>
    1f8c:	e0bffc17 	ldw	r2,-16(fp)
    1f90:	10800f04 	addi	r2,r2,60
    1f94:	1007883a 	mov	r3,r2
    1f98:	e0bfff17 	ldw	r2,-4(fp)
    1f9c:	18800035 	stwio	r2,0(r3)
    1fa0:	e0bffc17 	ldw	r2,-16(fp)
    1fa4:	10808204 	addi	r2,r2,520
    1fa8:	10800037 	ldwio	r2,0(r2)
    1fac:	e0bffe15 	stw	r2,-8(fp)
    1fb0:	e0bffc17 	ldw	r2,-16(fp)
    1fb4:	10808304 	addi	r2,r2,524
    1fb8:	10800037 	ldwio	r2,0(r2)
    1fbc:	e0bffd15 	stw	r2,-12(fp)
    1fc0:	e0fffe17 	ldw	r3,-8(fp)
    1fc4:	e0bffd17 	ldw	r2,-12(fp)
    1fc8:	18800826 	beq	r3,r2,1fec <wait_on_phy+0x88>
    1fcc:	01000174 	movhi	r4,5
    1fd0:	212e2404 	addi	r4,r4,-18288
    1fd4:	e17fff17 	ldw	r5,-4(fp)
    1fd8:	e1bffe17 	ldw	r6,-8(fp)
    1fdc:	e1fffd17 	ldw	r7,-12(fp)
    1fe0:	00043b80 	call	43b8 <printf>
    1fe4:	00803fc4 	movi	r2,255
    1fe8:	e0bfff15 	stw	r2,-4(fp)
    1fec:	e0bfff17 	ldw	r2,-4(fp)
    1ff0:	10800044 	addi	r2,r2,1
    1ff4:	e0bfff15 	stw	r2,-4(fp)
    1ff8:	e0bfff17 	ldw	r2,-4(fp)
    1ffc:	10803fd0 	cmplti	r2,r2,255
    2000:	103fe21e 	bne	r2,zero,1f8c <wait_on_phy+0x28>
    2004:	e0bffc17 	ldw	r2,-16(fp)
    2008:	10808004 	addi	r2,r2,512
    200c:	1007883a 	mov	r3,r2
    2010:	00a40014 	movui	r2,36864
    2014:	18800035 	stwio	r2,0(r3)
    2018:	e0bffc17 	ldw	r2,-16(fp)
    201c:	10808004 	addi	r2,r2,512
    2020:	10800037 	ldwio	r2,0(r2)
    2024:	1090000c 	andi	r2,r2,16384
    2028:	1004c03a 	cmpne	r2,r2,zero
    202c:	1000061e 	bne	r2,zero,2048 <wait_on_phy+0xe4>
    2030:	e0bffc17 	ldw	r2,-16(fp)
    2034:	10808104 	addi	r2,r2,516
    2038:	10800037 	ldwio	r2,0(r2)
    203c:	1080080c 	andi	r2,r2,32
    2040:	1004c03a 	cmpne	r2,r2,zero
    2044:	1000081e 	bne	r2,zero,2068 <wait_on_phy+0x104>
    2048:	e0bffc17 	ldw	r2,-16(fp)
    204c:	10808004 	addi	r2,r2,512
    2050:	1007883a 	mov	r3,r2
    2054:	00a40014 	movui	r2,36864
    2058:	18800035 	stwio	r2,0(r3)
    205c:	01000174 	movhi	r4,5
    2060:	212e2d04 	addi	r4,r4,-18252
    2064:	00044f40 	call	44f4 <puts>
    2068:	e0bffc17 	ldw	r2,-16(fp)
    206c:	10808104 	addi	r2,r2,516
    2070:	10800037 	ldwio	r2,0(r2)
    2074:	1080080c 	andi	r2,r2,32
    2078:	1004c03a 	cmpne	r2,r2,zero
    207c:	1000161e 	bne	r2,zero,20d8 <wait_on_phy+0x174>
    2080:	01000174 	movhi	r4,5
    2084:	212e3504 	addi	r4,r4,-18220
    2088:	00044f40 	call	44f4 <puts>
    208c:	00000506 	br	20a4 <wait_on_phy+0x140>
    2090:	0009883a 	mov	r4,zero
    2094:	000b883a 	mov	r5,zero
    2098:	000d883a 	mov	r6,zero
    209c:	01c00284 	movi	r7,10
    20a0:	00173180 	call	17318 <OSTimeDlyHMSM>
    20a4:	e0bffc17 	ldw	r2,-16(fp)
    20a8:	10808104 	addi	r2,r2,516
    20ac:	10800037 	ldwio	r2,0(r2)
    20b0:	1080080c 	andi	r2,r2,32
    20b4:	1005003a 	cmpeq	r2,r2,zero
    20b8:	103ff51e 	bne	r2,zero,2090 <wait_on_phy+0x12c>
    20bc:	01000174 	movhi	r4,5
    20c0:	212e3e04 	addi	r4,r4,-18184
    20c4:	00044f40 	call	44f4 <puts>
    20c8:	0001d040 	call	1d04 <resume_network_tasks>
    20cc:	01000174 	movhi	r4,5
    20d0:	212e4d04 	addi	r4,r4,-18124
    20d4:	00044f40 	call	44f4 <puts>
    20d8:	01000104 	movi	r4,4
    20dc:	00171cc0 	call	171cc <OSTimeDly>
    20e0:	0005883a 	mov	r2,zero
    20e4:	e037883a 	mov	sp,fp
    20e8:	dfc00117 	ldw	ra,4(sp)
    20ec:	df000017 	ldw	fp,0(sp)
    20f0:	dec00204 	addi	sp,sp,8
    20f4:	f800283a 	ret

000020f8 <SSSMonitorPhyTask>:
    20f8:	defffa04 	addi	sp,sp,-24
    20fc:	dfc00515 	stw	ra,20(sp)
    2100:	df000415 	stw	fp,16(sp)
    2104:	df000404 	addi	fp,sp,16
    2108:	e13fff15 	stw	r4,-4(fp)
    210c:	008003b4 	movhi	r2,14
    2110:	10aefe04 	addi	r2,r2,-17416
    2114:	10800117 	ldw	r2,4(r2)
    2118:	e0bffc15 	stw	r2,-16(fp)
    211c:	e03ffd15 	stw	zero,-12(fp)
    2120:	00000006 	br	2124 <SSSMonitorPhyTask+0x2c>
    2124:	0009883a 	mov	r4,zero
    2128:	000b883a 	mov	r5,zero
    212c:	01800044 	movi	r6,1
    2130:	000f883a 	mov	r7,zero
    2134:	00173180 	call	17318 <OSTimeDlyHMSM>
    2138:	e0bffc17 	ldw	r2,-16(fp)
    213c:	1080a104 	addi	r2,r2,644
    2140:	10800037 	ldwio	r2,0(r2)
    2144:	e0bffe05 	stb	r2,-8(fp)
    2148:	e0bffe03 	ldbu	r2,-8(fp)
    214c:	1080080c 	andi	r2,r2,32
    2150:	1004c03a 	cmpne	r2,r2,zero
    2154:	1000111e 	bne	r2,zero,219c <SSSMonitorPhyTask+0xa4>
    2158:	e0bffd17 	ldw	r2,-12(fp)
    215c:	10800044 	addi	r2,r2,1
    2160:	e0bffd15 	stw	r2,-12(fp)
    2164:	e0bffd17 	ldw	r2,-12(fp)
    2168:	10800058 	cmpnei	r2,r2,1
    216c:	103fed1e 	bne	r2,zero,2124 <SSSMonitorPhyTask+0x2c>
    2170:	01000174 	movhi	r4,5
    2174:	212e5404 	addi	r4,r4,-18096
    2178:	00044f40 	call	44f4 <puts>
    217c:	0001ca40 	call	1ca4 <suspend_network_tasks>
    2180:	10803fcc 	andi	r2,r2,255
    2184:	1005003a 	cmpeq	r2,r2,zero
    2188:	103fe61e 	bne	r2,zero,2124 <SSSMonitorPhyTask+0x2c>
    218c:	01000174 	movhi	r4,5
    2190:	212e5f04 	addi	r4,r4,-18052
    2194:	00044f40 	call	44f4 <puts>
    2198:	003fe206 	br	2124 <SSSMonitorPhyTask+0x2c>
    219c:	e0bffd17 	ldw	r2,-12(fp)
    21a0:	10800050 	cmplti	r2,r2,1
    21a4:	1000061e 	bne	r2,zero,21c0 <SSSMonitorPhyTask+0xc8>
    21a8:	0001f640 	call	1f64 <wait_on_phy>
    21ac:	01000174 	movhi	r4,5
    21b0:	212e6a04 	addi	r4,r4,-18008
    21b4:	00044f40 	call	44f4 <puts>
    21b8:	01000084 	movi	r4,2
    21bc:	00171cc0 	call	171cc <OSTimeDly>
    21c0:	e03ffd15 	stw	zero,-12(fp)
    21c4:	003fd706 	br	2124 <SSSMonitorPhyTask+0x2c>

000021c8 <SSSInitialTask>:
    21c8:	defffc04 	addi	sp,sp,-16
    21cc:	dfc00315 	stw	ra,12(sp)
    21d0:	df000215 	stw	fp,8(sp)
    21d4:	df000204 	addi	fp,sp,8
    21d8:	e13fff15 	stw	r4,-4(fp)
    21dc:	00800174 	movhi	r2,5
    21e0:	10ae7204 	addi	r2,r2,-17976
    21e4:	d0a8f515 	stw	r2,-23596(gp)
    21e8:	0001f640 	call	1f64 <wait_on_phy>
    21ec:	00291dc0 	call	291dc <alt_iniche_init>
    21f0:	00277500 	call	27750 <netmain>
    21f4:	00000706 	br	2214 <SSSInitialTask+0x4c>
    21f8:	01000084 	movi	r4,2
    21fc:	00171cc0 	call	171cc <OSTimeDly>
    2200:	0009883a 	mov	r4,zero
    2204:	000b883a 	mov	r5,zero
    2208:	018000c4 	movi	r6,3
    220c:	000f883a 	mov	r7,zero
    2210:	00173180 	call	17318 <OSTimeDlyHMSM>
    2214:	00800174 	movhi	r2,5
    2218:	1097d204 	addi	r2,r2,24392
    221c:	10800017 	ldw	r2,0(r2)
    2220:	1005003a 	cmpeq	r2,r2,zero
    2224:	103ff41e 	bne	r2,zero,21f8 <SSSInitialTask+0x30>
    2228:	01000174 	movhi	r4,5
    222c:	212e7404 	addi	r4,r4,-17968
    2230:	00044f40 	call	44f4 <puts>
    2234:	01000174 	movhi	r4,5
    2238:	21067804 	addi	r4,r4,6624
    223c:	0028e9c0 	call	28e9c <TK_NEWTASK>
    2240:	01000174 	movhi	r4,5
    2244:	21067e04 	addi	r4,r4,6648
    2248:	0028e9c0 	call	28e9c <TK_NEWTASK>
    224c:	00024400 	call	2440 <SSSCreateOSDataStructs>
    2250:	00024bc0 	call	24bc <SSSCreateTasks>
    2254:	01003fc4 	movi	r4,255
    2258:	00160d40 	call	160d4 <OSTaskDel>
    225c:	e0bffe05 	stb	r2,-8(fp)
    2260:	e13ffe03 	ldbu	r4,-8(fp)
    2264:	000b883a 	mov	r5,zero
    2268:	0000ebc0 	call	ebc <alt_uCOSIIErrorHandler>
    226c:	003fff06 	br	226c <SSSInitialTask+0xa4>

00002270 <main>:
    2270:	defff504 	addi	sp,sp,-44
    2274:	dfc00a15 	stw	ra,40(sp)
    2278:	df000915 	stw	fp,36(sp)
    227c:	df000904 	addi	fp,sp,36
    2280:	e13ffd15 	stw	r4,-12(fp)
    2284:	e17ffe15 	stw	r5,-8(fp)
    2288:	e1bfff15 	stw	r6,-4(fp)
    228c:	0009883a 	mov	r4,zero
    2290:	00177000 	call	17700 <OSTimeSet>
    2294:	018002b4 	movhi	r6,10
    2298:	31a20b04 	addi	r6,r6,-30676
    229c:	00800144 	movi	r2,5
    22a0:	d8800015 	stw	r2,0(sp)
    22a4:	00800234 	movhi	r2,8
    22a8:	10a20b04 	addi	r2,r2,-30676
    22ac:	d8800115 	stw	r2,4(sp)
    22b0:	00a00014 	movui	r2,32768
    22b4:	d8800215 	stw	r2,8(sp)
    22b8:	d8000315 	stw	zero,12(sp)
    22bc:	d8000415 	stw	zero,16(sp)
    22c0:	01000034 	movhi	r4,0
    22c4:	21087204 	addi	r4,r4,8648
    22c8:	000b883a 	mov	r5,zero
    22cc:	01c00144 	movi	r7,5
    22d0:	0015ed40 	call	15ed4 <OSTaskCreateExt>
    22d4:	e0bffc05 	stb	r2,-16(fp)
    22d8:	e13ffc03 	ldbu	r4,-16(fp)
    22dc:	000b883a 	mov	r5,zero
    22e0:	0000ebc0 	call	ebc <alt_uCOSIIErrorHandler>
    22e4:	000f4740 	call	f474 <OSStart>
    22e8:	003fff06 	br	22e8 <main+0x78>

000022ec <LEDBlinkTask>:
    22ec:	defffc04 	addi	sp,sp,-16
    22f0:	dfc00315 	stw	ra,12(sp)
    22f4:	df000215 	stw	fp,8(sp)
    22f8:	df000204 	addi	fp,sp,8
    22fc:	00800044 	movi	r2,1
    2300:	e0bfff15 	stw	r2,-4(fp)
    2304:	00c24034 	movhi	r3,2304
    2308:	18c02104 	addi	r3,r3,132
    230c:	00803fc4 	movi	r2,255
    2310:	18800035 	stwio	r2,0(r3)
    2314:	00800174 	movhi	r2,5
    2318:	1097a204 	addi	r2,r2,24200
    231c:	11000017 	ldw	r4,0(r2)
    2320:	00123fc0 	call	123fc <OSMboxAccept>
    2324:	e0bffe15 	stw	r2,-8(fp)
    2328:	e0bffe17 	ldw	r2,-8(fp)
    232c:	1005003a 	cmpeq	r2,r2,zero
    2330:	1000021e 	bne	r2,zero,233c <LEDBlinkTask+0x50>
    2334:	e0bffe17 	ldw	r2,-8(fp)
    2338:	e0bfff15 	stw	r2,-4(fp)
    233c:	e0bfff17 	ldw	r2,-4(fp)
    2340:	11400044 	addi	r5,r2,1
    2344:	0100fa04 	movi	r4,1000
    2348:	000386c0 	call	386c <__udivsi3>
    234c:	11ffffcc 	andi	r7,r2,65535
    2350:	0009883a 	mov	r4,zero
    2354:	000b883a 	mov	r5,zero
    2358:	000d883a 	mov	r6,zero
    235c:	00173180 	call	17318 <OSTimeDlyHMSM>
    2360:	00c24034 	movhi	r3,2304
    2364:	18c02004 	addi	r3,r3,128
    2368:	00800044 	movi	r2,1
    236c:	18800035 	stwio	r2,0(r3)
    2370:	e0bfff17 	ldw	r2,-4(fp)
    2374:	11400044 	addi	r5,r2,1
    2378:	0100fa04 	movi	r4,1000
    237c:	000386c0 	call	386c <__udivsi3>
    2380:	11ffffcc 	andi	r7,r2,65535
    2384:	0009883a 	mov	r4,zero
    2388:	000b883a 	mov	r5,zero
    238c:	000d883a 	mov	r6,zero
    2390:	00173180 	call	17318 <OSTimeDlyHMSM>
    2394:	00824034 	movhi	r2,2304
    2398:	10802004 	addi	r2,r2,128
    239c:	10000035 	stwio	zero,0(r2)
    23a0:	003fdc06 	br	2314 <LEDBlinkTask+0x28>

000023a4 <LEDManagementTask>:
    23a4:	defffc04 	addi	sp,sp,-16
    23a8:	dfc00315 	stw	ra,12(sp)
    23ac:	df000215 	stw	fp,8(sp)
    23b0:	df000204 	addi	fp,sp,8
    23b4:	e03fff05 	stb	zero,-4(fp)
    23b8:	00000006 	br	23bc <LEDManagementTask+0x18>
    23bc:	00800174 	movhi	r2,5
    23c0:	1097a104 	addi	r2,r2,24196
    23c4:	11000017 	ldw	r4,0(r2)
    23c8:	e1bfff04 	addi	r6,fp,-4
    23cc:	000b883a 	mov	r5,zero
    23d0:	0013fc00 	call	13fc0 <OSQPend>
    23d4:	e0bffe15 	stw	r2,-8(fp)
    23d8:	e0bfff03 	ldbu	r2,-4(fp)
    23dc:	11003fcc 	andi	r4,r2,255
    23e0:	000b883a 	mov	r5,zero
    23e4:	0000ebc0 	call	ebc <alt_uCOSIIErrorHandler>
    23e8:	e0bffe17 	ldw	r2,-8(fp)
    23ec:	10bff404 	addi	r2,r2,-48
    23f0:	e0bffe15 	stw	r2,-8(fp)
    23f4:	e17ffe17 	ldw	r5,-8(fp)
    23f8:	01000174 	movhi	r4,5
    23fc:	212e7f04 	addi	r4,r4,-17924
    2400:	00043b80 	call	43b8 <printf>
    2404:	00800174 	movhi	r2,5
    2408:	1097a204 	addi	r2,r2,24200
    240c:	11000017 	ldw	r4,0(r2)
    2410:	e17ffe17 	ldw	r5,-8(fp)
    2414:	0012c980 	call	12c98 <OSMboxPost>
    2418:	e0bfff05 	stb	r2,-4(fp)
    241c:	e0bfff03 	ldbu	r2,-4(fp)
    2420:	10803fcc 	andi	r2,r2,255
    2424:	1005003a 	cmpeq	r2,r2,zero
    2428:	103fe41e 	bne	r2,zero,23bc <LEDManagementTask+0x18>
    242c:	e0bfff03 	ldbu	r2,-4(fp)
    2430:	11003fcc 	andi	r4,r2,255
    2434:	000b883a 	mov	r5,zero
    2438:	0000ebc0 	call	ebc <alt_uCOSIIErrorHandler>
    243c:	003fdf06 	br	23bc <LEDManagementTask+0x18>

00002440 <SSSCreateOSDataStructs>:
    2440:	defffe04 	addi	sp,sp,-8
    2444:	dfc00115 	stw	ra,4(sp)
    2448:	df000015 	stw	fp,0(sp)
    244c:	d839883a 	mov	fp,sp
    2450:	01000334 	movhi	r4,12
    2454:	21220b04 	addi	r4,r4,-30676
    2458:	01400784 	movi	r5,30
    245c:	00139e40 	call	139e4 <OSQCreate>
    2460:	d0a8f815 	stw	r2,-23584(gp)
    2464:	d0a8f817 	ldw	r2,-23584(gp)
    2468:	1004c03a 	cmpne	r2,r2,zero
    246c:	1000041e 	bne	r2,zero,2480 <SSSCreateOSDataStructs+0x40>
    2470:	01003fc4 	movi	r4,255
    2474:	01400174 	movhi	r5,5
    2478:	296e8e04 	addi	r5,r5,-17864
    247c:	0000ebc0 	call	ebc <alt_uCOSIIErrorHandler>
    2480:	0009883a 	mov	r4,zero
    2484:	00124a00 	call	124a0 <OSMboxCreate>
    2488:	d0a8f915 	stw	r2,-23580(gp)
    248c:	d0a8f917 	ldw	r2,-23580(gp)
    2490:	1004c03a 	cmpne	r2,r2,zero
    2494:	1000041e 	bne	r2,zero,24a8 <SSSCreateOSDataStructs+0x68>
    2498:	01003fc4 	movi	r4,255
    249c:	01400174 	movhi	r5,5
    24a0:	296e9704 	addi	r5,r5,-17828
    24a4:	0000ebc0 	call	ebc <alt_uCOSIIErrorHandler>
    24a8:	e037883a 	mov	sp,fp
    24ac:	dfc00117 	ldw	ra,4(sp)
    24b0:	df000017 	ldw	fp,0(sp)
    24b4:	dec00204 	addi	sp,sp,8
    24b8:	f800283a 	ret

000024bc <SSSCreateTasks>:
    24bc:	defff804 	addi	sp,sp,-32
    24c0:	dfc00715 	stw	ra,28(sp)
    24c4:	df000615 	stw	fp,24(sp)
    24c8:	df000604 	addi	fp,sp,24
    24cc:	01800334 	movhi	r6,12
    24d0:	31a20a04 	addi	r6,r6,-30680
    24d4:	008002c4 	movi	r2,11
    24d8:	d8800015 	stw	r2,0(sp)
    24dc:	008002b4 	movhi	r2,10
    24e0:	10a20b04 	addi	r2,r2,-30676
    24e4:	d8800115 	stw	r2,4(sp)
    24e8:	00a00014 	movui	r2,32768
    24ec:	d8800215 	stw	r2,8(sp)
    24f0:	d8000315 	stw	zero,12(sp)
    24f4:	d8000415 	stw	zero,16(sp)
    24f8:	01000034 	movhi	r4,0
    24fc:	2108bb04 	addi	r4,r4,8940
    2500:	000b883a 	mov	r5,zero
    2504:	01c002c4 	movi	r7,11
    2508:	0015ed40 	call	15ed4 <OSTaskCreateExt>
    250c:	e0bfff05 	stb	r2,-4(fp)
    2510:	e13fff03 	ldbu	r4,-4(fp)
    2514:	000b883a 	mov	r5,zero
    2518:	0000ebc0 	call	ebc <alt_uCOSIIErrorHandler>
    251c:	018003b4 	movhi	r6,14
    2520:	31a22804 	addi	r6,r6,-30560
    2524:	008001c4 	movi	r2,7
    2528:	d8800015 	stw	r2,0(sp)
    252c:	00800334 	movhi	r2,12
    2530:	10a22904 	addi	r2,r2,-30556
    2534:	d8800115 	stw	r2,4(sp)
    2538:	00a00014 	movui	r2,32768
    253c:	d8800215 	stw	r2,8(sp)
    2540:	d8000315 	stw	zero,12(sp)
    2544:	d8000415 	stw	zero,16(sp)
    2548:	01000034 	movhi	r4,0
    254c:	2108e904 	addi	r4,r4,9124
    2550:	000b883a 	mov	r5,zero
    2554:	01c001c4 	movi	r7,7
    2558:	0015ed40 	call	15ed4 <OSTaskCreateExt>
    255c:	e0bfff05 	stb	r2,-4(fp)
    2560:	e13fff03 	ldbu	r4,-4(fp)
    2564:	000b883a 	mov	r5,zero
    2568:	0000ebc0 	call	ebc <alt_uCOSIIErrorHandler>
    256c:	e037883a 	mov	sp,fp
    2570:	dfc00117 	ldw	ra,4(sp)
    2574:	df000017 	ldw	fp,0(sp)
    2578:	dec00204 	addi	sp,sp,8
    257c:	f800283a 	ret

00002580 <SSS_reset_connection>:
    2580:	defffd04 	addi	sp,sp,-12
    2584:	dfc00215 	stw	ra,8(sp)
    2588:	df000115 	stw	fp,4(sp)
    258c:	df000104 	addi	fp,sp,4
    2590:	e13fff15 	stw	r4,-4(fp)
    2594:	e0bfff17 	ldw	r2,-4(fp)
    2598:	1009883a 	mov	r4,r2
    259c:	0184e704 	movi	r6,5020
    25a0:	000b883a 	mov	r5,zero
    25a4:	00042a00 	call	42a0 <memset>
    25a8:	e0ffff17 	ldw	r3,-4(fp)
    25ac:	00bfffc4 	movi	r2,-1
    25b0:	18800115 	stw	r2,4(r3)
    25b4:	e0bfff17 	ldw	r2,-4(fp)
    25b8:	10000015 	stw	zero,0(r2)
    25bc:	e0bfff17 	ldw	r2,-4(fp)
    25c0:	10c00304 	addi	r3,r2,12
    25c4:	e0bfff17 	ldw	r2,-4(fp)
    25c8:	10c4e615 	stw	r3,5016(r2)
    25cc:	e0bfff17 	ldw	r2,-4(fp)
    25d0:	10c00304 	addi	r3,r2,12
    25d4:	e0bfff17 	ldw	r2,-4(fp)
    25d8:	10c4e515 	stw	r3,5012(r2)
    25dc:	e037883a 	mov	sp,fp
    25e0:	dfc00117 	ldw	ra,4(sp)
    25e4:	df000017 	ldw	fp,0(sp)
    25e8:	dec00204 	addi	sp,sp,8
    25ec:	f800283a 	ret

000025f0 <SSS_send_menu>:
    25f0:	defb1a04 	addi	sp,sp,-5016
    25f4:	dfc4e515 	stw	ra,5012(sp)
    25f8:	df04e415 	stw	fp,5008(sp)
    25fc:	df04e404 	addi	fp,sp,5008
    2600:	e13fff15 	stw	r4,-4(fp)
    2604:	e0bb1d04 	addi	r2,fp,-5004
    2608:	e0bb1c15 	stw	r2,-5008(fp)
    260c:	e0bb1c17 	ldw	r2,-5008(fp)
    2610:	00c00174 	movhi	r3,5
    2614:	18eea104 	addi	r3,r3,-17788
    2618:	1009883a 	mov	r4,r2
    261c:	180b883a 	mov	r5,r3
    2620:	018009c4 	movi	r6,39
    2624:	00041200 	call	4120 <memcpy>
    2628:	e0bb1c17 	ldw	r2,-5008(fp)
    262c:	10800984 	addi	r2,r2,38
    2630:	e0bb1c15 	stw	r2,-5008(fp)
    2634:	e0bb1c17 	ldw	r2,-5008(fp)
    2638:	00c00174 	movhi	r3,5
    263c:	18eeab04 	addi	r3,r3,-17748
    2640:	1009883a 	mov	r4,r2
    2644:	180b883a 	mov	r5,r3
    2648:	01800904 	movi	r6,36
    264c:	00041200 	call	4120 <memcpy>
    2650:	e0bb1c17 	ldw	r2,-5008(fp)
    2654:	108008c4 	addi	r2,r2,35
    2658:	e0bb1c15 	stw	r2,-5008(fp)
    265c:	e0bb1c17 	ldw	r2,-5008(fp)
    2660:	00c00174 	movhi	r3,5
    2664:	18eea104 	addi	r3,r3,-17788
    2668:	1009883a 	mov	r4,r2
    266c:	180b883a 	mov	r5,r3
    2670:	018009c4 	movi	r6,39
    2674:	00041200 	call	4120 <memcpy>
    2678:	e0bb1c17 	ldw	r2,-5008(fp)
    267c:	10800984 	addi	r2,r2,38
    2680:	e0bb1c15 	stw	r2,-5008(fp)
    2684:	e0bb1c17 	ldw	r2,-5008(fp)
    2688:	00c00174 	movhi	r3,5
    268c:	18eeb404 	addi	r3,r3,-17712
    2690:	1009883a 	mov	r4,r2
    2694:	180b883a 	mov	r5,r3
    2698:	01800884 	movi	r6,34
    269c:	00041200 	call	4120 <memcpy>
    26a0:	e0bb1c17 	ldw	r2,-5008(fp)
    26a4:	10800844 	addi	r2,r2,33
    26a8:	e0bb1c15 	stw	r2,-5008(fp)
    26ac:	e0bb1c17 	ldw	r2,-5008(fp)
    26b0:	00c00174 	movhi	r3,5
    26b4:	18eebd04 	addi	r3,r3,-17676
    26b8:	1009883a 	mov	r4,r2
    26bc:	180b883a 	mov	r5,r3
    26c0:	018005c4 	movi	r6,23
    26c4:	00041200 	call	4120 <memcpy>
    26c8:	e0bb1c17 	ldw	r2,-5008(fp)
    26cc:	10800584 	addi	r2,r2,22
    26d0:	e0bb1c15 	stw	r2,-5008(fp)
    26d4:	e0bb1c17 	ldw	r2,-5008(fp)
    26d8:	00c00174 	movhi	r3,5
    26dc:	18eec304 	addi	r3,r3,-17652
    26e0:	1009883a 	mov	r4,r2
    26e4:	180b883a 	mov	r5,r3
    26e8:	01800904 	movi	r6,36
    26ec:	00041200 	call	4120 <memcpy>
    26f0:	e0bb1c17 	ldw	r2,-5008(fp)
    26f4:	108008c4 	addi	r2,r2,35
    26f8:	e0bb1c15 	stw	r2,-5008(fp)
    26fc:	e0bb1c17 	ldw	r2,-5008(fp)
    2700:	00c00174 	movhi	r3,5
    2704:	18eecc04 	addi	r3,r3,-17616
    2708:	1009883a 	mov	r4,r2
    270c:	180b883a 	mov	r5,r3
    2710:	01800904 	movi	r6,36
    2714:	00041200 	call	4120 <memcpy>
    2718:	e0bb1c17 	ldw	r2,-5008(fp)
    271c:	108008c4 	addi	r2,r2,35
    2720:	e0bb1c15 	stw	r2,-5008(fp)
    2724:	e0bfff17 	ldw	r2,-4(fp)
    2728:	11000117 	ldw	r4,4(r2)
    272c:	e17b1d04 	addi	r5,fp,-5004
    2730:	e0fb1c17 	ldw	r3,-5008(fp)
    2734:	e0bb1d04 	addi	r2,fp,-5004
    2738:	188dc83a 	sub	r6,r3,r2
    273c:	000f883a 	mov	r7,zero
    2740:	002cdd80 	call	2cdd8 <t_send>
    2744:	e037883a 	mov	sp,fp
    2748:	dfc00117 	ldw	ra,4(sp)
    274c:	df000017 	ldw	fp,0(sp)
    2750:	dec00204 	addi	sp,sp,8
    2754:	f800283a 	ret

00002758 <SSS_handle_accept>:
    2758:	defff604 	addi	sp,sp,-40
    275c:	dfc00915 	stw	ra,36(sp)
    2760:	df000815 	stw	fp,32(sp)
    2764:	df000804 	addi	fp,sp,32
    2768:	e13ffe15 	stw	r4,-8(fp)
    276c:	e17fff15 	stw	r5,-4(fp)
    2770:	00800404 	movi	r2,16
    2774:	e0bff915 	stw	r2,-28(fp)
    2778:	e0bfff17 	ldw	r2,-4(fp)
    277c:	10800117 	ldw	r2,4(r2)
    2780:	10bfffd8 	cmpnei	r2,r2,-1
    2784:	1000171e 	bne	r2,zero,27e4 <SSS_handle_accept+0x8c>
    2788:	e17ffa04 	addi	r5,fp,-24
    278c:	e1bff904 	addi	r6,fp,-28
    2790:	e13ffe17 	ldw	r4,-8(fp)
    2794:	00260340 	call	26034 <bsd_accept>
    2798:	e0bff815 	stw	r2,-32(fp)
    279c:	e0bff817 	ldw	r2,-32(fp)
    27a0:	1004403a 	cmpge	r2,r2,zero
    27a4:	1000051e 	bne	r2,zero,27bc <SSS_handle_accept+0x64>
    27a8:	01003fc4 	movi	r4,255
    27ac:	01400174 	movhi	r5,5
    27b0:	296ed504 	addi	r5,r5,-17580
    27b4:	00014e00 	call	14e0 <alt_NetworkErrorHandler>
    27b8:	00001006 	br	27fc <SSS_handle_accept+0xa4>
    27bc:	e0bfff17 	ldw	r2,-4(fp)
    27c0:	e0fff817 	ldw	r3,-32(fp)
    27c4:	10c00115 	stw	r3,4(r2)
    27c8:	e13ffb17 	ldw	r4,-20(fp)
    27cc:	00267b80 	call	267b8 <bsd_inet_ntoa>
    27d0:	100b883a 	mov	r5,r2
    27d4:	01000174 	movhi	r4,5
    27d8:	212ede04 	addi	r4,r4,-17544
    27dc:	00043b80 	call	43b8 <printf>
    27e0:	00000606 	br	27fc <SSS_handle_accept+0xa4>
    27e4:	e13ffb17 	ldw	r4,-20(fp)
    27e8:	00267b80 	call	267b8 <bsd_inet_ntoa>
    27ec:	100b883a 	mov	r5,r2
    27f0:	01000174 	movhi	r4,5
    27f4:	212eed04 	addi	r4,r4,-17484
    27f8:	00043b80 	call	43b8 <printf>
    27fc:	e037883a 	mov	sp,fp
    2800:	dfc00117 	ldw	ra,4(sp)
    2804:	df000017 	ldw	fp,0(sp)
    2808:	dec00204 	addi	sp,sp,8
    280c:	f800283a 	ret

00002810 <SSS_exec_command>:
    2810:	defb1604 	addi	sp,sp,-5032
    2814:	dfc4e915 	stw	ra,5028(sp)
    2818:	df04e815 	stw	fp,5024(sp)
    281c:	df04e804 	addi	fp,sp,5024
    2820:	e13ffe15 	stw	r4,-8(fp)
    2824:	e0bffe17 	ldw	r2,-8(fp)
    2828:	1084e617 	ldw	r2,5016(r2)
    282c:	1007883a 	mov	r3,r2
    2830:	e0bffe17 	ldw	r2,-8(fp)
    2834:	1084e517 	ldw	r2,5012(r2)
    2838:	1885c83a 	sub	r2,r3,r2
    283c:	e0bb1b15 	stw	r2,-5012(fp)
    2840:	e0bb1c04 	addi	r2,fp,-5008
    2844:	e0bb1a15 	stw	r2,-5016(fp)
    2848:	00800e44 	movi	r2,57
    284c:	d0a8f715 	stw	r2,-23588(gp)
    2850:	00004806 	br	2974 <SSS_exec_command+0x164>
    2854:	e0bffe17 	ldw	r2,-8(fp)
    2858:	10c4e517 	ldw	r3,5012(r2)
    285c:	18800003 	ldbu	r2,0(r3)
    2860:	10803fcc 	andi	r2,r2,255
    2864:	e0bb1815 	stw	r2,-5024(fp)
    2868:	18c00044 	addi	r3,r3,1
    286c:	e0bffe17 	ldw	r2,-8(fp)
    2870:	10c4e515 	stw	r3,5012(r2)
    2874:	00800174 	movhi	r2,5
    2878:	108ead04 	addi	r2,r2,15028
    287c:	10c00017 	ldw	r3,0(r2)
    2880:	e0bb1817 	ldw	r2,-5024(fp)
    2884:	1885883a 	add	r2,r3,r2
    2888:	10800003 	ldbu	r2,0(r2)
    288c:	10803fcc 	andi	r2,r2,255
    2890:	1080008c 	andi	r2,r2,2
    2894:	1005003a 	cmpeq	r2,r2,zero
    2898:	1000041e 	bne	r2,zero,28ac <SSS_exec_command+0x9c>
    289c:	e0bb1817 	ldw	r2,-5024(fp)
    28a0:	10bff804 	addi	r2,r2,-32
    28a4:	e0bfff15 	stw	r2,-4(fp)
    28a8:	00000206 	br	28b4 <SSS_exec_command+0xa4>
    28ac:	e0bb1817 	ldw	r2,-5024(fp)
    28b0:	e0bfff15 	stw	r2,-4(fp)
    28b4:	e0bfff17 	ldw	r2,-4(fp)
    28b8:	d0a8f715 	stw	r2,-23588(gp)
    28bc:	d0a8f717 	ldw	r2,-23588(gp)
    28c0:	10800c30 	cmpltui	r2,r2,48
    28c4:	1000031e 	bne	r2,zero,28d4 <SSS_exec_command+0xc4>
    28c8:	d0a8f717 	ldw	r2,-23588(gp)
    28cc:	10800eb0 	cmpltui	r2,r2,58
    28d0:	1000031e 	bne	r2,zero,28e0 <SSS_exec_command+0xd0>
    28d4:	d0a8f717 	ldw	r2,-23588(gp)
    28d8:	10801458 	cmpnei	r2,r2,81
    28dc:	1000251e 	bne	r2,zero,2974 <SSS_exec_command+0x164>
    28e0:	e13b1a17 	ldw	r4,-5016(fp)
    28e4:	d0a8f717 	ldw	r2,-23588(gp)
    28e8:	11803fcc 	andi	r6,r2,255
    28ec:	3180201c 	xori	r6,r6,128
    28f0:	31bfe004 	addi	r6,r6,-128
    28f4:	01400174 	movhi	r5,5
    28f8:	296efc04 	addi	r5,r5,-17424
    28fc:	00045780 	call	4578 <sprintf>
    2900:	1007883a 	mov	r3,r2
    2904:	e0bb1a17 	ldw	r2,-5016(fp)
    2908:	10c5883a 	add	r2,r2,r3
    290c:	e0bb1a15 	stw	r2,-5016(fp)
    2910:	d0a8f717 	ldw	r2,-23588(gp)
    2914:	10801458 	cmpnei	r2,r2,81
    2918:	10000e1e 	bne	r2,zero,2954 <SSS_exec_command+0x144>
    291c:	e0bb1a17 	ldw	r2,-5016(fp)
    2920:	00c00174 	movhi	r3,5
    2924:	18ef0804 	addi	r3,r3,-17376
    2928:	1009883a 	mov	r4,r2
    292c:	180b883a 	mov	r5,r3
    2930:	018006c4 	movi	r6,27
    2934:	00041200 	call	4120 <memcpy>
    2938:	e0bb1a17 	ldw	r2,-5016(fp)
    293c:	10800684 	addi	r2,r2,26
    2940:	e0bb1a15 	stw	r2,-5016(fp)
    2944:	e0fffe17 	ldw	r3,-8(fp)
    2948:	00800044 	movi	r2,1
    294c:	18800215 	stw	r2,8(r3)
    2950:	00000806 	br	2974 <SSS_exec_command+0x164>
    2954:	d128f817 	ldw	r4,-23584(gp)
    2958:	d0a8f717 	ldw	r2,-23588(gp)
    295c:	100b883a 	mov	r5,r2
    2960:	001445c0 	call	1445c <OSQPost>
    2964:	e0bb1905 	stb	r2,-5020(fp)
    2968:	e13b1903 	ldbu	r4,-5020(fp)
    296c:	000b883a 	mov	r5,zero
    2970:	00017780 	call	1778 <alt_SSSErrorHandler>
    2974:	e0bb1b17 	ldw	r2,-5012(fp)
    2978:	10bfffc4 	addi	r2,r2,-1
    297c:	e0bb1b15 	stw	r2,-5012(fp)
    2980:	e0bb1b17 	ldw	r2,-5012(fp)
    2984:	10bfffd8 	cmpnei	r2,r2,-1
    2988:	103fb21e 	bne	r2,zero,2854 <SSS_exec_command+0x44>
    298c:	e0bffe17 	ldw	r2,-8(fp)
    2990:	11000117 	ldw	r4,4(r2)
    2994:	e17b1c04 	addi	r5,fp,-5008
    2998:	e0fb1a17 	ldw	r3,-5016(fp)
    299c:	e0bb1c04 	addi	r2,fp,-5008
    29a0:	188dc83a 	sub	r6,r3,r2
    29a4:	000f883a 	mov	r7,zero
    29a8:	002cdd80 	call	2cdd8 <t_send>
    29ac:	e037883a 	mov	sp,fp
    29b0:	dfc00117 	ldw	ra,4(sp)
    29b4:	df000017 	ldw	fp,0(sp)
    29b8:	dec00204 	addi	sp,sp,8
    29bc:	f800283a 	ret

000029c0 <SSS_handle_receive>:
    29c0:	defff904 	addi	sp,sp,-28
    29c4:	dfc00615 	stw	ra,24(sp)
    29c8:	df000515 	stw	fp,20(sp)
    29cc:	df000504 	addi	fp,sp,20
    29d0:	e13ffe15 	stw	r4,-8(fp)
    29d4:	e03ffd15 	stw	zero,-12(fp)
    29d8:	e03ffc15 	stw	zero,-16(fp)
    29dc:	e0bffe17 	ldw	r2,-8(fp)
    29e0:	10c00304 	addi	r3,r2,12
    29e4:	e0bffe17 	ldw	r2,-8(fp)
    29e8:	10c4e515 	stw	r3,5012(r2)
    29ec:	e0bffe17 	ldw	r2,-8(fp)
    29f0:	10c00304 	addi	r3,r2,12
    29f4:	e0bffe17 	ldw	r2,-8(fp)
    29f8:	10c4e615 	stw	r3,5016(r2)
    29fc:	01000174 	movhi	r4,5
    2a00:	212f0f04 	addi	r4,r4,-17348
    2a04:	00044f40 	call	44f4 <puts>
    2a08:	00005706 	br	2b68 <SSS_handle_receive+0x1a8>
    2a0c:	e0bffe17 	ldw	r2,-8(fp)
    2a10:	10800304 	addi	r2,r2,12
    2a14:	1009883a 	mov	r4,r2
    2a18:	01400284 	movi	r5,10
    2a1c:	000464c0 	call	464c <strchr>
    2a20:	e0bffb15 	stw	r2,-20(fp)
    2a24:	e0bffb17 	ldw	r2,-20(fp)
    2a28:	1005003a 	cmpeq	r2,r2,zero
    2a2c:	1000031e 	bne	r2,zero,2a3c <SSS_handle_receive+0x7c>
    2a30:	e13ffe17 	ldw	r4,-8(fp)
    2a34:	00028100 	call	2810 <SSS_exec_command>
    2a38:	00001c06 	br	2aac <SSS_handle_receive+0xec>
    2a3c:	e0bffe17 	ldw	r2,-8(fp)
    2a40:	11000117 	ldw	r4,4(r2)
    2a44:	e0bffe17 	ldw	r2,-8(fp)
    2a48:	1084e617 	ldw	r2,5016(r2)
    2a4c:	100b883a 	mov	r5,r2
    2a50:	e0bffe17 	ldw	r2,-8(fp)
    2a54:	10800304 	addi	r2,r2,12
    2a58:	1007883a 	mov	r3,r2
    2a5c:	e0bffe17 	ldw	r2,-8(fp)
    2a60:	1084e617 	ldw	r2,5016(r2)
    2a64:	1885c83a 	sub	r2,r3,r2
    2a68:	1184e1c4 	addi	r6,r2,4999
    2a6c:	000f883a 	mov	r7,zero
    2a70:	002c96c0 	call	2c96c <t_recv>
    2a74:	e0bffc15 	stw	r2,-16(fp)
    2a78:	e0bffc17 	ldw	r2,-16(fp)
    2a7c:	10800050 	cmplti	r2,r2,1
    2a80:	10000a1e 	bne	r2,zero,2aac <SSS_handle_receive+0xec>
    2a84:	e0bffe17 	ldw	r2,-8(fp)
    2a88:	10c4e617 	ldw	r3,5016(r2)
    2a8c:	e0bffc17 	ldw	r2,-16(fp)
    2a90:	1887883a 	add	r3,r3,r2
    2a94:	e0bffe17 	ldw	r2,-8(fp)
    2a98:	10c4e615 	stw	r3,5016(r2)
    2a9c:	e0bffe17 	ldw	r2,-8(fp)
    2aa0:	1084e617 	ldw	r2,5016(r2)
    2aa4:	10800044 	addi	r2,r2,1
    2aa8:	10000005 	stb	zero,0(r2)
    2aac:	e0bffe17 	ldw	r2,-8(fp)
    2ab0:	10800217 	ldw	r2,8(r2)
    2ab4:	1005003a 	cmpeq	r2,r2,zero
    2ab8:	1000031e 	bne	r2,zero,2ac8 <SSS_handle_receive+0x108>
    2abc:	00800084 	movi	r2,2
    2ac0:	e0bfff15 	stw	r2,-4(fp)
    2ac4:	00000106 	br	2acc <SSS_handle_receive+0x10c>
    2ac8:	e03fff15 	stw	zero,-4(fp)
    2acc:	e0bffe17 	ldw	r2,-8(fp)
    2ad0:	e0ffff17 	ldw	r3,-4(fp)
    2ad4:	10c00015 	stw	r3,0(r2)
    2ad8:	e0bffe17 	ldw	r2,-8(fp)
    2adc:	1084e517 	ldw	r2,5012(r2)
    2ae0:	1007883a 	mov	r3,r2
    2ae4:	e0bffe17 	ldw	r2,-8(fp)
    2ae8:	10800304 	addi	r2,r2,12
    2aec:	1885c83a 	sub	r2,r3,r2
    2af0:	e0bffd15 	stw	r2,-12(fp)
    2af4:	e0bffe17 	ldw	r2,-8(fp)
    2af8:	11000304 	addi	r4,r2,12
    2afc:	e0bffe17 	ldw	r2,-8(fp)
    2b00:	1144e517 	ldw	r5,5012(r2)
    2b04:	e0bffe17 	ldw	r2,-8(fp)
    2b08:	1084e617 	ldw	r2,5016(r2)
    2b0c:	1007883a 	mov	r3,r2
    2b10:	e0bffe17 	ldw	r2,-8(fp)
    2b14:	1084e517 	ldw	r2,5012(r2)
    2b18:	1885c83a 	sub	r2,r3,r2
    2b1c:	100d883a 	mov	r6,r2
    2b20:	00041c00 	call	41c0 <memmove>
    2b24:	e0bffe17 	ldw	r2,-8(fp)
    2b28:	10c00304 	addi	r3,r2,12
    2b2c:	e0bffe17 	ldw	r2,-8(fp)
    2b30:	10c4e515 	stw	r3,5012(r2)
    2b34:	e0bffe17 	ldw	r2,-8(fp)
    2b38:	10c4e617 	ldw	r3,5016(r2)
    2b3c:	e0bffd17 	ldw	r2,-12(fp)
    2b40:	1887c83a 	sub	r3,r3,r2
    2b44:	e0bffe17 	ldw	r2,-8(fp)
    2b48:	10c4e615 	stw	r3,5016(r2)
    2b4c:	e0bffe17 	ldw	r2,-8(fp)
    2b50:	1084e617 	ldw	r2,5016(r2)
    2b54:	e0fffd17 	ldw	r3,-12(fp)
    2b58:	1009883a 	mov	r4,r2
    2b5c:	180d883a 	mov	r6,r3
    2b60:	000b883a 	mov	r5,zero
    2b64:	00042a00 	call	42a0 <memset>
    2b68:	e0bffe17 	ldw	r2,-8(fp)
    2b6c:	10800017 	ldw	r2,0(r2)
    2b70:	10800098 	cmpnei	r2,r2,2
    2b74:	103fa51e 	bne	r2,zero,2a0c <SSS_handle_receive+0x4c>
    2b78:	01000174 	movhi	r4,5
    2b7c:	212f1904 	addi	r4,r4,-17308
    2b80:	00044f40 	call	44f4 <puts>
    2b84:	e0bffe17 	ldw	r2,-8(fp)
    2b88:	11000117 	ldw	r4,4(r2)
    2b8c:	0023a380 	call	23a38 <close>
    2b90:	e13ffe17 	ldw	r4,-8(fp)
    2b94:	00025800 	call	2580 <SSS_reset_connection>
    2b98:	e037883a 	mov	sp,fp
    2b9c:	dfc00117 	ldw	ra,4(sp)
    2ba0:	df000017 	ldw	fp,0(sp)
    2ba4:	dec00204 	addi	sp,sp,8
    2ba8:	f800283a 	ret

00002bac <SSSNiosIISimpleSocketServerTask>:
    2bac:	deffb604 	addi	sp,sp,-296
    2bb0:	dfc04915 	stw	ra,292(sp)
    2bb4:	df004815 	stw	fp,288(sp)
    2bb8:	df004804 	addi	fp,sp,288
    2bbc:	01000084 	movi	r4,2
    2bc0:	01400044 	movi	r5,1
    2bc4:	000d883a 	mov	r6,zero
    2bc8:	002bb380 	call	2bb38 <t_socket>
    2bcc:	e0bfba15 	stw	r2,-280(fp)
    2bd0:	e0bfba17 	ldw	r2,-280(fp)
    2bd4:	1004403a 	cmpge	r2,r2,zero
    2bd8:	1000041e 	bne	r2,zero,2bec <SSSNiosIISimpleSocketServerTask+0x40>
    2bdc:	01003fc4 	movi	r4,255
    2be0:	01400174 	movhi	r5,5
    2be4:	296f2304 	addi	r5,r5,-17268
    2be8:	00014e00 	call	14e0 <alt_NetworkErrorHandler>
    2bec:	00800084 	movi	r2,2
    2bf0:	e0bfbb0d 	sth	r2,-276(fp)
    2bf4:	00878004 	movi	r2,7680
    2bf8:	e0bfbb8d 	sth	r2,-274(fp)
    2bfc:	e03fbc15 	stw	zero,-272(fp)
    2c00:	e17fbb04 	addi	r5,fp,-276
    2c04:	e13fba17 	ldw	r4,-280(fp)
    2c08:	01800404 	movi	r6,16
    2c0c:	002bbc80 	call	2bbc8 <t_bind>
    2c10:	1004403a 	cmpge	r2,r2,zero
    2c14:	1000041e 	bne	r2,zero,2c28 <SSSNiosIISimpleSocketServerTask+0x7c>
    2c18:	01003fc4 	movi	r4,255
    2c1c:	01400174 	movhi	r5,5
    2c20:	296f2c04 	addi	r5,r5,-17232
    2c24:	00014e00 	call	14e0 <alt_NetworkErrorHandler>
    2c28:	e13fba17 	ldw	r4,-280(fp)
    2c2c:	01400044 	movi	r5,1
    2c30:	002bd440 	call	2bd44 <t_listen>
    2c34:	1004403a 	cmpge	r2,r2,zero
    2c38:	1000041e 	bne	r2,zero,2c4c <SSSNiosIISimpleSocketServerTask+0xa0>
    2c3c:	01003fc4 	movi	r4,255
    2c40:	01400174 	movhi	r5,5
    2c44:	296f3204 	addi	r5,r5,-17208
    2c48:	00014e00 	call	14e0 <alt_NetworkErrorHandler>
    2c4c:	01000174 	movhi	r4,5
    2c50:	21181604 	addi	r4,r4,24664
    2c54:	00025800 	call	2580 <SSS_reset_connection>
    2c58:	01000174 	movhi	r4,5
    2c5c:	212f3904 	addi	r4,r4,-17180
    2c60:	01400784 	movi	r5,30
    2c64:	00043b80 	call	43b8 <printf>
    2c68:	00000006 	br	2c6c <SSSNiosIISimpleSocketServerTask+0xc0>
    2c6c:	e03fbf15 	stw	zero,-260(fp)
    2c70:	e17fbf04 	addi	r5,fp,-260
    2c74:	e13fba17 	ldw	r4,-280(fp)
    2c78:	003118c0 	call	3118c <ifd_set>
    2c7c:	e0bfba17 	ldw	r2,-280(fp)
    2c80:	10800044 	addi	r2,r2,1
    2c84:	e0bfb915 	stw	r2,-284(fp)
    2c88:	00800174 	movhi	r2,5
    2c8c:	10981604 	addi	r2,r2,24664
    2c90:	10800117 	ldw	r2,4(r2)
    2c94:	10bfffe0 	cmpeqi	r2,r2,-1
    2c98:	10000f1e 	bne	r2,zero,2cd8 <SSSNiosIISimpleSocketServerTask+0x12c>
    2c9c:	00800174 	movhi	r2,5
    2ca0:	10981604 	addi	r2,r2,24664
    2ca4:	11000117 	ldw	r4,4(r2)
    2ca8:	e17fbf04 	addi	r5,fp,-260
    2cac:	003118c0 	call	3118c <ifd_set>
    2cb0:	00800174 	movhi	r2,5
    2cb4:	10981604 	addi	r2,r2,24664
    2cb8:	10c00117 	ldw	r3,4(r2)
    2cbc:	e0bfb917 	ldw	r2,-284(fp)
    2cc0:	18800516 	blt	r3,r2,2cd8 <SSSNiosIISimpleSocketServerTask+0x12c>
    2cc4:	00800174 	movhi	r2,5
    2cc8:	10981604 	addi	r2,r2,24664
    2ccc:	10800117 	ldw	r2,4(r2)
    2cd0:	10800044 	addi	r2,r2,1
    2cd4:	e0bfb915 	stw	r2,-284(fp)
    2cd8:	01000174 	movhi	r4,5
    2cdc:	212f4904 	addi	r4,r4,-17116
    2ce0:	00044f40 	call	44f4 <puts>
    2ce4:	e17fbf04 	addi	r5,fp,-260
    2ce8:	d8000015 	stw	zero,0(sp)
    2cec:	e13fb917 	ldw	r4,-284(fp)
    2cf0:	000d883a 	mov	r6,zero
    2cf4:	000f883a 	mov	r7,zero
    2cf8:	00269480 	call	26948 <bsd_select>
    2cfc:	01000174 	movhi	r4,5
    2d00:	212f4c04 	addi	r4,r4,-17104
    2d04:	00044f40 	call	44f4 <puts>
    2d08:	e17fbf04 	addi	r5,fp,-260
    2d0c:	e13fba17 	ldw	r4,-280(fp)
    2d10:	00312000 	call	31200 <ifd_isset>
    2d14:	1005003a 	cmpeq	r2,r2,zero
    2d18:	1000081e 	bne	r2,zero,2d3c <SSSNiosIISimpleSocketServerTask+0x190>
    2d1c:	e13fba17 	ldw	r4,-280(fp)
    2d20:	01400174 	movhi	r5,5
    2d24:	29581604 	addi	r5,r5,24664
    2d28:	00027580 	call	2758 <SSS_handle_accept>
    2d2c:	01000174 	movhi	r4,5
    2d30:	212f4f04 	addi	r4,r4,-17092
    2d34:	00044f40 	call	44f4 <puts>
    2d38:	003fcc06 	br	2c6c <SSSNiosIISimpleSocketServerTask+0xc0>
    2d3c:	00800174 	movhi	r2,5
    2d40:	10981604 	addi	r2,r2,24664
    2d44:	10800117 	ldw	r2,4(r2)
    2d48:	10bfffe0 	cmpeqi	r2,r2,-1
    2d4c:	103fc71e 	bne	r2,zero,2c6c <SSSNiosIISimpleSocketServerTask+0xc0>
    2d50:	00800174 	movhi	r2,5
    2d54:	10981604 	addi	r2,r2,24664
    2d58:	11000117 	ldw	r4,4(r2)
    2d5c:	e17fbf04 	addi	r5,fp,-260
    2d60:	00312000 	call	31200 <ifd_isset>
    2d64:	1005003a 	cmpeq	r2,r2,zero
    2d68:	103fc01e 	bne	r2,zero,2c6c <SSSNiosIISimpleSocketServerTask+0xc0>
    2d6c:	01000174 	movhi	r4,5
    2d70:	21181604 	addi	r4,r4,24664
    2d74:	00029c00 	call	29c0 <SSS_handle_receive>
    2d78:	003fbc06 	br	2c6c <SSSNiosIISimpleSocketServerTask+0xc0>

00002d7c <SSSNiosIISimpleSocketServerPeneTask>:
    2d7c:	defc6004 	addi	sp,sp,-3712
    2d80:	dfc39f15 	stw	ra,3708(sp)
    2d84:	df039e15 	stw	fp,3704(sp)
    2d88:	df039e04 	addi	fp,sp,3704
    2d8c:	e13cad04 	addi	r4,fp,-3404
    2d90:	01815e04 	movi	r6,1400
    2d94:	000b883a 	mov	r5,zero
    2d98:	00042a00 	call	42a0 <memset>
    2d9c:	00801144 	movi	r2,69
    2da0:	e0bcad0d 	sth	r2,-3404(fp)
    2da4:	00bfeec4 	movi	r2,-69
    2da8:	e0bcad8d 	sth	r2,-3402(fp)
    2dac:	00801144 	movi	r2,69
    2db0:	e0bcae0d 	sth	r2,-3400(fp)
    2db4:	00bfeec4 	movi	r2,-69
    2db8:	e0bcae8d 	sth	r2,-3398(fp)
    2dbc:	00801144 	movi	r2,69
    2dc0:	e0bcaf0d 	sth	r2,-3396(fp)
    2dc4:	00801144 	movi	r2,69
    2dc8:	e0bcaf8d 	sth	r2,-3394(fp)
    2dcc:	00bfeec4 	movi	r2,-69
    2dd0:	e0bcb00d 	sth	r2,-3392(fp)
    2dd4:	00801144 	movi	r2,69
    2dd8:	e0bcb08d 	sth	r2,-3390(fp)
    2ddc:	00bfeec4 	movi	r2,-69
    2de0:	e0bcb10d 	sth	r2,-3388(fp)
    2de4:	00801144 	movi	r2,69
    2de8:	e0bcb18d 	sth	r2,-3386(fp)
    2dec:	00bfeec4 	movi	r2,-69
    2df0:	e0bcb20d 	sth	r2,-3384(fp)
    2df4:	00801144 	movi	r2,69
    2df8:	e0bcb28d 	sth	r2,-3382(fp)
    2dfc:	00bfeec4 	movi	r2,-69
    2e00:	e0bcb30d 	sth	r2,-3380(fp)
    2e04:	00801144 	movi	r2,69
    2e08:	e0bcb38d 	sth	r2,-3378(fp)
    2e0c:	00801144 	movi	r2,69
    2e10:	e0bcb40d 	sth	r2,-3376(fp)
    2e14:	00bfeec4 	movi	r2,-69
    2e18:	e0bcb48d 	sth	r2,-3374(fp)
    2e1c:	00801144 	movi	r2,69
    2e20:	e0bcb50d 	sth	r2,-3372(fp)
    2e24:	00bfeec4 	movi	r2,-69
    2e28:	e0bcb58d 	sth	r2,-3370(fp)
    2e2c:	00801144 	movi	r2,69
    2e30:	e0bcb60d 	sth	r2,-3368(fp)
    2e34:	00bfeec4 	movi	r2,-69
    2e38:	e0bcb68d 	sth	r2,-3366(fp)
    2e3c:	00801144 	movi	r2,69
    2e40:	e0bcb70d 	sth	r2,-3364(fp)
    2e44:	00bfeec4 	movi	r2,-69
    2e48:	e0bcb78d 	sth	r2,-3362(fp)
    2e4c:	00801144 	movi	r2,69
    2e50:	e0bcb80d 	sth	r2,-3360(fp)
    2e54:	00801144 	movi	r2,69
    2e58:	e0bcb88d 	sth	r2,-3358(fp)
    2e5c:	00bfeec4 	movi	r2,-69
    2e60:	e0bcb90d 	sth	r2,-3356(fp)
    2e64:	00801144 	movi	r2,69
    2e68:	e0bcb98d 	sth	r2,-3354(fp)
    2e6c:	00bfeec4 	movi	r2,-69
    2e70:	e0bcba0d 	sth	r2,-3352(fp)
    2e74:	00801144 	movi	r2,69
    2e78:	e0bcba8d 	sth	r2,-3350(fp)
    2e7c:	00bfeec4 	movi	r2,-69
    2e80:	e0bcbb0d 	sth	r2,-3348(fp)
    2e84:	00801144 	movi	r2,69
    2e88:	e0bcbb8d 	sth	r2,-3346(fp)
    2e8c:	00bfeec4 	movi	r2,-69
    2e90:	e0bcbc0d 	sth	r2,-3344(fp)
    2e94:	00801144 	movi	r2,69
    2e98:	e0bcbc8d 	sth	r2,-3342(fp)
    2e9c:	00801144 	movi	r2,69
    2ea0:	e0bcbd0d 	sth	r2,-3340(fp)
    2ea4:	00bfeec4 	movi	r2,-69
    2ea8:	e0bcbd8d 	sth	r2,-3338(fp)
    2eac:	00801144 	movi	r2,69
    2eb0:	e0bcbe0d 	sth	r2,-3336(fp)
    2eb4:	00bfeec4 	movi	r2,-69
    2eb8:	e0bcbe8d 	sth	r2,-3334(fp)
    2ebc:	00801144 	movi	r2,69
    2ec0:	e0bcbf0d 	sth	r2,-3332(fp)
    2ec4:	00bfeec4 	movi	r2,-69
    2ec8:	e0bcbf8d 	sth	r2,-3330(fp)
    2ecc:	00801144 	movi	r2,69
    2ed0:	e0bcc00d 	sth	r2,-3328(fp)
    2ed4:	00bfeec4 	movi	r2,-69
    2ed8:	e0bcc08d 	sth	r2,-3326(fp)
    2edc:	00801144 	movi	r2,69
    2ee0:	e0bcc10d 	sth	r2,-3324(fp)
    2ee4:	00801144 	movi	r2,69
    2ee8:	e0bcc18d 	sth	r2,-3322(fp)
    2eec:	00bfeec4 	movi	r2,-69
    2ef0:	e0bcc20d 	sth	r2,-3320(fp)
    2ef4:	00801144 	movi	r2,69
    2ef8:	e0bcc28d 	sth	r2,-3318(fp)
    2efc:	00bfeec4 	movi	r2,-69
    2f00:	e0bcc30d 	sth	r2,-3316(fp)
    2f04:	00801144 	movi	r2,69
    2f08:	e0bcc38d 	sth	r2,-3314(fp)
    2f0c:	00bfeec4 	movi	r2,-69
    2f10:	e0bcc40d 	sth	r2,-3312(fp)
    2f14:	00801144 	movi	r2,69
    2f18:	e0bcc48d 	sth	r2,-3310(fp)
    2f1c:	00bfeec4 	movi	r2,-69
    2f20:	e0bcc50d 	sth	r2,-3308(fp)
    2f24:	00801144 	movi	r2,69
    2f28:	e0bcc58d 	sth	r2,-3306(fp)
    2f2c:	00801144 	movi	r2,69
    2f30:	e0bcc60d 	sth	r2,-3304(fp)
    2f34:	00bfeec4 	movi	r2,-69
    2f38:	e0bcc68d 	sth	r2,-3302(fp)
    2f3c:	00801144 	movi	r2,69
    2f40:	e0bcc70d 	sth	r2,-3300(fp)
    2f44:	00bfeec4 	movi	r2,-69
    2f48:	e0bcc78d 	sth	r2,-3298(fp)
    2f4c:	00801144 	movi	r2,69
    2f50:	e0bcc80d 	sth	r2,-3296(fp)
    2f54:	00bfeec4 	movi	r2,-69
    2f58:	e0bcc88d 	sth	r2,-3294(fp)
    2f5c:	00801144 	movi	r2,69
    2f60:	e0bcc90d 	sth	r2,-3292(fp)
    2f64:	00bfeec4 	movi	r2,-69
    2f68:	e0bcc98d 	sth	r2,-3290(fp)
    2f6c:	00801144 	movi	r2,69
    2f70:	e0bcca0d 	sth	r2,-3288(fp)
    2f74:	00801144 	movi	r2,69
    2f78:	e0bcca8d 	sth	r2,-3286(fp)
    2f7c:	00bfeec4 	movi	r2,-69
    2f80:	e0bccb0d 	sth	r2,-3284(fp)
    2f84:	00801144 	movi	r2,69
    2f88:	e0bccb8d 	sth	r2,-3282(fp)
    2f8c:	00bfeec4 	movi	r2,-69
    2f90:	e0bccc0d 	sth	r2,-3280(fp)
    2f94:	00801144 	movi	r2,69
    2f98:	e0bccc8d 	sth	r2,-3278(fp)
    2f9c:	00bfeec4 	movi	r2,-69
    2fa0:	e0bccd0d 	sth	r2,-3276(fp)
    2fa4:	00801144 	movi	r2,69
    2fa8:	e0bccd8d 	sth	r2,-3274(fp)
    2fac:	00bfeec4 	movi	r2,-69
    2fb0:	e0bcce0d 	sth	r2,-3272(fp)
    2fb4:	00801144 	movi	r2,69
    2fb8:	e0bcce8d 	sth	r2,-3270(fp)
    2fbc:	00801144 	movi	r2,69
    2fc0:	e0bccf0d 	sth	r2,-3268(fp)
    2fc4:	00bfeec4 	movi	r2,-69
    2fc8:	e0bccf8d 	sth	r2,-3266(fp)
    2fcc:	00801144 	movi	r2,69
    2fd0:	e0bcd00d 	sth	r2,-3264(fp)
    2fd4:	00bfeec4 	movi	r2,-69
    2fd8:	e0bcd08d 	sth	r2,-3262(fp)
    2fdc:	00801144 	movi	r2,69
    2fe0:	e0bcd10d 	sth	r2,-3260(fp)
    2fe4:	00bfeec4 	movi	r2,-69
    2fe8:	e0bcd18d 	sth	r2,-3258(fp)
    2fec:	00801144 	movi	r2,69
    2ff0:	e0bcd20d 	sth	r2,-3256(fp)
    2ff4:	00bfeec4 	movi	r2,-69
    2ff8:	e0bcd28d 	sth	r2,-3254(fp)
    2ffc:	00801144 	movi	r2,69
    3000:	e0bcd30d 	sth	r2,-3252(fp)
    3004:	00801144 	movi	r2,69
    3008:	e0bcd38d 	sth	r2,-3250(fp)
    300c:	00bfeec4 	movi	r2,-69
    3010:	e0bcd40d 	sth	r2,-3248(fp)
    3014:	00801144 	movi	r2,69
    3018:	e0bcd48d 	sth	r2,-3246(fp)
    301c:	00bfeec4 	movi	r2,-69
    3020:	e0bcd50d 	sth	r2,-3244(fp)
    3024:	00801144 	movi	r2,69
    3028:	e0bcd58d 	sth	r2,-3242(fp)
    302c:	00bfeec4 	movi	r2,-69
    3030:	e0bcd60d 	sth	r2,-3240(fp)
    3034:	00801144 	movi	r2,69
    3038:	e0bcd68d 	sth	r2,-3238(fp)
    303c:	00bfeec4 	movi	r2,-69
    3040:	e0bcd70d 	sth	r2,-3236(fp)
    3044:	00801144 	movi	r2,69
    3048:	e0bcd78d 	sth	r2,-3234(fp)
    304c:	00801144 	movi	r2,69
    3050:	e0bcd80d 	sth	r2,-3232(fp)
    3054:	00bfeec4 	movi	r2,-69
    3058:	e0bcd88d 	sth	r2,-3230(fp)
    305c:	00801144 	movi	r2,69
    3060:	e0bcd90d 	sth	r2,-3228(fp)
    3064:	00bfeec4 	movi	r2,-69
    3068:	e0bcd98d 	sth	r2,-3226(fp)
    306c:	00801144 	movi	r2,69
    3070:	e0bcda0d 	sth	r2,-3224(fp)
    3074:	00bfeec4 	movi	r2,-69
    3078:	e0bcda8d 	sth	r2,-3222(fp)
    307c:	00801144 	movi	r2,69
    3080:	e0bcdb0d 	sth	r2,-3220(fp)
    3084:	00bfeec4 	movi	r2,-69
    3088:	e0bcdb8d 	sth	r2,-3218(fp)
    308c:	00801144 	movi	r2,69
    3090:	e0bcdc0d 	sth	r2,-3216(fp)
    3094:	00801144 	movi	r2,69
    3098:	e0bcdc8d 	sth	r2,-3214(fp)
    309c:	00bfeec4 	movi	r2,-69
    30a0:	e0bcdd0d 	sth	r2,-3212(fp)
    30a4:	00801144 	movi	r2,69
    30a8:	e0bcdd8d 	sth	r2,-3210(fp)
    30ac:	00bfeec4 	movi	r2,-69
    30b0:	e0bcde0d 	sth	r2,-3208(fp)
    30b4:	00801144 	movi	r2,69
    30b8:	e0bcde8d 	sth	r2,-3206(fp)
    30bc:	00bfeec4 	movi	r2,-69
    30c0:	e0bcdf0d 	sth	r2,-3204(fp)
    30c4:	00801144 	movi	r2,69
    30c8:	e0bcdf8d 	sth	r2,-3202(fp)
    30cc:	00bfeec4 	movi	r2,-69
    30d0:	e0bce00d 	sth	r2,-3200(fp)
    30d4:	00801144 	movi	r2,69
    30d8:	e0bce08d 	sth	r2,-3198(fp)
    30dc:	00801144 	movi	r2,69
    30e0:	e0bce10d 	sth	r2,-3196(fp)
    30e4:	00bfeec4 	movi	r2,-69
    30e8:	e0bce18d 	sth	r2,-3194(fp)
    30ec:	00801144 	movi	r2,69
    30f0:	e0bce20d 	sth	r2,-3192(fp)
    30f4:	00bfeec4 	movi	r2,-69
    30f8:	e0bce28d 	sth	r2,-3190(fp)
    30fc:	00801144 	movi	r2,69
    3100:	e0bce30d 	sth	r2,-3188(fp)
    3104:	00bfeec4 	movi	r2,-69
    3108:	e0bce38d 	sth	r2,-3186(fp)
    310c:	00801144 	movi	r2,69
    3110:	e0bce40d 	sth	r2,-3184(fp)
    3114:	00bfeec4 	movi	r2,-69
    3118:	e0bce48d 	sth	r2,-3182(fp)
    311c:	00801144 	movi	r2,69
    3120:	e0bce50d 	sth	r2,-3180(fp)
    3124:	00801144 	movi	r2,69
    3128:	e0bce58d 	sth	r2,-3178(fp)
    312c:	00bfeec4 	movi	r2,-69
    3130:	e0bce60d 	sth	r2,-3176(fp)
    3134:	00801144 	movi	r2,69
    3138:	e0bce68d 	sth	r2,-3174(fp)
    313c:	00bfeec4 	movi	r2,-69
    3140:	e0bce70d 	sth	r2,-3172(fp)
    3144:	00801144 	movi	r2,69
    3148:	e0bce78d 	sth	r2,-3170(fp)
    314c:	00bfeec4 	movi	r2,-69
    3150:	e0bce80d 	sth	r2,-3168(fp)
    3154:	00801144 	movi	r2,69
    3158:	e0bce88d 	sth	r2,-3166(fp)
    315c:	00bfeec4 	movi	r2,-69
    3160:	e0bce90d 	sth	r2,-3164(fp)
    3164:	00801144 	movi	r2,69
    3168:	e0bce98d 	sth	r2,-3162(fp)
    316c:	00801144 	movi	r2,69
    3170:	e0bcea0d 	sth	r2,-3160(fp)
    3174:	00bfeec4 	movi	r2,-69
    3178:	e0bcea8d 	sth	r2,-3158(fp)
    317c:	00801144 	movi	r2,69
    3180:	e0bceb0d 	sth	r2,-3156(fp)
    3184:	00bfeec4 	movi	r2,-69
    3188:	e0bceb8d 	sth	r2,-3154(fp)
    318c:	00801144 	movi	r2,69
    3190:	e0bcec0d 	sth	r2,-3152(fp)
    3194:	00bfeec4 	movi	r2,-69
    3198:	e0bcec8d 	sth	r2,-3150(fp)
    319c:	00801144 	movi	r2,69
    31a0:	e0bced0d 	sth	r2,-3148(fp)
    31a4:	00bfeec4 	movi	r2,-69
    31a8:	e0bced8d 	sth	r2,-3146(fp)
    31ac:	00801144 	movi	r2,69
    31b0:	e0bcee0d 	sth	r2,-3144(fp)
    31b4:	00801144 	movi	r2,69
    31b8:	e0bcee8d 	sth	r2,-3142(fp)
    31bc:	00bfeec4 	movi	r2,-69
    31c0:	e0bcef0d 	sth	r2,-3140(fp)
    31c4:	00801144 	movi	r2,69
    31c8:	e0bcef8d 	sth	r2,-3138(fp)
    31cc:	00bfeec4 	movi	r2,-69
    31d0:	e0bcf00d 	sth	r2,-3136(fp)
    31d4:	00801144 	movi	r2,69
    31d8:	e0bcf08d 	sth	r2,-3134(fp)
    31dc:	00bfeec4 	movi	r2,-69
    31e0:	e0bcf10d 	sth	r2,-3132(fp)
    31e4:	00801144 	movi	r2,69
    31e8:	e0bcf18d 	sth	r2,-3130(fp)
    31ec:	00bfeec4 	movi	r2,-69
    31f0:	e0bcf20d 	sth	r2,-3128(fp)
    31f4:	00801144 	movi	r2,69
    31f8:	e0bcf28d 	sth	r2,-3126(fp)
    31fc:	00801144 	movi	r2,69
    3200:	e0bcf30d 	sth	r2,-3124(fp)
    3204:	00bfeec4 	movi	r2,-69
    3208:	e0bcf38d 	sth	r2,-3122(fp)
    320c:	00801144 	movi	r2,69
    3210:	e0bcf40d 	sth	r2,-3120(fp)
    3214:	00bfeec4 	movi	r2,-69
    3218:	e0bcf48d 	sth	r2,-3118(fp)
    321c:	00801144 	movi	r2,69
    3220:	e0bcf50d 	sth	r2,-3116(fp)
    3224:	00bfeec4 	movi	r2,-69
    3228:	e0bcf58d 	sth	r2,-3114(fp)
    322c:	00801144 	movi	r2,69
    3230:	e0bcf60d 	sth	r2,-3112(fp)
    3234:	00bfeec4 	movi	r2,-69
    3238:	e0bcf68d 	sth	r2,-3110(fp)
    323c:	00801144 	movi	r2,69
    3240:	e0bcf70d 	sth	r2,-3108(fp)
    3244:	00801144 	movi	r2,69
    3248:	e0bcf78d 	sth	r2,-3106(fp)
    324c:	00bfeec4 	movi	r2,-69
    3250:	e0bcf80d 	sth	r2,-3104(fp)
    3254:	00801144 	movi	r2,69
    3258:	e0bcf88d 	sth	r2,-3102(fp)
    325c:	00bfeec4 	movi	r2,-69
    3260:	e0bcf90d 	sth	r2,-3100(fp)
    3264:	00801144 	movi	r2,69
    3268:	e0bcf98d 	sth	r2,-3098(fp)
    326c:	00bfeec4 	movi	r2,-69
    3270:	e0bcfa0d 	sth	r2,-3096(fp)
    3274:	00801144 	movi	r2,69
    3278:	e0bcfa8d 	sth	r2,-3094(fp)
    327c:	00bfeec4 	movi	r2,-69
    3280:	e0bcfb0d 	sth	r2,-3092(fp)
    3284:	00801144 	movi	r2,69
    3288:	e0bcfb8d 	sth	r2,-3090(fp)
    328c:	00801144 	movi	r2,69
    3290:	e0bcfc0d 	sth	r2,-3088(fp)
    3294:	00bfeec4 	movi	r2,-69
    3298:	e0bcfc8d 	sth	r2,-3086(fp)
    329c:	00801144 	movi	r2,69
    32a0:	e0bcfd0d 	sth	r2,-3084(fp)
    32a4:	00bfeec4 	movi	r2,-69
    32a8:	e0bcfd8d 	sth	r2,-3082(fp)
    32ac:	00801144 	movi	r2,69
    32b0:	e0bcfe0d 	sth	r2,-3080(fp)
    32b4:	00bfeec4 	movi	r2,-69
    32b8:	e0bcfe8d 	sth	r2,-3078(fp)
    32bc:	00801144 	movi	r2,69
    32c0:	e0bcff0d 	sth	r2,-3076(fp)
    32c4:	00bfeec4 	movi	r2,-69
    32c8:	e0bcff8d 	sth	r2,-3074(fp)
    32cc:	00801144 	movi	r2,69
    32d0:	e0bd000d 	sth	r2,-3072(fp)
    32d4:	00801144 	movi	r2,69
    32d8:	e0bd008d 	sth	r2,-3070(fp)
    32dc:	00bfeec4 	movi	r2,-69
    32e0:	e0bd010d 	sth	r2,-3068(fp)
    32e4:	00801144 	movi	r2,69
    32e8:	e0bd018d 	sth	r2,-3066(fp)
    32ec:	00bfeec4 	movi	r2,-69
    32f0:	e0bd020d 	sth	r2,-3064(fp)
    32f4:	00801144 	movi	r2,69
    32f8:	e0bd028d 	sth	r2,-3062(fp)
    32fc:	00bfeec4 	movi	r2,-69
    3300:	e0bd030d 	sth	r2,-3060(fp)
    3304:	00801144 	movi	r2,69
    3308:	e0bd038d 	sth	r2,-3058(fp)
    330c:	00bfeec4 	movi	r2,-69
    3310:	e0bd040d 	sth	r2,-3056(fp)
    3314:	00801144 	movi	r2,69
    3318:	e0bd048d 	sth	r2,-3054(fp)
    331c:	00801144 	movi	r2,69
    3320:	e0bd050d 	sth	r2,-3052(fp)
    3324:	00bfeec4 	movi	r2,-69
    3328:	e0bd058d 	sth	r2,-3050(fp)
    332c:	00801144 	movi	r2,69
    3330:	e0bd060d 	sth	r2,-3048(fp)
    3334:	00bfeec4 	movi	r2,-69
    3338:	e0bd068d 	sth	r2,-3046(fp)
    333c:	00801144 	movi	r2,69
    3340:	e0bd070d 	sth	r2,-3044(fp)
    3344:	00bfeec4 	movi	r2,-69
    3348:	e0bd078d 	sth	r2,-3042(fp)
    334c:	00801144 	movi	r2,69
    3350:	e0bd080d 	sth	r2,-3040(fp)
    3354:	00bfeec4 	movi	r2,-69
    3358:	e0bd088d 	sth	r2,-3038(fp)
    335c:	00801144 	movi	r2,69
    3360:	e0bd090d 	sth	r2,-3036(fp)
    3364:	00801144 	movi	r2,69
    3368:	e0bd098d 	sth	r2,-3034(fp)
    336c:	00bfeec4 	movi	r2,-69
    3370:	e0bd0a0d 	sth	r2,-3032(fp)
    3374:	00801144 	movi	r2,69
    3378:	e0bd0a8d 	sth	r2,-3030(fp)
    337c:	00bfeec4 	movi	r2,-69
    3380:	e0bd0b0d 	sth	r2,-3028(fp)
    3384:	00801144 	movi	r2,69
    3388:	e0bd0b8d 	sth	r2,-3026(fp)
    338c:	00800174 	movhi	r2,5
    3390:	10b04d04 	addi	r2,r2,-16076
    3394:	e13e0b04 	addi	r4,fp,-2004
    3398:	100b883a 	mov	r5,r2
    339c:	0180fa04 	movi	r6,1000
    33a0:	00041200 	call	4120 <memcpy>
    33a4:	00800174 	movhi	r2,5
    33a8:	10af5304 	addi	r2,r2,-17076
    33ac:	e13f0504 	addi	r4,fp,-1004
    33b0:	100b883a 	mov	r5,r2
    33b4:	0180fa04 	movi	r6,1000
    33b8:	00041200 	call	4120 <memcpy>
    33bc:	01000084 	movi	r4,2
    33c0:	01400044 	movi	r5,1
    33c4:	000d883a 	mov	r6,zero
    33c8:	002bb380 	call	2bb38 <t_socket>
    33cc:	e0bc6715 	stw	r2,-3684(fp)
    33d0:	e0bc6717 	ldw	r2,-3684(fp)
    33d4:	1004403a 	cmpge	r2,r2,zero
    33d8:	1000041e 	bne	r2,zero,33ec <SSSNiosIISimpleSocketServerPeneTask+0x670>
    33dc:	01003fc4 	movi	r4,255
    33e0:	01400174 	movhi	r5,5
    33e4:	29714704 	addi	r5,r5,-15076
    33e8:	00014e00 	call	14e0 <alt_NetworkErrorHandler>
    33ec:	00800084 	movi	r2,2
    33f0:	e0bc680d 	sth	r2,-3680(fp)
    33f4:	00914004 	movi	r2,17664
    33f8:	e0bc688d 	sth	r2,-3678(fp)
    33fc:	e03c6915 	stw	zero,-3676(fp)
    3400:	e17c6804 	addi	r5,fp,-3680
    3404:	e13c6717 	ldw	r4,-3684(fp)
    3408:	01800404 	movi	r6,16
    340c:	002bbc80 	call	2bbc8 <t_bind>
    3410:	1004403a 	cmpge	r2,r2,zero
    3414:	1000041e 	bne	r2,zero,3428 <SSSNiosIISimpleSocketServerPeneTask+0x6ac>
    3418:	01003fc4 	movi	r4,255
    341c:	01400174 	movhi	r5,5
    3420:	29715004 	addi	r5,r5,-15040
    3424:	00014e00 	call	14e0 <alt_NetworkErrorHandler>
    3428:	e13c6717 	ldw	r4,-3684(fp)
    342c:	01400044 	movi	r5,1
    3430:	002bd440 	call	2bd44 <t_listen>
    3434:	1004403a 	cmpge	r2,r2,zero
    3438:	1000041e 	bne	r2,zero,344c <SSSNiosIISimpleSocketServerPeneTask+0x6d0>
    343c:	01003fc4 	movi	r4,255
    3440:	01400174 	movhi	r5,5
    3444:	29715604 	addi	r5,r5,-15016
    3448:	00014e00 	call	14e0 <alt_NetworkErrorHandler>
    344c:	01000174 	movhi	r4,5
    3450:	211cfd04 	addi	r4,r4,29684
    3454:	00025800 	call	2580 <SSS_reset_connection>
    3458:	01000174 	movhi	r4,5
    345c:	21315d04 	addi	r4,r4,-14988
    3460:	01401144 	movi	r5,69
    3464:	00043b80 	call	43b8 <printf>
    3468:	e03c6c15 	stw	zero,-3664(fp)
    346c:	e17c6c04 	addi	r5,fp,-3664
    3470:	e13c6717 	ldw	r4,-3684(fp)
    3474:	003118c0 	call	3118c <ifd_set>
    3478:	e0bc6717 	ldw	r2,-3684(fp)
    347c:	10800044 	addi	r2,r2,1
    3480:	e0bc6615 	stw	r2,-3688(fp)
    3484:	00800174 	movhi	r2,5
    3488:	109cfd04 	addi	r2,r2,29684
    348c:	10800117 	ldw	r2,4(r2)
    3490:	10bfffe0 	cmpeqi	r2,r2,-1
    3494:	10000f1e 	bne	r2,zero,34d4 <SSSNiosIISimpleSocketServerPeneTask+0x758>
    3498:	00800174 	movhi	r2,5
    349c:	109cfd04 	addi	r2,r2,29684
    34a0:	11000117 	ldw	r4,4(r2)
    34a4:	e17c6c04 	addi	r5,fp,-3664
    34a8:	003118c0 	call	3118c <ifd_set>
    34ac:	00800174 	movhi	r2,5
    34b0:	109cfd04 	addi	r2,r2,29684
    34b4:	10c00117 	ldw	r3,4(r2)
    34b8:	e0bc6617 	ldw	r2,-3688(fp)
    34bc:	18800516 	blt	r3,r2,34d4 <SSSNiosIISimpleSocketServerPeneTask+0x758>
    34c0:	00800174 	movhi	r2,5
    34c4:	109cfd04 	addi	r2,r2,29684
    34c8:	10800117 	ldw	r2,4(r2)
    34cc:	10800044 	addi	r2,r2,1
    34d0:	e0bc6615 	stw	r2,-3688(fp)
    34d4:	01000174 	movhi	r4,5
    34d8:	21316d04 	addi	r4,r4,-14924
    34dc:	00044f40 	call	44f4 <puts>
    34e0:	e17c6c04 	addi	r5,fp,-3664
    34e4:	d8000015 	stw	zero,0(sp)
    34e8:	e13c6617 	ldw	r4,-3688(fp)
    34ec:	000d883a 	mov	r6,zero
    34f0:	000f883a 	mov	r7,zero
    34f4:	00269480 	call	26948 <bsd_select>
    34f8:	01000174 	movhi	r4,5
    34fc:	21317104 	addi	r4,r4,-14908
    3500:	00044f40 	call	44f4 <puts>
    3504:	e17c6c04 	addi	r5,fp,-3664
    3508:	e13c6717 	ldw	r4,-3684(fp)
    350c:	00312000 	call	31200 <ifd_isset>
    3510:	1005003a 	cmpeq	r2,r2,zero
    3514:	1000081e 	bne	r2,zero,3538 <SSSNiosIISimpleSocketServerPeneTask+0x7bc>
    3518:	e13c6717 	ldw	r4,-3684(fp)
    351c:	01400174 	movhi	r5,5
    3520:	295cfd04 	addi	r5,r5,29684
    3524:	00027580 	call	2758 <SSS_handle_accept>
    3528:	01000174 	movhi	r4,5
    352c:	212f4f04 	addi	r4,r4,-17092
    3530:	00044f40 	call	44f4 <puts>
    3534:	00001206 	br	3580 <SSSNiosIISimpleSocketServerPeneTask+0x804>
    3538:	00800174 	movhi	r2,5
    353c:	109cfd04 	addi	r2,r2,29684
    3540:	10800117 	ldw	r2,4(r2)
    3544:	10bfffe0 	cmpeqi	r2,r2,-1
    3548:	10000d1e 	bne	r2,zero,3580 <SSSNiosIISimpleSocketServerPeneTask+0x804>
    354c:	00800174 	movhi	r2,5
    3550:	109cfd04 	addi	r2,r2,29684
    3554:	11000117 	ldw	r4,4(r2)
    3558:	e17c6c04 	addi	r5,fp,-3664
    355c:	00312000 	call	31200 <ifd_isset>
    3560:	1005003a 	cmpeq	r2,r2,zero
    3564:	1000061e 	bne	r2,zero,3580 <SSSNiosIISimpleSocketServerPeneTask+0x804>
    3568:	01000174 	movhi	r4,5
    356c:	211cfd04 	addi	r4,r4,29684
    3570:	00029c00 	call	29c0 <SSS_handle_receive>
    3574:	01000174 	movhi	r4,5
    3578:	21317604 	addi	r4,r4,-14888
    357c:	00044f40 	call	44f4 <puts>
    3580:	00800174 	movhi	r2,5
    3584:	10b17a04 	addi	r2,r2,-14872
    3588:	e0bc6515 	stw	r2,-3692(fp)
    358c:	e13c6517 	ldw	r4,-3692(fp)
    3590:	0004da00 	call	4da0 <strlen>
    3594:	e0bc6415 	stw	r2,-3696(fp)
    3598:	e03c6305 	stb	zero,-3700(fp)
    359c:	01000174 	movhi	r4,5
    35a0:	2132d704 	addi	r4,r4,-13476
    35a4:	00043b80 	call	43b8 <printf>
    35a8:	e0bc6307 	ldb	r2,-3700(fp)
    35ac:	1005003a 	cmpeq	r2,r2,zero
    35b0:	10002a1e 	bne	r2,zero,365c <SSSNiosIISimpleSocketServerPeneTask+0x8e0>
    35b4:	0080fa04 	movi	r2,1000
    35b8:	e0bfff0d 	sth	r2,-4(fp)
    35bc:	00800174 	movhi	r2,5
    35c0:	109cfd04 	addi	r2,r2,29684
    35c4:	11000117 	ldw	r4,4(r2)
    35c8:	e17fff04 	addi	r5,fp,-4
    35cc:	01800084 	movi	r6,2
    35d0:	000f883a 	mov	r7,zero
    35d4:	002cdd80 	call	2cdd8 <t_send>
    35d8:	10bfffe0 	cmpeqi	r2,r2,-1
    35dc:	10004c1e 	bne	r2,zero,3710 <SSSNiosIISimpleSocketServerPeneTask+0x994>
    35e0:	00800174 	movhi	r2,5
    35e4:	109cfd04 	addi	r2,r2,29684
    35e8:	11000117 	ldw	r4,4(r2)
    35ec:	e17e0b04 	addi	r5,fp,-2004
    35f0:	e0bfff0b 	ldhu	r2,-4(fp)
    35f4:	11bfffcc 	andi	r6,r2,65535
    35f8:	31a0001c 	xori	r6,r6,32768
    35fc:	31a00004 	addi	r6,r6,-32768
    3600:	000f883a 	mov	r7,zero
    3604:	002cdd80 	call	2cdd8 <t_send>
    3608:	10bfffe0 	cmpeqi	r2,r2,-1
    360c:	1000401e 	bne	r2,zero,3710 <SSSNiosIISimpleSocketServerPeneTask+0x994>
    3610:	00800174 	movhi	r2,5
    3614:	109cfd04 	addi	r2,r2,29684
    3618:	10800117 	ldw	r2,4(r2)
    361c:	10bfffe0 	cmpeqi	r2,r2,-1
    3620:	1000371e 	bne	r2,zero,3700 <SSSNiosIISimpleSocketServerPeneTask+0x984>
    3624:	00800174 	movhi	r2,5
    3628:	109cfd04 	addi	r2,r2,29684
    362c:	11000117 	ldw	r4,4(r2)
    3630:	e17c6c04 	addi	r5,fp,-3664
    3634:	00312000 	call	31200 <ifd_isset>
    3638:	1005003a 	cmpeq	r2,r2,zero
    363c:	1000301e 	bne	r2,zero,3700 <SSSNiosIISimpleSocketServerPeneTask+0x984>
    3640:	01000174 	movhi	r4,5
    3644:	211cfd04 	addi	r4,r4,29684
    3648:	00029c00 	call	29c0 <SSS_handle_receive>
    364c:	01000174 	movhi	r4,5
    3650:	21317604 	addi	r4,r4,-14888
    3654:	00044f40 	call	44f4 <puts>
    3658:	00002906 	br	3700 <SSSNiosIISimpleSocketServerPeneTask+0x984>
    365c:	0080fa04 	movi	r2,1000
    3660:	e0bfff0d 	sth	r2,-4(fp)
    3664:	00800174 	movhi	r2,5
    3668:	109cfd04 	addi	r2,r2,29684
    366c:	11000117 	ldw	r4,4(r2)
    3670:	e17fff04 	addi	r5,fp,-4
    3674:	01800084 	movi	r6,2
    3678:	000f883a 	mov	r7,zero
    367c:	002cdd80 	call	2cdd8 <t_send>
    3680:	10bfffe0 	cmpeqi	r2,r2,-1
    3684:	1000221e 	bne	r2,zero,3710 <SSSNiosIISimpleSocketServerPeneTask+0x994>
    3688:	00800174 	movhi	r2,5
    368c:	109cfd04 	addi	r2,r2,29684
    3690:	11000117 	ldw	r4,4(r2)
    3694:	e17f0504 	addi	r5,fp,-1004
    3698:	e0bfff0b 	ldhu	r2,-4(fp)
    369c:	11bfffcc 	andi	r6,r2,65535
    36a0:	31a0001c 	xori	r6,r6,32768
    36a4:	31a00004 	addi	r6,r6,-32768
    36a8:	000f883a 	mov	r7,zero
    36ac:	002cdd80 	call	2cdd8 <t_send>
    36b0:	10bfffe0 	cmpeqi	r2,r2,-1
    36b4:	1000161e 	bne	r2,zero,3710 <SSSNiosIISimpleSocketServerPeneTask+0x994>
    36b8:	00800174 	movhi	r2,5
    36bc:	109cfd04 	addi	r2,r2,29684
    36c0:	10800117 	ldw	r2,4(r2)
    36c4:	10bfffe0 	cmpeqi	r2,r2,-1
    36c8:	10000d1e 	bne	r2,zero,3700 <SSSNiosIISimpleSocketServerPeneTask+0x984>
    36cc:	00800174 	movhi	r2,5
    36d0:	109cfd04 	addi	r2,r2,29684
    36d4:	11000117 	ldw	r4,4(r2)
    36d8:	e17c6c04 	addi	r5,fp,-3664
    36dc:	00312000 	call	31200 <ifd_isset>
    36e0:	1005003a 	cmpeq	r2,r2,zero
    36e4:	1000061e 	bne	r2,zero,3700 <SSSNiosIISimpleSocketServerPeneTask+0x984>
    36e8:	01000174 	movhi	r4,5
    36ec:	211cfd04 	addi	r4,r4,29684
    36f0:	00029c00 	call	29c0 <SSS_handle_receive>
    36f4:	01000174 	movhi	r4,5
    36f8:	21317604 	addi	r4,r4,-14888
    36fc:	00044f40 	call	44f4 <puts>
    3700:	e0bc6307 	ldb	r2,-3700(fp)
    3704:	1005003a 	cmpeq	r2,r2,zero
    3708:	e0bc6305 	stb	r2,-3700(fp)
    370c:	003fa606 	br	35a8 <SSSNiosIISimpleSocketServerPeneTask+0x82c>
    3710:	00800174 	movhi	r2,5
    3714:	109cfd04 	addi	r2,r2,29684
    3718:	11000117 	ldw	r4,4(r2)
    371c:	0023a380 	call	23a38 <close>
    3720:	01000174 	movhi	r4,5
    3724:	211cfd04 	addi	r4,r4,29684
    3728:	00025800 	call	2580 <SSS_reset_connection>
    372c:	003f4e06 	br	3468 <SSSNiosIISimpleSocketServerPeneTask+0x6ec>

00003730 <udivmodsi4>:
    3730:	29001b2e 	bgeu	r5,r4,37a0 <udivmodsi4+0x70>
    3734:	28001a16 	blt	r5,zero,37a0 <udivmodsi4+0x70>
    3738:	00800044 	movi	r2,1
    373c:	0007883a 	mov	r3,zero
    3740:	01c007c4 	movi	r7,31
    3744:	00000306 	br	3754 <udivmodsi4+0x24>
    3748:	19c01326 	beq	r3,r7,3798 <udivmodsi4+0x68>
    374c:	18c00044 	addi	r3,r3,1
    3750:	28000416 	blt	r5,zero,3764 <udivmodsi4+0x34>
    3754:	294b883a 	add	r5,r5,r5
    3758:	1085883a 	add	r2,r2,r2
    375c:	293ffa36 	bltu	r5,r4,3748 <udivmodsi4+0x18>
    3760:	10000d26 	beq	r2,zero,3798 <udivmodsi4+0x68>
    3764:	0007883a 	mov	r3,zero
    3768:	21400236 	bltu	r4,r5,3774 <udivmodsi4+0x44>
    376c:	2149c83a 	sub	r4,r4,r5
    3770:	1886b03a 	or	r3,r3,r2
    3774:	1004d07a 	srli	r2,r2,1
    3778:	280ad07a 	srli	r5,r5,1
    377c:	103ffa1e 	bne	r2,zero,3768 <udivmodsi4+0x38>
    3780:	30000226 	beq	r6,zero,378c <udivmodsi4+0x5c>
    3784:	2005883a 	mov	r2,r4
    3788:	f800283a 	ret
    378c:	1809883a 	mov	r4,r3
    3790:	2005883a 	mov	r2,r4
    3794:	f800283a 	ret
    3798:	0007883a 	mov	r3,zero
    379c:	003ff806 	br	3780 <udivmodsi4+0x50>
    37a0:	00800044 	movi	r2,1
    37a4:	0007883a 	mov	r3,zero
    37a8:	003fef06 	br	3768 <udivmodsi4+0x38>

000037ac <__divsi3>:
    37ac:	defffe04 	addi	sp,sp,-8
    37b0:	dc000015 	stw	r16,0(sp)
    37b4:	dfc00115 	stw	ra,4(sp)
    37b8:	0021883a 	mov	r16,zero
    37bc:	20000c16 	blt	r4,zero,37f0 <__divsi3+0x44>
    37c0:	000d883a 	mov	r6,zero
    37c4:	28000e16 	blt	r5,zero,3800 <__divsi3+0x54>
    37c8:	00037300 	call	3730 <udivmodsi4>
    37cc:	1007883a 	mov	r3,r2
    37d0:	8005003a 	cmpeq	r2,r16,zero
    37d4:	1000011e 	bne	r2,zero,37dc <__divsi3+0x30>
    37d8:	00c7c83a 	sub	r3,zero,r3
    37dc:	1805883a 	mov	r2,r3
    37e0:	dfc00117 	ldw	ra,4(sp)
    37e4:	dc000017 	ldw	r16,0(sp)
    37e8:	dec00204 	addi	sp,sp,8
    37ec:	f800283a 	ret
    37f0:	0109c83a 	sub	r4,zero,r4
    37f4:	04000044 	movi	r16,1
    37f8:	000d883a 	mov	r6,zero
    37fc:	283ff20e 	bge	r5,zero,37c8 <__divsi3+0x1c>
    3800:	014bc83a 	sub	r5,zero,r5
    3804:	8021003a 	cmpeq	r16,r16,zero
    3808:	003fef06 	br	37c8 <__divsi3+0x1c>

0000380c <__modsi3>:
    380c:	deffff04 	addi	sp,sp,-4
    3810:	dfc00015 	stw	ra,0(sp)
    3814:	01800044 	movi	r6,1
    3818:	2807883a 	mov	r3,r5
    381c:	20000416 	blt	r4,zero,3830 <__modsi3+0x24>
    3820:	28000c16 	blt	r5,zero,3854 <__modsi3+0x48>
    3824:	dfc00017 	ldw	ra,0(sp)
    3828:	dec00104 	addi	sp,sp,4
    382c:	00037301 	jmpi	3730 <udivmodsi4>
    3830:	0109c83a 	sub	r4,zero,r4
    3834:	28000b16 	blt	r5,zero,3864 <__modsi3+0x58>
    3838:	180b883a 	mov	r5,r3
    383c:	01800044 	movi	r6,1
    3840:	00037300 	call	3730 <udivmodsi4>
    3844:	0085c83a 	sub	r2,zero,r2
    3848:	dfc00017 	ldw	ra,0(sp)
    384c:	dec00104 	addi	sp,sp,4
    3850:	f800283a 	ret
    3854:	014bc83a 	sub	r5,zero,r5
    3858:	dfc00017 	ldw	ra,0(sp)
    385c:	dec00104 	addi	sp,sp,4
    3860:	00037301 	jmpi	3730 <udivmodsi4>
    3864:	0147c83a 	sub	r3,zero,r5
    3868:	003ff306 	br	3838 <__modsi3+0x2c>

0000386c <__udivsi3>:
    386c:	000d883a 	mov	r6,zero
    3870:	00037301 	jmpi	3730 <udivmodsi4>

00003874 <__umodsi3>:
    3874:	01800044 	movi	r6,1
    3878:	00037301 	jmpi	3730 <udivmodsi4>

0000387c <fprintf>:
    387c:	defffc04 	addi	sp,sp,-16
    3880:	dfc00115 	stw	ra,4(sp)
    3884:	d9800215 	stw	r6,8(sp)
    3888:	d9c00315 	stw	r7,12(sp)
    388c:	d8800204 	addi	r2,sp,8
    3890:	100d883a 	mov	r6,r2
    3894:	d8800015 	stw	r2,0(sp)
    3898:	0006d200 	call	6d20 <__vfprintf_internal>
    389c:	dfc00117 	ldw	ra,4(sp)
    38a0:	dec00404 	addi	sp,sp,16
    38a4:	f800283a 	ret

000038a8 <_fprintf_r>:
    38a8:	defffd04 	addi	sp,sp,-12
    38ac:	2807883a 	mov	r3,r5
    38b0:	dfc00115 	stw	ra,4(sp)
    38b4:	d9c00215 	stw	r7,8(sp)
    38b8:	d8800204 	addi	r2,sp,8
    38bc:	300b883a 	mov	r5,r6
    38c0:	1809883a 	mov	r4,r3
    38c4:	100d883a 	mov	r6,r2
    38c8:	d8800015 	stw	r2,0(sp)
    38cc:	0006d200 	call	6d20 <__vfprintf_internal>
    38d0:	dfc00117 	ldw	ra,4(sp)
    38d4:	dec00304 	addi	sp,sp,12
    38d8:	f800283a 	ret

000038dc <_fwrite_r>:
    38dc:	defff604 	addi	sp,sp,-40
    38e0:	dc400615 	stw	r17,24(sp)
    38e4:	39a3383a 	mul	r17,r7,r6
    38e8:	00800044 	movi	r2,1
    38ec:	dcc00815 	stw	r19,32(sp)
    38f0:	dc800715 	stw	r18,28(sp)
    38f4:	dc000515 	stw	r16,20(sp)
    38f8:	dfc00915 	stw	ra,36(sp)
    38fc:	3825883a 	mov	r18,r7
    3900:	3027883a 	mov	r19,r6
    3904:	2021883a 	mov	r16,r4
    3908:	d9400015 	stw	r5,0(sp)
    390c:	d8800315 	stw	r2,12(sp)
    3910:	dc400115 	stw	r17,4(sp)
    3914:	dc400415 	stw	r17,16(sp)
    3918:	dec00215 	stw	sp,8(sp)
    391c:	20000226 	beq	r4,zero,3928 <_fwrite_r+0x4c>
    3920:	20800e17 	ldw	r2,56(r4)
    3924:	10001226 	beq	r2,zero,3970 <_fwrite_r+0x94>
    3928:	d9400a17 	ldw	r5,40(sp)
    392c:	8009883a 	mov	r4,r16
    3930:	d9800204 	addi	r6,sp,8
    3934:	00090c80 	call	90c8 <__sfvwrite_r>
    3938:	980b883a 	mov	r5,r19
    393c:	10000426 	beq	r2,zero,3950 <_fwrite_r+0x74>
    3940:	d9000417 	ldw	r4,16(sp)
    3944:	8909c83a 	sub	r4,r17,r4
    3948:	000386c0 	call	386c <__udivsi3>
    394c:	1025883a 	mov	r18,r2
    3950:	9005883a 	mov	r2,r18
    3954:	dfc00917 	ldw	ra,36(sp)
    3958:	dcc00817 	ldw	r19,32(sp)
    395c:	dc800717 	ldw	r18,28(sp)
    3960:	dc400617 	ldw	r17,24(sp)
    3964:	dc000517 	ldw	r16,20(sp)
    3968:	dec00a04 	addi	sp,sp,40
    396c:	f800283a 	ret
    3970:	00088e40 	call	88e4 <__sinit>
    3974:	003fec06 	br	3928 <_fwrite_r+0x4c>

00003978 <fwrite>:
    3978:	00800174 	movhi	r2,5
    397c:	108eae04 	addi	r2,r2,15032
    3980:	2017883a 	mov	r11,r4
    3984:	11000017 	ldw	r4,0(r2)
    3988:	defffe04 	addi	sp,sp,-8
    398c:	3013883a 	mov	r9,r6
    3990:	2805883a 	mov	r2,r5
    3994:	d9c00015 	stw	r7,0(sp)
    3998:	580b883a 	mov	r5,r11
    399c:	100d883a 	mov	r6,r2
    39a0:	480f883a 	mov	r7,r9
    39a4:	dfc00115 	stw	ra,4(sp)
    39a8:	00038dc0 	call	38dc <_fwrite_r>
    39ac:	dfc00117 	ldw	ra,4(sp)
    39b0:	dec00204 	addi	sp,sp,8
    39b4:	f800283a 	ret

000039b8 <free>:
    39b8:	00800174 	movhi	r2,5
    39bc:	108eae04 	addi	r2,r2,15032
    39c0:	200b883a 	mov	r5,r4
    39c4:	11000017 	ldw	r4,0(r2)
    39c8:	0008db41 	jmpi	8db4 <_free_r>

000039cc <malloc>:
    39cc:	00800174 	movhi	r2,5
    39d0:	108eae04 	addi	r2,r2,15032
    39d4:	200b883a 	mov	r5,r4
    39d8:	11000017 	ldw	r4,0(r2)
    39dc:	00039e01 	jmpi	39e0 <_malloc_r>

000039e0 <_malloc_r>:
    39e0:	defff604 	addi	sp,sp,-40
    39e4:	28c002c4 	addi	r3,r5,11
    39e8:	00800584 	movi	r2,22
    39ec:	dc800215 	stw	r18,8(sp)
    39f0:	dfc00915 	stw	ra,36(sp)
    39f4:	df000815 	stw	fp,32(sp)
    39f8:	ddc00715 	stw	r23,28(sp)
    39fc:	dd800615 	stw	r22,24(sp)
    3a00:	dd400515 	stw	r21,20(sp)
    3a04:	dd000415 	stw	r20,16(sp)
    3a08:	dcc00315 	stw	r19,12(sp)
    3a0c:	dc400115 	stw	r17,4(sp)
    3a10:	dc000015 	stw	r16,0(sp)
    3a14:	2025883a 	mov	r18,r4
    3a18:	10c01236 	bltu	r2,r3,3a64 <_malloc_r+0x84>
    3a1c:	04400404 	movi	r17,16
    3a20:	8940142e 	bgeu	r17,r5,3a74 <_malloc_r+0x94>
    3a24:	00800304 	movi	r2,12
    3a28:	0007883a 	mov	r3,zero
    3a2c:	90800015 	stw	r2,0(r18)
    3a30:	1805883a 	mov	r2,r3
    3a34:	dfc00917 	ldw	ra,36(sp)
    3a38:	df000817 	ldw	fp,32(sp)
    3a3c:	ddc00717 	ldw	r23,28(sp)
    3a40:	dd800617 	ldw	r22,24(sp)
    3a44:	dd400517 	ldw	r21,20(sp)
    3a48:	dd000417 	ldw	r20,16(sp)
    3a4c:	dcc00317 	ldw	r19,12(sp)
    3a50:	dc800217 	ldw	r18,8(sp)
    3a54:	dc400117 	ldw	r17,4(sp)
    3a58:	dc000017 	ldw	r16,0(sp)
    3a5c:	dec00a04 	addi	sp,sp,40
    3a60:	f800283a 	ret
    3a64:	00bffe04 	movi	r2,-8
    3a68:	18a2703a 	and	r17,r3,r2
    3a6c:	883fed16 	blt	r17,zero,3a24 <_malloc_r+0x44>
    3a70:	897fec36 	bltu	r17,r5,3a24 <_malloc_r+0x44>
    3a74:	9009883a 	mov	r4,r18
    3a78:	000e6340 	call	e634 <__malloc_lock>
    3a7c:	00807dc4 	movi	r2,503
    3a80:	14402b2e 	bgeu	r2,r17,3b30 <_malloc_r+0x150>
    3a84:	8806d27a 	srli	r3,r17,9
    3a88:	18003f1e 	bne	r3,zero,3b88 <_malloc_r+0x1a8>
    3a8c:	880cd0fa 	srli	r6,r17,3
    3a90:	300490fa 	slli	r2,r6,3
    3a94:	02c00174 	movhi	r11,5
    3a98:	5ac7cc04 	addi	r11,r11,7984
    3a9c:	12cb883a 	add	r5,r2,r11
    3aa0:	2c000317 	ldw	r16,12(r5)
    3aa4:	580f883a 	mov	r7,r11
    3aa8:	2c00041e 	bne	r5,r16,3abc <_malloc_r+0xdc>
    3aac:	00000a06 	br	3ad8 <_malloc_r+0xf8>
    3ab0:	1800860e 	bge	r3,zero,3ccc <_malloc_r+0x2ec>
    3ab4:	84000317 	ldw	r16,12(r16)
    3ab8:	2c000726 	beq	r5,r16,3ad8 <_malloc_r+0xf8>
    3abc:	80800117 	ldw	r2,4(r16)
    3ac0:	00ffff04 	movi	r3,-4
    3ac4:	10c8703a 	and	r4,r2,r3
    3ac8:	2447c83a 	sub	r3,r4,r17
    3acc:	008003c4 	movi	r2,15
    3ad0:	10fff70e 	bge	r2,r3,3ab0 <_malloc_r+0xd0>
    3ad4:	31bfffc4 	addi	r6,r6,-1
    3ad8:	32400044 	addi	r9,r6,1
    3adc:	02800174 	movhi	r10,5
    3ae0:	5287ce04 	addi	r10,r10,7992
    3ae4:	54000217 	ldw	r16,8(r10)
    3ae8:	8280a026 	beq	r16,r10,3d6c <_malloc_r+0x38c>
    3aec:	80800117 	ldw	r2,4(r16)
    3af0:	00ffff04 	movi	r3,-4
    3af4:	10ca703a 	and	r5,r2,r3
    3af8:	2c4dc83a 	sub	r6,r5,r17
    3afc:	008003c4 	movi	r2,15
    3b00:	11808316 	blt	r2,r6,3d10 <_malloc_r+0x330>
    3b04:	52800315 	stw	r10,12(r10)
    3b08:	52800215 	stw	r10,8(r10)
    3b0c:	30002916 	blt	r6,zero,3bb4 <_malloc_r+0x1d4>
    3b10:	8147883a 	add	r3,r16,r5
    3b14:	18800117 	ldw	r2,4(r3)
    3b18:	9009883a 	mov	r4,r18
    3b1c:	10800054 	ori	r2,r2,1
    3b20:	18800115 	stw	r2,4(r3)
    3b24:	000e73c0 	call	e73c <__malloc_unlock>
    3b28:	80c00204 	addi	r3,r16,8
    3b2c:	003fc006 	br	3a30 <_malloc_r+0x50>
    3b30:	02c00174 	movhi	r11,5
    3b34:	5ac7cc04 	addi	r11,r11,7984
    3b38:	8ac5883a 	add	r2,r17,r11
    3b3c:	14000317 	ldw	r16,12(r2)
    3b40:	580f883a 	mov	r7,r11
    3b44:	8806d0fa 	srli	r3,r17,3
    3b48:	14006c26 	beq	r2,r16,3cfc <_malloc_r+0x31c>
    3b4c:	80c00117 	ldw	r3,4(r16)
    3b50:	00bfff04 	movi	r2,-4
    3b54:	81800317 	ldw	r6,12(r16)
    3b58:	1886703a 	and	r3,r3,r2
    3b5c:	80c7883a 	add	r3,r16,r3
    3b60:	18800117 	ldw	r2,4(r3)
    3b64:	81400217 	ldw	r5,8(r16)
    3b68:	9009883a 	mov	r4,r18
    3b6c:	10800054 	ori	r2,r2,1
    3b70:	18800115 	stw	r2,4(r3)
    3b74:	31400215 	stw	r5,8(r6)
    3b78:	29800315 	stw	r6,12(r5)
    3b7c:	000e73c0 	call	e73c <__malloc_unlock>
    3b80:	80c00204 	addi	r3,r16,8
    3b84:	003faa06 	br	3a30 <_malloc_r+0x50>
    3b88:	00800104 	movi	r2,4
    3b8c:	10c0052e 	bgeu	r2,r3,3ba4 <_malloc_r+0x1c4>
    3b90:	00800504 	movi	r2,20
    3b94:	10c07836 	bltu	r2,r3,3d78 <_malloc_r+0x398>
    3b98:	198016c4 	addi	r6,r3,91
    3b9c:	300490fa 	slli	r2,r6,3
    3ba0:	003fbc06 	br	3a94 <_malloc_r+0xb4>
    3ba4:	8804d1ba 	srli	r2,r17,6
    3ba8:	11800e04 	addi	r6,r2,56
    3bac:	300490fa 	slli	r2,r6,3
    3bb0:	003fb806 	br	3a94 <_malloc_r+0xb4>
    3bb4:	00807fc4 	movi	r2,511
    3bb8:	1140bb36 	bltu	r2,r5,3ea8 <_malloc_r+0x4c8>
    3bbc:	2806d0fa 	srli	r3,r5,3
    3bc0:	573ffe04 	addi	fp,r10,-8
    3bc4:	00800044 	movi	r2,1
    3bc8:	180890fa 	slli	r4,r3,3
    3bcc:	1807d0ba 	srai	r3,r3,2
    3bd0:	e1c00117 	ldw	r7,4(fp)
    3bd4:	5909883a 	add	r4,r11,r4
    3bd8:	21400217 	ldw	r5,8(r4)
    3bdc:	10c4983a 	sll	r2,r2,r3
    3be0:	81000315 	stw	r4,12(r16)
    3be4:	81400215 	stw	r5,8(r16)
    3be8:	388eb03a 	or	r7,r7,r2
    3bec:	2c000315 	stw	r16,12(r5)
    3bf0:	24000215 	stw	r16,8(r4)
    3bf4:	e1c00115 	stw	r7,4(fp)
    3bf8:	4807883a 	mov	r3,r9
    3bfc:	4800cd16 	blt	r9,zero,3f34 <_malloc_r+0x554>
    3c00:	1807d0ba 	srai	r3,r3,2
    3c04:	00800044 	movi	r2,1
    3c08:	10c8983a 	sll	r4,r2,r3
    3c0c:	39004436 	bltu	r7,r4,3d20 <_malloc_r+0x340>
    3c10:	21c4703a 	and	r2,r4,r7
    3c14:	10000a1e 	bne	r2,zero,3c40 <_malloc_r+0x260>
    3c18:	2109883a 	add	r4,r4,r4
    3c1c:	00bfff04 	movi	r2,-4
    3c20:	4884703a 	and	r2,r9,r2
    3c24:	3906703a 	and	r3,r7,r4
    3c28:	12400104 	addi	r9,r2,4
    3c2c:	1800041e 	bne	r3,zero,3c40 <_malloc_r+0x260>
    3c30:	2109883a 	add	r4,r4,r4
    3c34:	3904703a 	and	r2,r7,r4
    3c38:	4a400104 	addi	r9,r9,4
    3c3c:	103ffc26 	beq	r2,zero,3c30 <_malloc_r+0x250>
    3c40:	480490fa 	slli	r2,r9,3
    3c44:	4819883a 	mov	r12,r9
    3c48:	023fff04 	movi	r8,-4
    3c4c:	589b883a 	add	r13,r11,r2
    3c50:	6807883a 	mov	r3,r13
    3c54:	014003c4 	movi	r5,15
    3c58:	1c000317 	ldw	r16,12(r3)
    3c5c:	1c00041e 	bne	r3,r16,3c70 <_malloc_r+0x290>
    3c60:	0000a706 	br	3f00 <_malloc_r+0x520>
    3c64:	3000ab0e 	bge	r6,zero,3f14 <_malloc_r+0x534>
    3c68:	84000317 	ldw	r16,12(r16)
    3c6c:	1c00a426 	beq	r3,r16,3f00 <_malloc_r+0x520>
    3c70:	80800117 	ldw	r2,4(r16)
    3c74:	1204703a 	and	r2,r2,r8
    3c78:	144dc83a 	sub	r6,r2,r17
    3c7c:	29bff90e 	bge	r5,r6,3c64 <_malloc_r+0x284>
    3c80:	81000317 	ldw	r4,12(r16)
    3c84:	80c00217 	ldw	r3,8(r16)
    3c88:	89400054 	ori	r5,r17,1
    3c8c:	8445883a 	add	r2,r16,r17
    3c90:	20c00215 	stw	r3,8(r4)
    3c94:	19000315 	stw	r4,12(r3)
    3c98:	81400115 	stw	r5,4(r16)
    3c9c:	1187883a 	add	r3,r2,r6
    3ca0:	31000054 	ori	r4,r6,1
    3ca4:	50800315 	stw	r2,12(r10)
    3ca8:	50800215 	stw	r2,8(r10)
    3cac:	19800015 	stw	r6,0(r3)
    3cb0:	11000115 	stw	r4,4(r2)
    3cb4:	12800215 	stw	r10,8(r2)
    3cb8:	12800315 	stw	r10,12(r2)
    3cbc:	9009883a 	mov	r4,r18
    3cc0:	000e73c0 	call	e73c <__malloc_unlock>
    3cc4:	80c00204 	addi	r3,r16,8
    3cc8:	003f5906 	br	3a30 <_malloc_r+0x50>
    3ccc:	8109883a 	add	r4,r16,r4
    3cd0:	20800117 	ldw	r2,4(r4)
    3cd4:	80c00217 	ldw	r3,8(r16)
    3cd8:	81400317 	ldw	r5,12(r16)
    3cdc:	10800054 	ori	r2,r2,1
    3ce0:	20800115 	stw	r2,4(r4)
    3ce4:	28c00215 	stw	r3,8(r5)
    3ce8:	19400315 	stw	r5,12(r3)
    3cec:	9009883a 	mov	r4,r18
    3cf0:	000e73c0 	call	e73c <__malloc_unlock>
    3cf4:	80c00204 	addi	r3,r16,8
    3cf8:	003f4d06 	br	3a30 <_malloc_r+0x50>
    3cfc:	80800204 	addi	r2,r16,8
    3d00:	14000317 	ldw	r16,12(r2)
    3d04:	143f911e 	bne	r2,r16,3b4c <_malloc_r+0x16c>
    3d08:	1a400084 	addi	r9,r3,2
    3d0c:	003f7306 	br	3adc <_malloc_r+0xfc>
    3d10:	88c00054 	ori	r3,r17,1
    3d14:	8445883a 	add	r2,r16,r17
    3d18:	80c00115 	stw	r3,4(r16)
    3d1c:	003fdf06 	br	3c9c <_malloc_r+0x2bc>
    3d20:	e4000217 	ldw	r16,8(fp)
    3d24:	00bfff04 	movi	r2,-4
    3d28:	80c00117 	ldw	r3,4(r16)
    3d2c:	802d883a 	mov	r22,r16
    3d30:	18aa703a 	and	r21,r3,r2
    3d34:	ac401636 	bltu	r21,r17,3d90 <_malloc_r+0x3b0>
    3d38:	ac49c83a 	sub	r4,r21,r17
    3d3c:	008003c4 	movi	r2,15
    3d40:	1100130e 	bge	r2,r4,3d90 <_malloc_r+0x3b0>
    3d44:	88800054 	ori	r2,r17,1
    3d48:	8447883a 	add	r3,r16,r17
    3d4c:	80800115 	stw	r2,4(r16)
    3d50:	20800054 	ori	r2,r4,1
    3d54:	18800115 	stw	r2,4(r3)
    3d58:	e0c00215 	stw	r3,8(fp)
    3d5c:	9009883a 	mov	r4,r18
    3d60:	000e73c0 	call	e73c <__malloc_unlock>
    3d64:	80c00204 	addi	r3,r16,8
    3d68:	003f3106 	br	3a30 <_malloc_r+0x50>
    3d6c:	39c00117 	ldw	r7,4(r7)
    3d70:	573ffe04 	addi	fp,r10,-8
    3d74:	003fa006 	br	3bf8 <_malloc_r+0x218>
    3d78:	00801504 	movi	r2,84
    3d7c:	10c06736 	bltu	r2,r3,3f1c <_malloc_r+0x53c>
    3d80:	8804d33a 	srli	r2,r17,12
    3d84:	11801b84 	addi	r6,r2,110
    3d88:	300490fa 	slli	r2,r6,3
    3d8c:	003f4106 	br	3a94 <_malloc_r+0xb4>
    3d90:	d0a8fa17 	ldw	r2,-23576(gp)
    3d94:	d0e00817 	ldw	r3,-32736(gp)
    3d98:	053fffc4 	movi	r20,-1
    3d9c:	10800404 	addi	r2,r2,16
    3da0:	88a7883a 	add	r19,r17,r2
    3da4:	1d000326 	beq	r3,r20,3db4 <_malloc_r+0x3d4>
    3da8:	98c3ffc4 	addi	r3,r19,4095
    3dac:	00bc0004 	movi	r2,-4096
    3db0:	18a6703a 	and	r19,r3,r2
    3db4:	9009883a 	mov	r4,r18
    3db8:	980b883a 	mov	r5,r19
    3dbc:	00045080 	call	4508 <_sbrk_r>
    3dc0:	1009883a 	mov	r4,r2
    3dc4:	15000426 	beq	r2,r20,3dd8 <_malloc_r+0x3f8>
    3dc8:	854b883a 	add	r5,r16,r21
    3dcc:	1029883a 	mov	r20,r2
    3dd0:	11405a2e 	bgeu	r2,r5,3f3c <_malloc_r+0x55c>
    3dd4:	87000c26 	beq	r16,fp,3e08 <_malloc_r+0x428>
    3dd8:	e4000217 	ldw	r16,8(fp)
    3ddc:	80c00117 	ldw	r3,4(r16)
    3de0:	00bfff04 	movi	r2,-4
    3de4:	1884703a 	and	r2,r3,r2
    3de8:	14400336 	bltu	r2,r17,3df8 <_malloc_r+0x418>
    3dec:	1449c83a 	sub	r4,r2,r17
    3df0:	008003c4 	movi	r2,15
    3df4:	113fd316 	blt	r2,r4,3d44 <_malloc_r+0x364>
    3df8:	9009883a 	mov	r4,r18
    3dfc:	000e73c0 	call	e73c <__malloc_unlock>
    3e00:	0007883a 	mov	r3,zero
    3e04:	003f0a06 	br	3a30 <_malloc_r+0x50>
    3e08:	05c001b4 	movhi	r23,6
    3e0c:	bde1e404 	addi	r23,r23,-30832
    3e10:	b8800017 	ldw	r2,0(r23)
    3e14:	988d883a 	add	r6,r19,r2
    3e18:	b9800015 	stw	r6,0(r23)
    3e1c:	d0e00817 	ldw	r3,-32736(gp)
    3e20:	00bfffc4 	movi	r2,-1
    3e24:	18808e26 	beq	r3,r2,4060 <_malloc_r+0x680>
    3e28:	2145c83a 	sub	r2,r4,r5
    3e2c:	3085883a 	add	r2,r6,r2
    3e30:	b8800015 	stw	r2,0(r23)
    3e34:	20c001cc 	andi	r3,r4,7
    3e38:	18005f1e 	bne	r3,zero,3fb8 <_malloc_r+0x5d8>
    3e3c:	000b883a 	mov	r5,zero
    3e40:	a4c5883a 	add	r2,r20,r19
    3e44:	1083ffcc 	andi	r2,r2,4095
    3e48:	00c40004 	movi	r3,4096
    3e4c:	1887c83a 	sub	r3,r3,r2
    3e50:	28e7883a 	add	r19,r5,r3
    3e54:	9009883a 	mov	r4,r18
    3e58:	980b883a 	mov	r5,r19
    3e5c:	00045080 	call	4508 <_sbrk_r>
    3e60:	1007883a 	mov	r3,r2
    3e64:	00bfffc4 	movi	r2,-1
    3e68:	18807a26 	beq	r3,r2,4054 <_malloc_r+0x674>
    3e6c:	1d05c83a 	sub	r2,r3,r20
    3e70:	9885883a 	add	r2,r19,r2
    3e74:	10c00054 	ori	r3,r2,1
    3e78:	b8800017 	ldw	r2,0(r23)
    3e7c:	a021883a 	mov	r16,r20
    3e80:	a0c00115 	stw	r3,4(r20)
    3e84:	9885883a 	add	r2,r19,r2
    3e88:	b8800015 	stw	r2,0(r23)
    3e8c:	e5000215 	stw	r20,8(fp)
    3e90:	b7003626 	beq	r22,fp,3f6c <_malloc_r+0x58c>
    3e94:	018003c4 	movi	r6,15
    3e98:	35404b36 	bltu	r6,r21,3fc8 <_malloc_r+0x5e8>
    3e9c:	00800044 	movi	r2,1
    3ea0:	a0800115 	stw	r2,4(r20)
    3ea4:	003fcd06 	br	3ddc <_malloc_r+0x3fc>
    3ea8:	2808d27a 	srli	r4,r5,9
    3eac:	2000371e 	bne	r4,zero,3f8c <_malloc_r+0x5ac>
    3eb0:	2808d0fa 	srli	r4,r5,3
    3eb4:	200690fa 	slli	r3,r4,3
    3eb8:	1ad1883a 	add	r8,r3,r11
    3ebc:	41800217 	ldw	r6,8(r8)
    3ec0:	41805b26 	beq	r8,r6,4030 <_malloc_r+0x650>
    3ec4:	30800117 	ldw	r2,4(r6)
    3ec8:	00ffff04 	movi	r3,-4
    3ecc:	10c4703a 	and	r2,r2,r3
    3ed0:	2880022e 	bgeu	r5,r2,3edc <_malloc_r+0x4fc>
    3ed4:	31800217 	ldw	r6,8(r6)
    3ed8:	41bffa1e 	bne	r8,r6,3ec4 <_malloc_r+0x4e4>
    3edc:	32000317 	ldw	r8,12(r6)
    3ee0:	39c00117 	ldw	r7,4(r7)
    3ee4:	82000315 	stw	r8,12(r16)
    3ee8:	81800215 	stw	r6,8(r16)
    3eec:	07000174 	movhi	fp,5
    3ef0:	e707cc04 	addi	fp,fp,7984
    3ef4:	34000315 	stw	r16,12(r6)
    3ef8:	44000215 	stw	r16,8(r8)
    3efc:	003f3e06 	br	3bf8 <_malloc_r+0x218>
    3f00:	63000044 	addi	r12,r12,1
    3f04:	608000cc 	andi	r2,r12,3
    3f08:	10005d26 	beq	r2,zero,4080 <_malloc_r+0x6a0>
    3f0c:	18c00204 	addi	r3,r3,8
    3f10:	003f5106 	br	3c58 <_malloc_r+0x278>
    3f14:	8089883a 	add	r4,r16,r2
    3f18:	003f6d06 	br	3cd0 <_malloc_r+0x2f0>
    3f1c:	00805504 	movi	r2,340
    3f20:	10c02036 	bltu	r2,r3,3fa4 <_malloc_r+0x5c4>
    3f24:	8804d3fa 	srli	r2,r17,15
    3f28:	11801dc4 	addi	r6,r2,119
    3f2c:	300490fa 	slli	r2,r6,3
    3f30:	003ed806 	br	3a94 <_malloc_r+0xb4>
    3f34:	48c000c4 	addi	r3,r9,3
    3f38:	003f3106 	br	3c00 <_malloc_r+0x220>
    3f3c:	05c001b4 	movhi	r23,6
    3f40:	bde1e404 	addi	r23,r23,-30832
    3f44:	b8800017 	ldw	r2,0(r23)
    3f48:	988d883a 	add	r6,r19,r2
    3f4c:	b9800015 	stw	r6,0(r23)
    3f50:	293fb21e 	bne	r5,r4,3e1c <_malloc_r+0x43c>
    3f54:	2083ffcc 	andi	r2,r4,4095
    3f58:	103fb01e 	bne	r2,zero,3e1c <_malloc_r+0x43c>
    3f5c:	e4000217 	ldw	r16,8(fp)
    3f60:	9d45883a 	add	r2,r19,r21
    3f64:	10800054 	ori	r2,r2,1
    3f68:	80800115 	stw	r2,4(r16)
    3f6c:	b8c00017 	ldw	r3,0(r23)
    3f70:	d0a8fb17 	ldw	r2,-23572(gp)
    3f74:	10c0012e 	bgeu	r2,r3,3f7c <_malloc_r+0x59c>
    3f78:	d0e8fb15 	stw	r3,-23572(gp)
    3f7c:	d0a8fc17 	ldw	r2,-23568(gp)
    3f80:	10ff962e 	bgeu	r2,r3,3ddc <_malloc_r+0x3fc>
    3f84:	d0e8fc15 	stw	r3,-23568(gp)
    3f88:	003f9406 	br	3ddc <_malloc_r+0x3fc>
    3f8c:	00800104 	movi	r2,4
    3f90:	11001e36 	bltu	r2,r4,400c <_malloc_r+0x62c>
    3f94:	2804d1ba 	srli	r2,r5,6
    3f98:	11000e04 	addi	r4,r2,56
    3f9c:	200690fa 	slli	r3,r4,3
    3fa0:	003fc506 	br	3eb8 <_malloc_r+0x4d8>
    3fa4:	00815504 	movi	r2,1364
    3fa8:	10c01d2e 	bgeu	r2,r3,4020 <_malloc_r+0x640>
    3fac:	01801f84 	movi	r6,126
    3fb0:	0080fc04 	movi	r2,1008
    3fb4:	003eb706 	br	3a94 <_malloc_r+0xb4>
    3fb8:	00800204 	movi	r2,8
    3fbc:	10cbc83a 	sub	r5,r2,r3
    3fc0:	2169883a 	add	r20,r4,r5
    3fc4:	003f9e06 	br	3e40 <_malloc_r+0x460>
    3fc8:	00bffe04 	movi	r2,-8
    3fcc:	a93ffd04 	addi	r4,r21,-12
    3fd0:	2088703a 	and	r4,r4,r2
    3fd4:	b10b883a 	add	r5,r22,r4
    3fd8:	00c00144 	movi	r3,5
    3fdc:	28c00215 	stw	r3,8(r5)
    3fe0:	28c00115 	stw	r3,4(r5)
    3fe4:	b0800117 	ldw	r2,4(r22)
    3fe8:	1080004c 	andi	r2,r2,1
    3fec:	2084b03a 	or	r2,r4,r2
    3ff0:	b0800115 	stw	r2,4(r22)
    3ff4:	313fdd2e 	bgeu	r6,r4,3f6c <_malloc_r+0x58c>
    3ff8:	b1400204 	addi	r5,r22,8
    3ffc:	9009883a 	mov	r4,r18
    4000:	0008db40 	call	8db4 <_free_r>
    4004:	e4000217 	ldw	r16,8(fp)
    4008:	003fd806 	br	3f6c <_malloc_r+0x58c>
    400c:	00800504 	movi	r2,20
    4010:	11001536 	bltu	r2,r4,4068 <_malloc_r+0x688>
    4014:	210016c4 	addi	r4,r4,91
    4018:	200690fa 	slli	r3,r4,3
    401c:	003fa606 	br	3eb8 <_malloc_r+0x4d8>
    4020:	8804d4ba 	srli	r2,r17,18
    4024:	11801f04 	addi	r6,r2,124
    4028:	300490fa 	slli	r2,r6,3
    402c:	003e9906 	br	3a94 <_malloc_r+0xb4>
    4030:	2009d0ba 	srai	r4,r4,2
    4034:	01400174 	movhi	r5,5
    4038:	2947cc04 	addi	r5,r5,7984
    403c:	00c00044 	movi	r3,1
    4040:	28800117 	ldw	r2,4(r5)
    4044:	1906983a 	sll	r3,r3,r4
    4048:	10c4b03a 	or	r2,r2,r3
    404c:	28800115 	stw	r2,4(r5)
    4050:	003fa306 	br	3ee0 <_malloc_r+0x500>
    4054:	0027883a 	mov	r19,zero
    4058:	00c00044 	movi	r3,1
    405c:	003f8606 	br	3e78 <_malloc_r+0x498>
    4060:	d1200815 	stw	r4,-32736(gp)
    4064:	003f7306 	br	3e34 <_malloc_r+0x454>
    4068:	00801504 	movi	r2,84
    406c:	11001936 	bltu	r2,r4,40d4 <_malloc_r+0x6f4>
    4070:	2804d33a 	srli	r2,r5,12
    4074:	11001b84 	addi	r4,r2,110
    4078:	200690fa 	slli	r3,r4,3
    407c:	003f8e06 	br	3eb8 <_malloc_r+0x4d8>
    4080:	480b883a 	mov	r5,r9
    4084:	6807883a 	mov	r3,r13
    4088:	288000cc 	andi	r2,r5,3
    408c:	18fffe04 	addi	r3,r3,-8
    4090:	297fffc4 	addi	r5,r5,-1
    4094:	10001526 	beq	r2,zero,40ec <_malloc_r+0x70c>
    4098:	18800217 	ldw	r2,8(r3)
    409c:	10fffa26 	beq	r2,r3,4088 <_malloc_r+0x6a8>
    40a0:	2109883a 	add	r4,r4,r4
    40a4:	393f1e36 	bltu	r7,r4,3d20 <_malloc_r+0x340>
    40a8:	203f1d26 	beq	r4,zero,3d20 <_malloc_r+0x340>
    40ac:	21c4703a 	and	r2,r4,r7
    40b0:	10000226 	beq	r2,zero,40bc <_malloc_r+0x6dc>
    40b4:	6013883a 	mov	r9,r12
    40b8:	003ee106 	br	3c40 <_malloc_r+0x260>
    40bc:	2109883a 	add	r4,r4,r4
    40c0:	3904703a 	and	r2,r7,r4
    40c4:	63000104 	addi	r12,r12,4
    40c8:	103ffc26 	beq	r2,zero,40bc <_malloc_r+0x6dc>
    40cc:	6013883a 	mov	r9,r12
    40d0:	003edb06 	br	3c40 <_malloc_r+0x260>
    40d4:	00805504 	movi	r2,340
    40d8:	11000836 	bltu	r2,r4,40fc <_malloc_r+0x71c>
    40dc:	2804d3fa 	srli	r2,r5,15
    40e0:	11001dc4 	addi	r4,r2,119
    40e4:	200690fa 	slli	r3,r4,3
    40e8:	003f7306 	br	3eb8 <_malloc_r+0x4d8>
    40ec:	0104303a 	nor	r2,zero,r4
    40f0:	388e703a 	and	r7,r7,r2
    40f4:	e1c00115 	stw	r7,4(fp)
    40f8:	003fe906 	br	40a0 <_malloc_r+0x6c0>
    40fc:	00815504 	movi	r2,1364
    4100:	1100032e 	bgeu	r2,r4,4110 <_malloc_r+0x730>
    4104:	01001f84 	movi	r4,126
    4108:	00c0fc04 	movi	r3,1008
    410c:	003f6a06 	br	3eb8 <_malloc_r+0x4d8>
    4110:	2804d4ba 	srli	r2,r5,18
    4114:	11001f04 	addi	r4,r2,124
    4118:	200690fa 	slli	r3,r4,3
    411c:	003f6606 	br	3eb8 <_malloc_r+0x4d8>

00004120 <memcpy>:
    4120:	01c003c4 	movi	r7,15
    4124:	2007883a 	mov	r3,r4
    4128:	3980032e 	bgeu	r7,r6,4138 <memcpy+0x18>
    412c:	2904b03a 	or	r2,r5,r4
    4130:	108000cc 	andi	r2,r2,3
    4134:	10000926 	beq	r2,zero,415c <memcpy+0x3c>
    4138:	30000626 	beq	r6,zero,4154 <memcpy+0x34>
    413c:	30cd883a 	add	r6,r6,r3
    4140:	28800003 	ldbu	r2,0(r5)
    4144:	29400044 	addi	r5,r5,1
    4148:	18800005 	stb	r2,0(r3)
    414c:	18c00044 	addi	r3,r3,1
    4150:	30fffb1e 	bne	r6,r3,4140 <memcpy+0x20>
    4154:	2005883a 	mov	r2,r4
    4158:	f800283a 	ret
    415c:	3811883a 	mov	r8,r7
    4160:	200f883a 	mov	r7,r4
    4164:	28c00017 	ldw	r3,0(r5)
    4168:	31bffc04 	addi	r6,r6,-16
    416c:	38c00015 	stw	r3,0(r7)
    4170:	28800117 	ldw	r2,4(r5)
    4174:	38800115 	stw	r2,4(r7)
    4178:	28c00217 	ldw	r3,8(r5)
    417c:	38c00215 	stw	r3,8(r7)
    4180:	28800317 	ldw	r2,12(r5)
    4184:	29400404 	addi	r5,r5,16
    4188:	38800315 	stw	r2,12(r7)
    418c:	39c00404 	addi	r7,r7,16
    4190:	41bff436 	bltu	r8,r6,4164 <memcpy+0x44>
    4194:	008000c4 	movi	r2,3
    4198:	1180072e 	bgeu	r2,r6,41b8 <memcpy+0x98>
    419c:	1007883a 	mov	r3,r2
    41a0:	28800017 	ldw	r2,0(r5)
    41a4:	31bfff04 	addi	r6,r6,-4
    41a8:	29400104 	addi	r5,r5,4
    41ac:	38800015 	stw	r2,0(r7)
    41b0:	39c00104 	addi	r7,r7,4
    41b4:	19bffa36 	bltu	r3,r6,41a0 <memcpy+0x80>
    41b8:	3807883a 	mov	r3,r7
    41bc:	003fde06 	br	4138 <memcpy+0x18>

000041c0 <memmove>:
    41c0:	2807883a 	mov	r3,r5
    41c4:	2011883a 	mov	r8,r4
    41c8:	29000c2e 	bgeu	r5,r4,41fc <memmove+0x3c>
    41cc:	298f883a 	add	r7,r5,r6
    41d0:	21c00a2e 	bgeu	r4,r7,41fc <memmove+0x3c>
    41d4:	30000726 	beq	r6,zero,41f4 <memmove+0x34>
    41d8:	2187883a 	add	r3,r4,r6
    41dc:	198dc83a 	sub	r6,r3,r6
    41e0:	39ffffc4 	addi	r7,r7,-1
    41e4:	38800003 	ldbu	r2,0(r7)
    41e8:	18ffffc4 	addi	r3,r3,-1
    41ec:	18800005 	stb	r2,0(r3)
    41f0:	19bffb1e 	bne	r3,r6,41e0 <memmove+0x20>
    41f4:	2005883a 	mov	r2,r4
    41f8:	f800283a 	ret
    41fc:	01c003c4 	movi	r7,15
    4200:	39800a36 	bltu	r7,r6,422c <memmove+0x6c>
    4204:	303ffb26 	beq	r6,zero,41f4 <memmove+0x34>
    4208:	400f883a 	mov	r7,r8
    420c:	320d883a 	add	r6,r6,r8
    4210:	28800003 	ldbu	r2,0(r5)
    4214:	29400044 	addi	r5,r5,1
    4218:	38800005 	stb	r2,0(r7)
    421c:	39c00044 	addi	r7,r7,1
    4220:	39bffb1e 	bne	r7,r6,4210 <memmove+0x50>
    4224:	2005883a 	mov	r2,r4
    4228:	f800283a 	ret
    422c:	1904b03a 	or	r2,r3,r4
    4230:	108000cc 	andi	r2,r2,3
    4234:	103ff31e 	bne	r2,zero,4204 <memmove+0x44>
    4238:	3811883a 	mov	r8,r7
    423c:	180b883a 	mov	r5,r3
    4240:	200f883a 	mov	r7,r4
    4244:	28c00017 	ldw	r3,0(r5)
    4248:	31bffc04 	addi	r6,r6,-16
    424c:	38c00015 	stw	r3,0(r7)
    4250:	28800117 	ldw	r2,4(r5)
    4254:	38800115 	stw	r2,4(r7)
    4258:	28c00217 	ldw	r3,8(r5)
    425c:	38c00215 	stw	r3,8(r7)
    4260:	28800317 	ldw	r2,12(r5)
    4264:	29400404 	addi	r5,r5,16
    4268:	38800315 	stw	r2,12(r7)
    426c:	39c00404 	addi	r7,r7,16
    4270:	41bff436 	bltu	r8,r6,4244 <memmove+0x84>
    4274:	008000c4 	movi	r2,3
    4278:	1180072e 	bgeu	r2,r6,4298 <memmove+0xd8>
    427c:	1007883a 	mov	r3,r2
    4280:	28800017 	ldw	r2,0(r5)
    4284:	31bfff04 	addi	r6,r6,-4
    4288:	29400104 	addi	r5,r5,4
    428c:	38800015 	stw	r2,0(r7)
    4290:	39c00104 	addi	r7,r7,4
    4294:	19bffa36 	bltu	r3,r6,4280 <memmove+0xc0>
    4298:	3811883a 	mov	r8,r7
    429c:	003fd906 	br	4204 <memmove+0x44>

000042a0 <memset>:
    42a0:	008000c4 	movi	r2,3
    42a4:	29403fcc 	andi	r5,r5,255
    42a8:	2007883a 	mov	r3,r4
    42ac:	1180022e 	bgeu	r2,r6,42b8 <memset+0x18>
    42b0:	2084703a 	and	r2,r4,r2
    42b4:	10000826 	beq	r2,zero,42d8 <memset+0x38>
    42b8:	30000526 	beq	r6,zero,42d0 <memset+0x30>
    42bc:	2805883a 	mov	r2,r5
    42c0:	30cd883a 	add	r6,r6,r3
    42c4:	18800005 	stb	r2,0(r3)
    42c8:	18c00044 	addi	r3,r3,1
    42cc:	19bffd1e 	bne	r3,r6,42c4 <memset+0x24>
    42d0:	2005883a 	mov	r2,r4
    42d4:	f800283a 	ret
    42d8:	2804923a 	slli	r2,r5,8
    42dc:	020003c4 	movi	r8,15
    42e0:	200f883a 	mov	r7,r4
    42e4:	2884b03a 	or	r2,r5,r2
    42e8:	1006943a 	slli	r3,r2,16
    42ec:	10c6b03a 	or	r3,r2,r3
    42f0:	41800a2e 	bgeu	r8,r6,431c <memset+0x7c>
    42f4:	4005883a 	mov	r2,r8
    42f8:	31bffc04 	addi	r6,r6,-16
    42fc:	38c00015 	stw	r3,0(r7)
    4300:	38c00115 	stw	r3,4(r7)
    4304:	38c00215 	stw	r3,8(r7)
    4308:	38c00315 	stw	r3,12(r7)
    430c:	39c00404 	addi	r7,r7,16
    4310:	11bff936 	bltu	r2,r6,42f8 <memset+0x58>
    4314:	008000c4 	movi	r2,3
    4318:	1180052e 	bgeu	r2,r6,4330 <memset+0x90>
    431c:	31bfff04 	addi	r6,r6,-4
    4320:	008000c4 	movi	r2,3
    4324:	38c00015 	stw	r3,0(r7)
    4328:	39c00104 	addi	r7,r7,4
    432c:	11bffb36 	bltu	r2,r6,431c <memset+0x7c>
    4330:	3807883a 	mov	r3,r7
    4334:	003fe006 	br	42b8 <memset+0x18>

00004338 <_perror_r>:
    4338:	defffe04 	addi	sp,sp,-8
    433c:	dc000015 	stw	r16,0(sp)
    4340:	dfc00115 	stw	ra,4(sp)
    4344:	2021883a 	mov	r16,r4
    4348:	28000326 	beq	r5,zero,4358 <_perror_r+0x20>
    434c:	28800007 	ldb	r2,0(r5)
    4350:	2809883a 	mov	r4,r5
    4354:	10000c1e 	bne	r2,zero,4388 <_perror_r+0x50>
    4358:	81000017 	ldw	r4,0(r16)
    435c:	000472c0 	call	472c <strerror>
    4360:	1009883a 	mov	r4,r2
    4364:	10000226 	beq	r2,zero,4370 <_perror_r+0x38>
    4368:	81400317 	ldw	r5,12(r16)
    436c:	0008c6c0 	call	8c6c <fputs>
    4370:	81400317 	ldw	r5,12(r16)
    4374:	01000284 	movi	r4,10
    4378:	dfc00117 	ldw	ra,4(sp)
    437c:	dc000017 	ldw	r16,0(sp)
    4380:	dec00204 	addi	sp,sp,8
    4384:	0008b3c1 	jmpi	8b3c <fputc>
    4388:	81400317 	ldw	r5,12(r16)
    438c:	0008c6c0 	call	8c6c <fputs>
    4390:	81400317 	ldw	r5,12(r16)
    4394:	01000174 	movhi	r4,5
    4398:	21337c04 	addi	r4,r4,-12816
    439c:	0008c6c0 	call	8c6c <fputs>
    43a0:	003fed06 	br	4358 <_perror_r+0x20>

000043a4 <perror>:
    43a4:	00800174 	movhi	r2,5
    43a8:	108eae04 	addi	r2,r2,15032
    43ac:	200b883a 	mov	r5,r4
    43b0:	11000017 	ldw	r4,0(r2)
    43b4:	00043381 	jmpi	4338 <_perror_r>

000043b8 <printf>:
    43b8:	defffb04 	addi	sp,sp,-20
    43bc:	dfc00115 	stw	ra,4(sp)
    43c0:	d9400215 	stw	r5,8(sp)
    43c4:	d9800315 	stw	r6,12(sp)
    43c8:	d9c00415 	stw	r7,16(sp)
    43cc:	00800174 	movhi	r2,5
    43d0:	108eae04 	addi	r2,r2,15032
    43d4:	10c00017 	ldw	r3,0(r2)
    43d8:	200b883a 	mov	r5,r4
    43dc:	d8800204 	addi	r2,sp,8
    43e0:	19000217 	ldw	r4,8(r3)
    43e4:	100d883a 	mov	r6,r2
    43e8:	d8800015 	stw	r2,0(sp)
    43ec:	0006d200 	call	6d20 <__vfprintf_internal>
    43f0:	dfc00117 	ldw	ra,4(sp)
    43f4:	dec00504 	addi	sp,sp,20
    43f8:	f800283a 	ret

000043fc <_printf_r>:
    43fc:	defffc04 	addi	sp,sp,-16
    4400:	dfc00115 	stw	ra,4(sp)
    4404:	d9800215 	stw	r6,8(sp)
    4408:	d9c00315 	stw	r7,12(sp)
    440c:	280d883a 	mov	r6,r5
    4410:	21400217 	ldw	r5,8(r4)
    4414:	d8c00204 	addi	r3,sp,8
    4418:	180f883a 	mov	r7,r3
    441c:	d8c00015 	stw	r3,0(sp)
    4420:	0004e740 	call	4e74 <___vfprintf_internal_r>
    4424:	dfc00117 	ldw	ra,4(sp)
    4428:	dec00404 	addi	sp,sp,16
    442c:	f800283a 	ret

00004430 <putchar>:
    4430:	00800174 	movhi	r2,5
    4434:	108eae04 	addi	r2,r2,15032
    4438:	11800017 	ldw	r6,0(r2)
    443c:	200b883a 	mov	r5,r4
    4440:	3009883a 	mov	r4,r6
    4444:	31800217 	ldw	r6,8(r6)
    4448:	000ab181 	jmpi	ab18 <_putc_r>

0000444c <_putchar_r>:
    444c:	21800217 	ldw	r6,8(r4)
    4450:	000ab181 	jmpi	ab18 <_putc_r>

00004454 <_puts_r>:
    4454:	defff604 	addi	sp,sp,-40
    4458:	dc400715 	stw	r17,28(sp)
    445c:	2023883a 	mov	r17,r4
    4460:	2809883a 	mov	r4,r5
    4464:	dfc00915 	stw	ra,36(sp)
    4468:	dcc00815 	stw	r19,32(sp)
    446c:	2827883a 	mov	r19,r5
    4470:	0004da00 	call	4da0 <strlen>
    4474:	89400217 	ldw	r5,8(r17)
    4478:	00c00174 	movhi	r3,5
    447c:	18f37d04 	addi	r3,r3,-12812
    4480:	01c00044 	movi	r7,1
    4484:	12000044 	addi	r8,r2,1
    4488:	d8c00515 	stw	r3,20(sp)
    448c:	d9c00615 	stw	r7,24(sp)
    4490:	d8c00304 	addi	r3,sp,12
    4494:	01c00084 	movi	r7,2
    4498:	8809883a 	mov	r4,r17
    449c:	d80d883a 	mov	r6,sp
    44a0:	d8c00015 	stw	r3,0(sp)
    44a4:	dcc00315 	stw	r19,12(sp)
    44a8:	da000215 	stw	r8,8(sp)
    44ac:	d9c00115 	stw	r7,4(sp)
    44b0:	d8800415 	stw	r2,16(sp)
    44b4:	00090c80 	call	90c8 <__sfvwrite_r>
    44b8:	00ffffc4 	movi	r3,-1
    44bc:	10000626 	beq	r2,zero,44d8 <_puts_r+0x84>
    44c0:	1805883a 	mov	r2,r3
    44c4:	dfc00917 	ldw	ra,36(sp)
    44c8:	dcc00817 	ldw	r19,32(sp)
    44cc:	dc400717 	ldw	r17,28(sp)
    44d0:	dec00a04 	addi	sp,sp,40
    44d4:	f800283a 	ret
    44d8:	00c00284 	movi	r3,10
    44dc:	1805883a 	mov	r2,r3
    44e0:	dfc00917 	ldw	ra,36(sp)
    44e4:	dcc00817 	ldw	r19,32(sp)
    44e8:	dc400717 	ldw	r17,28(sp)
    44ec:	dec00a04 	addi	sp,sp,40
    44f0:	f800283a 	ret

000044f4 <puts>:
    44f4:	00800174 	movhi	r2,5
    44f8:	108eae04 	addi	r2,r2,15032
    44fc:	200b883a 	mov	r5,r4
    4500:	11000017 	ldw	r4,0(r2)
    4504:	00044541 	jmpi	4454 <_puts_r>

00004508 <_sbrk_r>:
    4508:	defffd04 	addi	sp,sp,-12
    450c:	dc000015 	stw	r16,0(sp)
    4510:	04000174 	movhi	r16,5
    4514:	8417a604 	addi	r16,r16,24216
    4518:	dc400115 	stw	r17,4(sp)
    451c:	80000015 	stw	zero,0(r16)
    4520:	2023883a 	mov	r17,r4
    4524:	2809883a 	mov	r4,r5
    4528:	dfc00215 	stw	ra,8(sp)
    452c:	000e3580 	call	e358 <sbrk>
    4530:	1007883a 	mov	r3,r2
    4534:	00bfffc4 	movi	r2,-1
    4538:	18800626 	beq	r3,r2,4554 <_sbrk_r+0x4c>
    453c:	1805883a 	mov	r2,r3
    4540:	dfc00217 	ldw	ra,8(sp)
    4544:	dc400117 	ldw	r17,4(sp)
    4548:	dc000017 	ldw	r16,0(sp)
    454c:	dec00304 	addi	sp,sp,12
    4550:	f800283a 	ret
    4554:	80800017 	ldw	r2,0(r16)
    4558:	103ff826 	beq	r2,zero,453c <_sbrk_r+0x34>
    455c:	88800015 	stw	r2,0(r17)
    4560:	1805883a 	mov	r2,r3
    4564:	dfc00217 	ldw	ra,8(sp)
    4568:	dc400117 	ldw	r17,4(sp)
    456c:	dc000017 	ldw	r16,0(sp)
    4570:	dec00304 	addi	sp,sp,12
    4574:	f800283a 	ret

00004578 <sprintf>:
    4578:	deffe504 	addi	sp,sp,-108
    457c:	2013883a 	mov	r9,r4
    4580:	dfc01815 	stw	ra,96(sp)
    4584:	d9801915 	stw	r6,100(sp)
    4588:	d9c01a15 	stw	r7,104(sp)
    458c:	d8801904 	addi	r2,sp,100
    4590:	d8800015 	stw	r2,0(sp)
    4594:	00800174 	movhi	r2,5
    4598:	108eae04 	addi	r2,r2,15032
    459c:	11000017 	ldw	r4,0(r2)
    45a0:	d9c00017 	ldw	r7,0(sp)
    45a4:	00808204 	movi	r2,520
    45a8:	00e00034 	movhi	r3,32768
    45ac:	18ffffc4 	addi	r3,r3,-1
    45b0:	280d883a 	mov	r6,r5
    45b4:	d880040d 	sth	r2,16(sp)
    45b8:	d9400104 	addi	r5,sp,4
    45bc:	00bfffc4 	movi	r2,-1
    45c0:	d8c00615 	stw	r3,24(sp)
    45c4:	d8c00315 	stw	r3,12(sp)
    45c8:	da400515 	stw	r9,20(sp)
    45cc:	d880048d 	sth	r2,18(sp)
    45d0:	da400115 	stw	r9,4(sp)
    45d4:	0004e740 	call	4e74 <___vfprintf_internal_r>
    45d8:	d8c00117 	ldw	r3,4(sp)
    45dc:	18000005 	stb	zero,0(r3)
    45e0:	dfc01817 	ldw	ra,96(sp)
    45e4:	dec01b04 	addi	sp,sp,108
    45e8:	f800283a 	ret

000045ec <_sprintf_r>:
    45ec:	deffe604 	addi	sp,sp,-104
    45f0:	2813883a 	mov	r9,r5
    45f4:	dfc01815 	stw	ra,96(sp)
    45f8:	d9c01915 	stw	r7,100(sp)
    45fc:	d8801904 	addi	r2,sp,100
    4600:	d8800015 	stw	r2,0(sp)
    4604:	100f883a 	mov	r7,r2
    4608:	00808204 	movi	r2,520
    460c:	00e00034 	movhi	r3,32768
    4610:	18ffffc4 	addi	r3,r3,-1
    4614:	d880040d 	sth	r2,16(sp)
    4618:	d9400104 	addi	r5,sp,4
    461c:	00bfffc4 	movi	r2,-1
    4620:	d8c00615 	stw	r3,24(sp)
    4624:	d8c00315 	stw	r3,12(sp)
    4628:	da400515 	stw	r9,20(sp)
    462c:	d880048d 	sth	r2,18(sp)
    4630:	da400115 	stw	r9,4(sp)
    4634:	0004e740 	call	4e74 <___vfprintf_internal_r>
    4638:	d8c00117 	ldw	r3,4(sp)
    463c:	18000005 	stb	zero,0(r3)
    4640:	dfc01817 	ldw	ra,96(sp)
    4644:	dec01a04 	addi	sp,sp,104
    4648:	f800283a 	ret

0000464c <strchr>:
    464c:	208000cc 	andi	r2,r4,3
    4650:	2007883a 	mov	r3,r4
    4654:	1000311e 	bne	r2,zero,471c <strchr+0xd0>
    4658:	29c03fcc 	andi	r7,r5,255
    465c:	0015883a 	mov	r10,zero
    4660:	0007883a 	mov	r3,zero
    4664:	01400104 	movi	r5,4
    4668:	5004923a 	slli	r2,r10,8
    466c:	18c00044 	addi	r3,r3,1
    4670:	3894b03a 	or	r10,r7,r2
    4674:	197ffc1e 	bne	r3,r5,4668 <strchr+0x1c>
    4678:	200d883a 	mov	r6,r4
    467c:	21000017 	ldw	r4,0(r4)
    4680:	017fbff4 	movhi	r5,65279
    4684:	297fbfc4 	addi	r5,r5,-257
    4688:	02202074 	movhi	r8,32897
    468c:	42202004 	addi	r8,r8,-32640
    4690:	2145883a 	add	r2,r4,r5
    4694:	1204703a 	and	r2,r2,r8
    4698:	0106303a 	nor	r3,zero,r4
    469c:	10c4703a 	and	r2,r2,r3
    46a0:	1000151e 	bne	r2,zero,46f8 <strchr+0xac>
    46a4:	2284f03a 	xor	r2,r4,r10
    46a8:	1147883a 	add	r3,r2,r5
    46ac:	1a06703a 	and	r3,r3,r8
    46b0:	0084303a 	nor	r2,zero,r2
    46b4:	10c4703a 	and	r2,r2,r3
    46b8:	10000f1e 	bne	r2,zero,46f8 <strchr+0xac>
    46bc:	2813883a 	mov	r9,r5
    46c0:	00000106 	br	46c8 <strchr+0x7c>
    46c4:	18000c1e 	bne	r3,zero,46f8 <strchr+0xac>
    46c8:	31800104 	addi	r6,r6,4
    46cc:	30800017 	ldw	r2,0(r6)
    46d0:	1286f03a 	xor	r3,r2,r10
    46d4:	124b883a 	add	r5,r2,r9
    46d8:	1a49883a 	add	r4,r3,r9
    46dc:	2a0a703a 	and	r5,r5,r8
    46e0:	0084303a 	nor	r2,zero,r2
    46e4:	2208703a 	and	r4,r4,r8
    46e8:	00c6303a 	nor	r3,zero,r3
    46ec:	1144703a 	and	r2,r2,r5
    46f0:	1906703a 	and	r3,r3,r4
    46f4:	103ff326 	beq	r2,zero,46c4 <strchr+0x78>
    46f8:	3007883a 	mov	r3,r6
    46fc:	00000206 	br	4708 <strchr+0xbc>
    4700:	38800426 	beq	r7,r2,4714 <strchr+0xc8>
    4704:	18c00044 	addi	r3,r3,1
    4708:	18800003 	ldbu	r2,0(r3)
    470c:	103ffc1e 	bne	r2,zero,4700 <strchr+0xb4>
    4710:	3800041e 	bne	r7,zero,4724 <strchr+0xd8>
    4714:	1805883a 	mov	r2,r3
    4718:	f800283a 	ret
    471c:	29c03fcc 	andi	r7,r5,255
    4720:	003ff906 	br	4708 <strchr+0xbc>
    4724:	0005883a 	mov	r2,zero
    4728:	f800283a 	ret

0000472c <strerror>:
    472c:	deffff04 	addi	sp,sp,-4
    4730:	00802184 	movi	r2,134
    4734:	dfc00015 	stw	ra,0(sp)
    4738:	200b883a 	mov	r5,r4
    473c:	11008e36 	bltu	r2,r4,4978 <strerror+0x24c>
    4740:	2105883a 	add	r2,r4,r4
    4744:	1085883a 	add	r2,r2,r2
    4748:	00c00034 	movhi	r3,0
    474c:	18d1d704 	addi	r3,r3,18268
    4750:	10c5883a 	add	r2,r2,r3
    4754:	11000017 	ldw	r4,0(r2)
    4758:	2000683a 	jmp	r4
    475c:	00004978 	rdprs	zero,zero,293
    4760:	000049b0 	cmpltui	zero,zero,294
    4764:	000049bc 	xorhi	zero,zero,294
    4768:	000049c8 	cmpgei	zero,zero,295
    476c:	000049d4 	movui	zero,295
    4770:	000049e0 	cmpeqi	zero,zero,295
    4774:	000049ec 	andhi	zero,zero,295
    4778:	000049f8 	rdprs	zero,zero,295
    477c:	00004a04 	movi	zero,296
    4780:	00004a10 	cmplti	zero,zero,296
    4784:	00004a1c 	xori	zero,zero,296
    4788:	00004a28 	cmpgeui	zero,zero,296
    478c:	00004a34 	movhi	zero,296
    4790:	00004a40 	call	4a4 <FindLastFlashSectorOffset+0xf4>
    4794:	00004a4c 	andi	zero,zero,297
    4798:	00004a58 	cmpnei	zero,zero,297
    479c:	00004a64 	muli	zero,zero,297
    47a0:	00004a70 	cmpltui	zero,zero,297
    47a4:	00004a7c 	xorhi	zero,zero,297
    47a8:	00004a88 	cmpgei	zero,zero,298
    47ac:	00004a94 	movui	zero,298
    47b0:	00004aa0 	cmpeqi	zero,zero,298
    47b4:	00004aac 	andhi	zero,zero,298
    47b8:	00004ab8 	rdprs	zero,zero,298
    47bc:	00004ac4 	movi	zero,299
    47c0:	00004ad0 	cmplti	zero,zero,299
    47c4:	00004adc 	xori	zero,zero,299
    47c8:	00004ae8 	cmpgeui	zero,zero,299
    47cc:	00004af4 	movhi	zero,299
    47d0:	00004b00 	call	4b0 <FindLastFlashSectorOffset+0x100>
    47d4:	00004b0c 	andi	zero,zero,300
    47d8:	00004b18 	cmpnei	zero,zero,300
    47dc:	00004b24 	muli	zero,zero,300
    47e0:	00004b30 	cmpltui	zero,zero,300
    47e4:	00004b3c 	xorhi	zero,zero,300
    47e8:	00004b48 	cmpgei	zero,zero,301
    47ec:	00004b54 	movui	zero,301
    47f0:	00004978 	rdprs	zero,zero,293
    47f4:	00004978 	rdprs	zero,zero,293
    47f8:	00004978 	rdprs	zero,zero,293
    47fc:	00004978 	rdprs	zero,zero,293
    4800:	00004978 	rdprs	zero,zero,293
    4804:	00004978 	rdprs	zero,zero,293
    4808:	00004978 	rdprs	zero,zero,293
    480c:	00004978 	rdprs	zero,zero,293
    4810:	00004b60 	cmpeqi	zero,zero,301
    4814:	00004b6c 	andhi	zero,zero,301
    4818:	00004978 	rdprs	zero,zero,293
    481c:	00004978 	rdprs	zero,zero,293
    4820:	00004978 	rdprs	zero,zero,293
    4824:	00004978 	rdprs	zero,zero,293
    4828:	00004978 	rdprs	zero,zero,293
    482c:	00004978 	rdprs	zero,zero,293
    4830:	00004978 	rdprs	zero,zero,293
    4834:	00004978 	rdprs	zero,zero,293
    4838:	00004978 	rdprs	zero,zero,293
    483c:	00004978 	rdprs	zero,zero,293
    4840:	00004978 	rdprs	zero,zero,293
    4844:	00004978 	rdprs	zero,zero,293
    4848:	00004978 	rdprs	zero,zero,293
    484c:	00004b78 	rdprs	zero,zero,301
    4850:	00004978 	rdprs	zero,zero,293
    4854:	00004b84 	movi	zero,302
    4858:	00004b90 	cmplti	zero,zero,302
    485c:	00004b9c 	xori	zero,zero,302
    4860:	00004ba8 	cmpgeui	zero,zero,302
    4864:	00004bb4 	movhi	zero,302
    4868:	00004bc0 	call	4bc <FindLastFlashSectorOffset+0x10c>
    486c:	00004bcc 	andi	zero,zero,303
    4870:	00004bd8 	cmpnei	zero,zero,303
    4874:	00004be4 	muli	zero,zero,303
    4878:	00004bf0 	cmpltui	zero,zero,303
    487c:	00004978 	rdprs	zero,zero,293
    4880:	00004978 	rdprs	zero,zero,293
    4884:	00004bfc 	xorhi	zero,zero,303
    4888:	00004978 	rdprs	zero,zero,293
    488c:	00004978 	rdprs	zero,zero,293
    4890:	00004c08 	cmpgei	zero,zero,304
    4894:	00004978 	rdprs	zero,zero,293
    4898:	00004978 	rdprs	zero,zero,293
    489c:	00004978 	rdprs	zero,zero,293
    48a0:	00004978 	rdprs	zero,zero,293
    48a4:	00004978 	rdprs	zero,zero,293
    48a8:	00004c14 	movui	zero,304
    48ac:	00004c20 	cmpeqi	zero,zero,304
    48b0:	00004c2c 	andhi	zero,zero,304
    48b4:	00004c38 	rdprs	zero,zero,304
    48b8:	00004c44 	movi	zero,305
    48bc:	00004c50 	cmplti	zero,zero,305
    48c0:	00004c5c 	xori	zero,zero,305
